
/home/zyler/ThesisProjects/TestCheckpoint/MVM/application/prog:     file format elf64-x86-64


Disassembly of section .init:

0000000000001000 <_init>:
    1000:	f3 0f 1e fa          	endbr64
    1004:	48 83 ec 08          	sub    $0x8,%rsp
    1008:	48 8b 05 c1 2f 05 00 	mov    0x52fc1(%rip),%rax        # 53fd0 <__gmon_start__@Base>
    100f:	48 85 c0             	test   %rax,%rax
    1012:	74 02                	je     1016 <_init+0x16>
    1014:	ff d0                	call   *%rax
    1016:	48 83 c4 08          	add    $0x8,%rsp
    101a:	c3                   	ret

Disassembly of section .plt:

0000000000001020 <__isoc23_strtoul@plt-0x10>:
    1020:	ff 35 ca 2f 05 00    	push   0x52fca(%rip)        # 53ff0 <_GLOBAL_OFFSET_TABLE_+0x8>
    1026:	ff 25 cc 2f 05 00    	jmp    *0x52fcc(%rip)        # 53ff8 <_GLOBAL_OFFSET_TABLE_+0x10>
    102c:	0f 1f 40 00          	nopl   0x0(%rax)

0000000000001030 <__isoc23_strtoul@plt>:
    1030:	ff 25 ca 2f 05 00    	jmp    *0x52fca(%rip)        # 54000 <__isoc23_strtoul@GLIBC_2.38>
    1036:	68 00 00 00 00       	push   $0x0
    103b:	e9 e0 ff ff ff       	jmp    1020 <_init+0x20>

0000000000001040 <__errno_location@plt>:
    1040:	ff 25 c2 2f 05 00    	jmp    *0x52fc2(%rip)        # 54008 <__errno_location@GLIBC_2.2.5>
    1046:	68 01 00 00 00       	push   $0x1
    104b:	e9 d0 ff ff ff       	jmp    1020 <_init+0x20>

0000000000001050 <strcpy@plt>:
    1050:	ff 25 ba 2f 05 00    	jmp    *0x52fba(%rip)        # 54010 <strcpy@GLIBC_2.2.5>
    1056:	68 02 00 00 00       	push   $0x2
    105b:	e9 c0 ff ff ff       	jmp    1020 <_init+0x20>

0000000000001060 <puts@plt>:
    1060:	ff 25 b2 2f 05 00    	jmp    *0x52fb2(%rip)        # 54018 <puts@GLIBC_2.2.5>
    1066:	68 03 00 00 00       	push   $0x3
    106b:	e9 b0 ff ff ff       	jmp    1020 <_init+0x20>

0000000000001070 <write@plt>:
    1070:	ff 25 aa 2f 05 00    	jmp    *0x52faa(%rip)        # 54020 <write@GLIBC_2.2.5>
    1076:	68 04 00 00 00       	push   $0x4
    107b:	e9 a0 ff ff ff       	jmp    1020 <_init+0x20>

0000000000001080 <clock@plt>:
    1080:	ff 25 a2 2f 05 00    	jmp    *0x52fa2(%rip)        # 54028 <clock@GLIBC_2.2.5>
    1086:	68 05 00 00 00       	push   $0x5
    108b:	e9 90 ff ff ff       	jmp    1020 <_init+0x20>

0000000000001090 <fclose@plt>:
    1090:	ff 25 9a 2f 05 00    	jmp    *0x52f9a(%rip)        # 54030 <fclose@GLIBC_2.2.5>
    1096:	68 06 00 00 00       	push   $0x6
    109b:	e9 80 ff ff ff       	jmp    1020 <_init+0x20>

00000000000010a0 <strlen@plt>:
    10a0:	ff 25 92 2f 05 00    	jmp    *0x52f92(%rip)        # 54038 <strlen@GLIBC_2.2.5>
    10a6:	68 07 00 00 00       	push   $0x7
    10ab:	e9 70 ff ff ff       	jmp    1020 <_init+0x20>

00000000000010b0 <__stack_chk_fail@plt>:
    10b0:	ff 25 8a 2f 05 00    	jmp    *0x52f8a(%rip)        # 54040 <__stack_chk_fail@GLIBC_2.4>
    10b6:	68 08 00 00 00       	push   $0x8
    10bb:	e9 60 ff ff ff       	jmp    1020 <_init+0x20>

00000000000010c0 <mmap@plt>:
    10c0:	ff 25 82 2f 05 00    	jmp    *0x52f82(%rip)        # 54048 <mmap@GLIBC_2.2.5>
    10c6:	68 09 00 00 00       	push   $0x9
    10cb:	e9 50 ff ff ff       	jmp    1020 <_init+0x20>

00000000000010d0 <system@plt>:
    10d0:	ff 25 7a 2f 05 00    	jmp    *0x52f7a(%rip)        # 54050 <system@GLIBC_2.2.5>
    10d6:	68 0a 00 00 00       	push   $0xa
    10db:	e9 40 ff ff ff       	jmp    1020 <_init+0x20>

00000000000010e0 <strchr@plt>:
    10e0:	ff 25 72 2f 05 00    	jmp    *0x52f72(%rip)        # 54058 <strchr@GLIBC_2.2.5>
    10e6:	68 0b 00 00 00       	push   $0xb
    10eb:	e9 30 ff ff ff       	jmp    1020 <_init+0x20>

00000000000010f0 <printf@plt>:
    10f0:	ff 25 6a 2f 05 00    	jmp    *0x52f6a(%rip)        # 54060 <printf@GLIBC_2.2.5>
    10f6:	68 0c 00 00 00       	push   $0xc
    10fb:	e9 20 ff ff ff       	jmp    1020 <_init+0x20>

0000000000001100 <memset@plt>:
    1100:	ff 25 62 2f 05 00    	jmp    *0x52f62(%rip)        # 54068 <memset@GLIBC_2.2.5>
    1106:	68 0d 00 00 00       	push   $0xd
    110b:	e9 10 ff ff ff       	jmp    1020 <_init+0x20>

0000000000001110 <close@plt>:
    1110:	ff 25 5a 2f 05 00    	jmp    *0x52f5a(%rip)        # 54070 <close@GLIBC_2.2.5>
    1116:	68 0e 00 00 00       	push   $0xe
    111b:	e9 00 ff ff ff       	jmp    1020 <_init+0x20>

0000000000001120 <arch_prctl@plt>:
    1120:	ff 25 52 2f 05 00    	jmp    *0x52f52(%rip)        # 54078 <arch_prctl@GLIBC_2.2.5>
    1126:	68 0f 00 00 00       	push   $0xf
    112b:	e9 f0 fe ff ff       	jmp    1020 <_init+0x20>

0000000000001130 <read@plt>:
    1130:	ff 25 4a 2f 05 00    	jmp    *0x52f4a(%rip)        # 54080 <read@GLIBC_2.2.5>
    1136:	68 10 00 00 00       	push   $0x10
    113b:	e9 e0 fe ff ff       	jmp    1020 <_init+0x20>

0000000000001140 <srand@plt>:
    1140:	ff 25 42 2f 05 00    	jmp    *0x52f42(%rip)        # 54088 <srand@GLIBC_2.2.5>
    1146:	68 11 00 00 00       	push   $0x11
    114b:	e9 d0 fe ff ff       	jmp    1020 <_init+0x20>

0000000000001150 <memcmp@plt>:
    1150:	ff 25 3a 2f 05 00    	jmp    *0x52f3a(%rip)        # 54090 <memcmp@GLIBC_2.2.5>
    1156:	68 12 00 00 00       	push   $0x12
    115b:	e9 c0 fe ff ff       	jmp    1020 <_init+0x20>

0000000000001160 <fgets@plt>:
    1160:	ff 25 32 2f 05 00    	jmp    *0x52f32(%rip)        # 54098 <fgets@GLIBC_2.2.5>
    1166:	68 13 00 00 00       	push   $0x13
    116b:	e9 b0 fe ff ff       	jmp    1020 <_init+0x20>

0000000000001170 <strcmp@plt>:
    1170:	ff 25 2a 2f 05 00    	jmp    *0x52f2a(%rip)        # 540a0 <strcmp@GLIBC_2.2.5>
    1176:	68 14 00 00 00       	push   $0x14
    117b:	e9 a0 fe ff ff       	jmp    1020 <_init+0x20>

0000000000001180 <fprintf@plt>:
    1180:	ff 25 22 2f 05 00    	jmp    *0x52f22(%rip)        # 540a8 <fprintf@GLIBC_2.2.5>
    1186:	68 15 00 00 00       	push   $0x15
    118b:	e9 90 fe ff ff       	jmp    1020 <_init+0x20>

0000000000001190 <syscall@plt>:
    1190:	ff 25 1a 2f 05 00    	jmp    *0x52f1a(%rip)        # 540b0 <syscall@GLIBC_2.2.5>
    1196:	68 16 00 00 00       	push   $0x16
    119b:	e9 80 fe ff ff       	jmp    1020 <_init+0x20>

00000000000011a0 <memcpy@plt>:
    11a0:	ff 25 12 2f 05 00    	jmp    *0x52f12(%rip)        # 540b8 <memcpy@GLIBC_2.14>
    11a6:	68 17 00 00 00       	push   $0x17
    11ab:	e9 70 fe ff ff       	jmp    1020 <_init+0x20>

00000000000011b0 <__isoc23_strtol@plt>:
    11b0:	ff 25 0a 2f 05 00    	jmp    *0x52f0a(%rip)        # 540c0 <__isoc23_strtol@GLIBC_2.38>
    11b6:	68 18 00 00 00       	push   $0x18
    11bb:	e9 60 fe ff ff       	jmp    1020 <_init+0x20>

00000000000011c0 <fflush@plt>:
    11c0:	ff 25 02 2f 05 00    	jmp    *0x52f02(%rip)        # 540c8 <fflush@GLIBC_2.2.5>
    11c6:	68 19 00 00 00       	push   $0x19
    11cb:	e9 50 fe ff ff       	jmp    1020 <_init+0x20>

00000000000011d0 <fseek@plt>:
    11d0:	ff 25 fa 2e 05 00    	jmp    *0x52efa(%rip)        # 540d0 <fseek@GLIBC_2.2.5>
    11d6:	68 1a 00 00 00       	push   $0x1a
    11db:	e9 40 fe ff ff       	jmp    1020 <_init+0x20>

00000000000011e0 <open@plt>:
    11e0:	ff 25 f2 2e 05 00    	jmp    *0x52ef2(%rip)        # 540d8 <open@GLIBC_2.2.5>
    11e6:	68 1b 00 00 00       	push   $0x1b
    11eb:	e9 30 fe ff ff       	jmp    1020 <_init+0x20>

00000000000011f0 <fopen@plt>:
    11f0:	ff 25 ea 2e 05 00    	jmp    *0x52eea(%rip)        # 540e0 <fopen@GLIBC_2.2.5>
    11f6:	68 1c 00 00 00       	push   $0x1c
    11fb:	e9 20 fe ff ff       	jmp    1020 <_init+0x20>

0000000000001200 <perror@plt>:
    1200:	ff 25 e2 2e 05 00    	jmp    *0x52ee2(%rip)        # 540e8 <perror@GLIBC_2.2.5>
    1206:	68 1d 00 00 00       	push   $0x1d
    120b:	e9 10 fe ff ff       	jmp    1020 <_init+0x20>

0000000000001210 <strtok@plt>:
    1210:	ff 25 da 2e 05 00    	jmp    *0x52eda(%rip)        # 540f0 <strtok@GLIBC_2.2.5>
    1216:	68 1e 00 00 00       	push   $0x1e
    121b:	e9 00 fe ff ff       	jmp    1020 <_init+0x20>

0000000000001220 <sprintf@plt>:
    1220:	ff 25 d2 2e 05 00    	jmp    *0x52ed2(%rip)        # 540f8 <sprintf@GLIBC_2.2.5>
    1226:	68 1f 00 00 00       	push   $0x1f
    122b:	e9 f0 fd ff ff       	jmp    1020 <_init+0x20>

0000000000001230 <exit@plt>:
    1230:	ff 25 ca 2e 05 00    	jmp    *0x52eca(%rip)        # 54100 <exit@GLIBC_2.2.5>
    1236:	68 20 00 00 00       	push   $0x20
    123b:	e9 e0 fd ff ff       	jmp    1020 <_init+0x20>

0000000000001240 <fwrite@plt>:
    1240:	ff 25 c2 2e 05 00    	jmp    *0x52ec2(%rip)        # 54108 <fwrite@GLIBC_2.2.5>
    1246:	68 21 00 00 00       	push   $0x21
    124b:	e9 d0 fd ff ff       	jmp    1020 <_init+0x20>

0000000000001250 <aligned_alloc@plt>:
    1250:	ff 25 ba 2e 05 00    	jmp    *0x52eba(%rip)        # 54110 <aligned_alloc@GLIBC_2.16>
    1256:	68 22 00 00 00       	push   $0x22
    125b:	e9 c0 fd ff ff       	jmp    1020 <_init+0x20>

0000000000001260 <strstr@plt>:
    1260:	ff 25 b2 2e 05 00    	jmp    *0x52eb2(%rip)        # 54118 <strstr@GLIBC_2.2.5>
    1266:	68 23 00 00 00       	push   $0x23
    126b:	e9 b0 fd ff ff       	jmp    1020 <_init+0x20>

0000000000001270 <rand@plt>:
    1270:	ff 25 aa 2e 05 00    	jmp    *0x52eaa(%rip)        # 54120 <rand@GLIBC_2.2.5>
    1276:	68 24 00 00 00       	push   $0x24
    127b:	e9 a0 fd ff ff       	jmp    1020 <_init+0x20>

Disassembly of section .text:

0000000000010000 <__cpu_indicator_init>:
   10000:	f3 0f 1e fa          	endbr64
   10004:	8b 15 06 5a 14 00    	mov    0x145a06(%rip),%edx        # 155a10 <__cpu_model>
   1000a:	85 d2                	test   %edx,%edx
   1000c:	0f 85 f4 06 00 00    	jne    10706 <__cpu_indicator_init+0x706>
   10012:	55                   	push   %rbp
   10013:	31 c0                	xor    %eax,%eax
   10015:	48 89 e5             	mov    %rsp,%rbp
   10018:	41 57                	push   %r15
   1001a:	41 56                	push   %r14
   1001c:	41 55                	push   %r13
   1001e:	41 54                	push   %r12
   10020:	53                   	push   %rbx
   10021:	0f a2                	cpuid
   10023:	85 c0                	test   %eax,%eax
   10025:	0f 84 c1 06 00 00    	je     106ec <__cpu_indicator_init+0x6ec>
   1002b:	31 c0                	xor    %eax,%eax
   1002d:	0f a2                	cpuid
   1002f:	41 89 da             	mov    %ebx,%r10d
   10032:	89 c7                	mov    %eax,%edi
   10034:	85 c0                	test   %eax,%eax
   10036:	0f 8e b0 06 00 00    	jle    106ec <__cpu_indicator_init+0x6ec>
   1003c:	31 c0                	xor    %eax,%eax
   1003e:	0f a2                	cpuid
   10040:	85 c0                	test   %eax,%eax
   10042:	0f 84 a4 06 00 00    	je     106ec <__cpu_indicator_init+0x6ec>
   10048:	b8 01 00 00 00       	mov    $0x1,%eax
   1004d:	0f a2                	cpuid
   1004f:	41 89 d4             	mov    %edx,%r12d
   10052:	89 c2                	mov    %eax,%edx
   10054:	41 89 c1             	mov    %eax,%r9d
   10057:	41 89 c8             	mov    %ecx,%r8d
   1005a:	c1 ea 04             	shr    $0x4,%edx
   1005d:	41 c1 e9 08          	shr    $0x8,%r9d
   10061:	83 e2 0f             	and    $0xf,%edx
   10064:	41 83 e1 0f          	and    $0xf,%r9d
   10068:	41 89 d5             	mov    %edx,%r13d
   1006b:	89 c2                	mov    %eax,%edx
   1006d:	c1 e8 14             	shr    $0x14,%eax
   10070:	45 89 ce             	mov    %r9d,%r14d
   10073:	0f b6 c0             	movzbl %al,%eax
   10076:	c1 ea 0c             	shr    $0xc,%edx
   10079:	89 45 cc             	mov    %eax,-0x34(%rbp)
   1007c:	89 c8                	mov    %ecx,%eax
   1007e:	81 e2 f0 00 00 00    	and    $0xf0,%edx
   10084:	25 00 00 00 08       	and    $0x8000000,%eax
   10089:	89 55 d4             	mov    %edx,-0x2c(%rbp)
   1008c:	89 c3                	mov    %eax,%ebx
   1008e:	0f 85 75 06 00 00    	jne    10709 <__cpu_indicator_init+0x709>
   10094:	31 c0                	xor    %eax,%eax
   10096:	45 31 ff             	xor    %r15d,%r15d
   10099:	45 31 c9             	xor    %r9d,%r9d
   1009c:	45 31 db             	xor    %r11d,%r11d
   1009f:	89 45 d0             	mov    %eax,-0x30(%rbp)
   100a2:	41 f7 c4 00 80 00 00 	test   $0x8000,%r12d
   100a9:	74 07                	je     100b2 <__cpu_indicator_init+0xb2>
   100ab:	83 0d 6a 59 14 00 01 	orl    $0x1,0x14596a(%rip)        # 155a1c <__cpu_model+0xc>
   100b2:	41 f7 c4 00 00 80 00 	test   $0x800000,%r12d
   100b9:	74 07                	je     100c2 <__cpu_indicator_init+0xc2>
   100bb:	83 0d 5a 59 14 00 02 	orl    $0x2,0x14595a(%rip)        # 155a1c <__cpu_model+0xc>
   100c2:	41 f7 c4 00 00 00 02 	test   $0x2000000,%r12d
   100c9:	74 07                	je     100d2 <__cpu_indicator_init+0xd2>
   100cb:	83 0d 4a 59 14 00 08 	orl    $0x8,0x14594a(%rip)        # 155a1c <__cpu_model+0xc>
   100d2:	41 f7 c4 00 00 00 04 	test   $0x4000000,%r12d
   100d9:	74 07                	je     100e2 <__cpu_indicator_init+0xe2>
   100db:	83 0d 3a 59 14 00 10 	orl    $0x10,0x14593a(%rip)        # 155a1c <__cpu_model+0xc>
   100e2:	8b 35 18 59 14 00    	mov    0x145918(%rip),%esi        # 155a00 <__cpu_features2>
   100e8:	41 f7 c4 00 01 00 00 	test   $0x100,%r12d
   100ef:	0f 85 69 06 00 00    	jne    1075e <__cpu_indicator_init+0x75e>
   100f5:	41 81 e4 00 00 00 01 	and    $0x1000000,%r12d
   100fc:	0f 85 7e 06 00 00    	jne    10780 <__cpu_indicator_init+0x780>
   10102:	41 f7 c0 00 00 80 00 	test   $0x800000,%r8d
   10109:	74 07                	je     10112 <__cpu_indicator_init+0x112>
   1010b:	83 0d 0a 59 14 00 04 	orl    $0x4,0x14590a(%rip)        # 155a1c <__cpu_model+0xc>
   10112:	44 89 c0             	mov    %r8d,%eax
   10115:	25 00 00 00 02       	and    $0x2000000,%eax
   1011a:	74 0a                	je     10126 <__cpu_indicator_init+0x126>
   1011c:	81 0d f6 58 14 00 00 00 04 00 	orl    $0x40000,0x1458f6(%rip)        # 155a1c <__cpu_model+0xc>
   10126:	41 f6 c0 02          	test   $0x2,%r8b
   1012a:	74 0a                	je     10136 <__cpu_indicator_init+0x136>
   1012c:	81 0d e6 58 14 00 00 00 08 00 	orl    $0x80000,0x1458e6(%rip)        # 155a1c <__cpu_model+0xc>
   10136:	41 f6 c0 01          	test   $0x1,%r8b
   1013a:	74 07                	je     10143 <__cpu_indicator_init+0x143>
   1013c:	83 0d d9 58 14 00 20 	orl    $0x20,0x1458d9(%rip)        # 155a1c <__cpu_model+0xc>
   10143:	41 f7 c0 00 02 00 00 	test   $0x200,%r8d
   1014a:	74 07                	je     10153 <__cpu_indicator_init+0x153>
   1014c:	83 0d c9 58 14 00 40 	orl    $0x40,0x1458c9(%rip)        # 155a1c <__cpu_model+0xc>
   10153:	41 f7 c0 00 00 08 00 	test   $0x80000,%r8d
   1015a:	74 0a                	je     10166 <__cpu_indicator_init+0x166>
   1015c:	81 0d b6 58 14 00 80 00 00 00 	orl    $0x80,0x1458b6(%rip)        # 155a1c <__cpu_model+0xc>
   10166:	41 f7 c0 00 00 10 00 	test   $0x100000,%r8d
   1016d:	74 0a                	je     10179 <__cpu_indicator_init+0x179>
   1016f:	81 0d a3 58 14 00 00 01 00 00 	orl    $0x100,0x1458a3(%rip)        # 155a1c <__cpu_model+0xc>
   10179:	85 db                	test   %ebx,%ebx
   1017b:	0f 85 ee 05 00 00    	jne    1076f <__cpu_indicator_init+0x76f>
   10181:	41 f7 c0 00 20 00 00 	test   $0x2000,%r8d
   10188:	0f 85 2f 06 00 00    	jne    107bd <__cpu_indicator_init+0x7bd>
   1018e:	41 f7 c0 00 00 40 00 	test   $0x400000,%r8d
   10195:	0f 85 11 06 00 00    	jne    107ac <__cpu_indicator_init+0x7ac>
   1019b:	85 c0                	test   %eax,%eax
   1019d:	74 0a                	je     101a9 <__cpu_indicator_init+0x1a9>
   1019f:	81 0d 73 58 14 00 00 00 04 00 	orl    $0x40000,0x145873(%rip)        # 155a1c <__cpu_model+0xc>
   101a9:	41 f7 c0 00 00 00 40 	test   $0x40000000,%r8d
   101b0:	0f 85 ea 05 00 00    	jne    107a0 <__cpu_indicator_init+0x7a0>
   101b6:	41 f7 c0 00 00 00 04 	test   $0x4000000,%r8d
   101bd:	0f 85 ce 05 00 00    	jne    10791 <__cpu_indicator_init+0x791>
   101c3:	45 85 db             	test   %r11d,%r11d
   101c6:	74 33                	je     101fb <__cpu_indicator_init+0x1fb>
   101c8:	41 f7 c0 00 00 00 10 	test   $0x10000000,%r8d
   101cf:	74 0a                	je     101db <__cpu_indicator_init+0x1db>
   101d1:	81 0d 41 58 14 00 00 02 00 00 	orl    $0x200,0x145841(%rip)        # 155a1c <__cpu_model+0xc>
   101db:	41 f7 c0 00 10 00 00 	test   $0x1000,%r8d
   101e2:	74 0a                	je     101ee <__cpu_indicator_init+0x1ee>
   101e4:	81 0d 2e 58 14 00 00 40 00 00 	orl    $0x4000,0x14582e(%rip)        # 155a1c <__cpu_model+0xc>
   101ee:	41 81 e0 00 00 00 20 	and    $0x20000000,%r8d
   101f5:	0f 85 dc 0d 00 00    	jne    10fd7 <__cpu_indicator_init+0xfd7>
   101fb:	83 ff 06             	cmp    $0x6,%edi
   101fe:	0f 86 b1 03 00 00    	jbe    105b5 <__cpu_indicator_init+0x5b5>
   10204:	b8 07 00 00 00       	mov    $0x7,%eax
   10209:	31 c9                	xor    %ecx,%ecx
   1020b:	0f a2                	cpuid
   1020d:	41 89 c8             	mov    %ecx,%r8d
   10210:	41 89 dc             	mov    %ebx,%r12d
   10213:	f6 c3 08             	test   $0x8,%bl
   10216:	74 0a                	je     10222 <__cpu_indicator_init+0x222>
   10218:	81 0d fa 57 14 00 00 00 01 00 	orl    $0x10000,0x1457fa(%rip)        # 155a1c <__cpu_model+0xc>
   10222:	41 f6 c4 04          	test   $0x4,%r12b
   10226:	0f 85 cd 0d 00 00    	jne    10ff9 <__cpu_indicator_init+0xff9>
   1022c:	41 f6 c4 10          	test   $0x10,%r12b
   10230:	0f 85 b2 0d 00 00    	jne    10fe8 <__cpu_indicator_init+0xfe8>
   10236:	41 f7 c4 00 08 00 00 	test   $0x800,%r12d
   1023d:	0f 85 01 0c 00 00    	jne    10e44 <__cpu_indicator_init+0xe44>
   10243:	45 85 db             	test   %r11d,%r11d
   10246:	74 2a                	je     10272 <__cpu_indicator_init+0x272>
   10248:	41 f6 c4 20          	test   $0x20,%r12b
   1024c:	74 0a                	je     10258 <__cpu_indicator_init+0x258>
   1024e:	81 0d c4 57 14 00 00 04 00 00 	orl    $0x400,0x1457c4(%rip)        # 155a1c <__cpu_model+0xc>
   10258:	41 f7 c0 00 04 00 00 	test   $0x400,%r8d
   1025f:	0f 85 ca 07 00 00    	jne    10a2f <__cpu_indicator_init+0xa2f>
   10265:	41 f7 c0 00 02 00 00 	test   $0x200,%r8d
   1026c:	0f 85 cb 07 00 00    	jne    10a3d <__cpu_indicator_init+0xa3d>
   10272:	41 f7 c4 00 01 00 00 	test   $0x100,%r12d
   10279:	74 0a                	je     10285 <__cpu_indicator_init+0x285>
   1027b:	81 0d 97 57 14 00 00 00 02 00 	orl    $0x20000,0x145797(%rip)        # 155a1c <__cpu_model+0xc>
   10285:	41 f6 c4 01          	test   $0x1,%r12b
   10289:	0f 85 37 0d 00 00    	jne    10fc6 <__cpu_indicator_init+0xfc6>
   1028f:	41 f7 c4 00 00 04 00 	test   $0x40000,%r12d
   10296:	0f 85 c8 0b 00 00    	jne    10e64 <__cpu_indicator_init+0xe64>
   1029c:	41 f7 c4 00 00 08 00 	test   $0x80000,%r12d
   102a3:	0f 85 aa 0b 00 00    	jne    10e53 <__cpu_indicator_init+0xe53>
   102a9:	41 f7 c4 00 00 00 20 	test   $0x20000000,%r12d
   102b0:	0f 85 01 0d 00 00    	jne    10fb7 <__cpu_indicator_init+0xfb7>
   102b6:	41 f7 c4 00 00 80 00 	test   $0x800000,%r12d
   102bd:	0f 85 e3 0c 00 00    	jne    10fa6 <__cpu_indicator_init+0xfa6>
   102c3:	41 f7 c4 00 00 00 01 	test   $0x1000000,%r12d
   102ca:	0f 85 c5 0c 00 00    	jne    10f95 <__cpu_indicator_init+0xf95>
   102d0:	41 f6 c0 10          	test   $0x10,%r8b
   102d4:	0f 85 af 0c 00 00    	jne    10f89 <__cpu_indicator_init+0xf89>
   102da:	41 f7 c0 00 00 40 00 	test   $0x400000,%r8d
   102e1:	0f 85 96 0c 00 00    	jne    10f7d <__cpu_indicator_init+0xf7d>
   102e7:	41 f7 c0 00 01 00 00 	test   $0x100,%r8d
   102ee:	0f 85 7b 0c 00 00    	jne    10f6f <__cpu_indicator_init+0xf6f>
   102f4:	41 f7 c0 00 00 00 08 	test   $0x8000000,%r8d
   102fb:	0f 85 5d 0c 00 00    	jne    10f5e <__cpu_indicator_init+0xf5e>
   10301:	41 f7 c0 00 00 00 10 	test   $0x10000000,%r8d
   10308:	0f 85 3f 0c 00 00    	jne    10f4d <__cpu_indicator_init+0xf4d>
   1030e:	41 f7 c0 00 00 00 20 	test   $0x20000000,%r8d
   10315:	0f 85 21 0c 00 00    	jne    10f3c <__cpu_indicator_init+0xf3c>
   1031b:	41 f7 c0 00 00 00 02 	test   $0x2000000,%r8d
   10322:	0f 85 03 0c 00 00    	jne    10f2b <__cpu_indicator_init+0xf2b>
   10328:	41 f6 c0 20          	test   $0x20,%r8b
   1032c:	0f 85 ea 0b 00 00    	jne    10f1c <__cpu_indicator_init+0xf1c>
   10332:	41 f6 c0 80          	test   $0x80,%r8b
   10336:	0f 85 d1 0b 00 00    	jne    10f0d <__cpu_indicator_init+0xf0d>
   1033c:	f6 c6 40             	test   $0x40,%dh
   1033f:	0f 85 b9 0b 00 00    	jne    10efe <__cpu_indicator_init+0xefe>
   10345:	f7 c2 00 00 01 00    	test   $0x10000,%edx
   1034b:	0f 85 9e 0b 00 00    	jne    10eef <__cpu_indicator_init+0xeef>
   10351:	f7 c2 00 00 04 00    	test   $0x40000,%edx
   10357:	0f 85 81 0b 00 00    	jne    10ede <__cpu_indicator_init+0xede>
   1035d:	f7 c2 00 00 10 00    	test   $0x100000,%edx
   10363:	0f 85 64 0b 00 00    	jne    10ecd <__cpu_indicator_init+0xecd>
   10369:	f6 c2 20             	test   $0x20,%dl
   1036c:	0f 85 96 0c 00 00    	jne    11008 <__cpu_indicator_init+0x1008>
   10372:	45 85 ff             	test   %r15d,%r15d
   10375:	74 24                	je     1039b <__cpu_indicator_init+0x39b>
   10377:	f7 c2 00 00 00 01    	test   $0x1000000,%edx
   1037d:	0f 85 09 06 00 00    	jne    1098c <__cpu_indicator_init+0x98c>
   10383:	f7 c2 00 00 00 02    	test   $0x2000000,%edx
   10389:	0f 85 ee 05 00 00    	jne    1097d <__cpu_indicator_init+0x97d>
   1038f:	f7 c2 00 00 40 00    	test   $0x400000,%edx
   10395:	0f 85 d3 05 00 00    	jne    1096e <__cpu_indicator_init+0x96e>
   1039b:	45 85 c9             	test   %r9d,%r9d
   1039e:	0f 84 ca 00 00 00    	je     1046e <__cpu_indicator_init+0x46e>
   103a4:	41 f7 c4 00 00 01 00 	test   $0x10000,%r12d
   103ab:	74 0a                	je     103b7 <__cpu_indicator_init+0x3b7>
   103ad:	81 0d 65 56 14 00 00 80 00 00 	orl    $0x8000,0x145665(%rip)        # 155a1c <__cpu_model+0xc>
   103b7:	45 85 e4             	test   %r12d,%r12d
   103ba:	0f 88 ee 04 00 00    	js     108ae <__cpu_indicator_init+0x8ae>
   103c0:	41 f7 c4 00 00 00 40 	test   $0x40000000,%r12d
   103c7:	74 0a                	je     103d3 <__cpu_indicator_init+0x3d3>
   103c9:	81 0d 49 56 14 00 00 00 20 00 	orl    $0x200000,0x145649(%rip)        # 155a1c <__cpu_model+0xc>
   103d3:	41 f7 c4 00 00 02 00 	test   $0x20000,%r12d
   103da:	74 0a                	je     103e6 <__cpu_indicator_init+0x3e6>
   103dc:	81 0d 36 56 14 00 00 00 40 00 	orl    $0x400000,0x145636(%rip)        # 155a1c <__cpu_model+0xc>
   103e6:	41 f7 c4 00 00 00 10 	test   $0x10000000,%r12d
   103ed:	74 0a                	je     103f9 <__cpu_indicator_init+0x3f9>
   103ef:	81 0d 23 56 14 00 00 00 80 00 	orl    $0x800000,0x145623(%rip)        # 155a1c <__cpu_model+0xc>
   103f9:	41 81 e4 00 00 20 00 	and    $0x200000,%r12d
   10400:	74 0a                	je     1040c <__cpu_indicator_init+0x40c>
   10402:	81 0d 10 56 14 00 00 00 00 08 	orl    $0x8000000,0x145610(%rip)        # 155a1c <__cpu_model+0xc>
   1040c:	41 f6 c0 02          	test   $0x2,%r8b
   10410:	74 0a                	je     1041c <__cpu_indicator_init+0x41c>
   10412:	81 0d 00 56 14 00 00 00 00 04 	orl    $0x4000000,0x145600(%rip)        # 155a1c <__cpu_model+0xc>
   1041c:	41 f6 c0 40          	test   $0x40,%r8b
   10420:	74 0a                	je     1042c <__cpu_indicator_init+0x42c>
   10422:	81 0d f0 55 14 00 00 00 00 80 	orl    $0x80000000,0x1455f0(%rip)        # 155a1c <__cpu_model+0xc>
   1042c:	41 f7 c0 00 08 00 00 	test   $0x800,%r8d
   10433:	0f 85 27 05 00 00    	jne    10960 <__cpu_indicator_init+0x960>
   10439:	41 f7 c0 00 10 00 00 	test   $0x1000,%r8d
   10440:	0f 85 0c 05 00 00    	jne    10952 <__cpu_indicator_init+0x952>
   10446:	41 f7 c0 00 40 00 00 	test   $0x4000,%r8d
   1044d:	74 0a                	je     10459 <__cpu_indicator_init+0x459>
   1044f:	81 0d c3 55 14 00 00 00 00 40 	orl    $0x40000000,0x1455c3(%rip)        # 155a1c <__cpu_model+0xc>
   10459:	f6 c6 01             	test   $0x1,%dh
   1045c:	0f 85 39 05 00 00    	jne    1099b <__cpu_indicator_init+0x99b>
   10462:	81 e2 00 00 80 00    	and    $0x800000,%edx
   10468:	0f 85 94 05 00 00    	jne    10a02 <__cpu_indicator_init+0xa02>
   1046e:	85 c0                	test   %eax,%eax
   10470:	0f 84 58 03 00 00    	je     107ce <__cpu_indicator_init+0x7ce>
   10476:	b8 07 00 00 00       	mov    $0x7,%eax
   1047b:	b9 01 00 00 00       	mov    $0x1,%ecx
   10480:	0f a2                	cpuid
   10482:	a9 00 00 40 00       	test   $0x400000,%eax
   10487:	0f 85 66 05 00 00    	jne    109f3 <__cpu_indicator_init+0x9f3>
   1048d:	a8 80                	test   $0x80,%al
   1048f:	0f 85 52 05 00 00    	jne    109e7 <__cpu_indicator_init+0x9e7>
   10495:	f6 c6 40             	test   $0x40,%dh
   10498:	0f 85 3a 05 00 00    	jne    109d8 <__cpu_indicator_init+0x9d8>
   1049e:	a8 08                	test   $0x8,%al
   104a0:	0f 85 7a 05 00 00    	jne    10a20 <__cpu_indicator_init+0xa20>
   104a6:	f6 c6 80             	test   $0x80,%dh
   104a9:	0f 85 62 05 00 00    	jne    10a11 <__cpu_indicator_init+0xa11>
   104af:	85 c0                	test   %eax,%eax
   104b1:	0f 88 d9 0b 00 00    	js     11090 <__cpu_indicator_init+0x1090>
   104b7:	45 85 db             	test   %r11d,%r11d
   104ba:	74 4c                	je     10508 <__cpu_indicator_init+0x508>
   104bc:	a8 10                	test   $0x10,%al
   104be:	0f 85 48 0c 00 00    	jne    1110c <__cpu_indicator_init+0x110c>
   104c4:	a9 00 00 80 00       	test   $0x800000,%eax
   104c9:	0f 85 31 0c 00 00    	jne    11100 <__cpu_indicator_init+0x1100>
   104cf:	f6 c2 10             	test   $0x10,%dl
   104d2:	0f 85 1c 0c 00 00    	jne    110f4 <__cpu_indicator_init+0x10f4>
   104d8:	f6 c2 20             	test   $0x20,%dl
   104db:	0f 85 07 0c 00 00    	jne    110e8 <__cpu_indicator_init+0x10e8>
   104e1:	f6 c6 04             	test   $0x4,%dh
   104e4:	0f 85 40 0c 00 00    	jne    1112a <__cpu_indicator_init+0x112a>
   104ea:	a8 02                	test   $0x2,%al
   104ec:	0f 85 29 0c 00 00    	jne    1111b <__cpu_indicator_init+0x111b>
   104f2:	a8 01                	test   $0x1,%al
   104f4:	0f 85 df 0b 00 00    	jne    110d9 <__cpu_indicator_init+0x10d9>
   104fa:	a8 04                	test   $0x4,%al
   104fc:	74 0a                	je     10508 <__cpu_indicator_init+0x508>
   104fe:	81 0d 00 55 14 00 00 40 00 00 	orl    $0x4000,0x145500(%rip)        # 155a08 <__cpu_features2+0x8>
   10508:	45 85 c9             	test   %r9d,%r9d
   1050b:	74 13                	je     10520 <__cpu_indicator_init+0x520>
   1050d:	a8 20                	test   $0x20,%al
   1050f:	0f 85 24 0c 00 00    	jne    11139 <__cpu_indicator_init+0x1139>
   10515:	89 d1                	mov    %edx,%ecx
   10517:	c1 e9 13             	shr    $0x13,%ecx
   1051a:	83 e1 01             	and    $0x1,%ecx
   1051d:	41 89 c9             	mov    %ecx,%r9d
   10520:	45 85 ff             	test   %r15d,%r15d
   10523:	74 1a                	je     1053f <__cpu_indicator_init+0x53f>
   10525:	a9 00 00 20 00       	test   $0x200000,%eax
   1052a:	0f 85 17 0c 00 00    	jne    11147 <__cpu_indicator_init+0x1147>
   10530:	f6 c6 01             	test   $0x1,%dh
   10533:	74 0a                	je     1053f <__cpu_indicator_init+0x53f>
   10535:	81 0d c9 54 14 00 00 04 00 00 	orl    $0x400,0x1454c9(%rip)        # 155a08 <__cpu_features2+0x8>
   1053f:	83 7d d0 00          	cmpl   $0x0,-0x30(%rbp)
   10543:	74 12                	je     10557 <__cpu_indicator_init+0x557>
   10545:	81 e2 00 00 20 00    	and    $0x200000,%edx
   1054b:	74 0a                	je     10557 <__cpu_indicator_init+0x557>
   1054d:	81 0d b1 54 14 00 00 80 00 00 	orl    $0x8000,0x1454b1(%rip)        # 155a08 <__cpu_features2+0x8>
   10557:	83 ff 0c             	cmp    $0xc,%edi
   1055a:	76 59                	jbe    105b5 <__cpu_indicator_init+0x5b5>
   1055c:	b8 0d 00 00 00       	mov    $0xd,%eax
   10561:	b9 01 00 00 00       	mov    $0x1,%ecx
   10566:	0f a2                	cpuid
   10568:	a8 01                	test   $0x1,%al
   1056a:	0f 85 d3 03 00 00    	jne    10943 <__cpu_indicator_init+0x943>
   10570:	a8 02                	test   $0x2,%al
   10572:	0f 85 51 04 00 00    	jne    109c9 <__cpu_indicator_init+0x9c9>
   10578:	a8 08                	test   $0x8,%al
   1057a:	0f 85 3a 04 00 00    	jne    109ba <__cpu_indicator_init+0x9ba>
   10580:	83 ff 13             	cmp    $0x13,%edi
   10583:	76 30                	jbe    105b5 <__cpu_indicator_init+0x5b5>
   10585:	b8 14 00 00 00       	mov    $0x14,%eax
   1058a:	31 c9                	xor    %ecx,%ecx
   1058c:	0f a2                	cpuid
   1058e:	80 e3 10             	and    $0x10,%bl
   10591:	0f 85 c1 0a 00 00    	jne    11058 <__cpu_indicator_init+0x1058>
   10597:	83 ff 18             	cmp    $0x18,%edi
   1059a:	76 19                	jbe    105b5 <__cpu_indicator_init+0x5b5>
   1059c:	b8 19 00 00 00       	mov    $0x19,%eax
   105a1:	0f a2                	cpuid
   105a3:	f6 c3 01             	test   $0x1,%bl
   105a6:	0f 85 10 05 00 00    	jne    10abc <__cpu_indicator_init+0xabc>
   105ac:	83 ff 1d             	cmp    $0x1d,%edi
   105af:	0f 87 08 03 00 00    	ja     108bd <__cpu_indicator_init+0x8bd>
   105b5:	b8 00 00 00 80       	mov    $0x80000000,%eax
   105ba:	0f a2                	cpuid
   105bc:	89 c7                	mov    %eax,%edi
   105be:	3d 00 00 00 80       	cmp    $0x80000000,%eax
   105c3:	0f 86 c2 00 00 00    	jbe    1068b <__cpu_indicator_init+0x68b>
   105c9:	b8 01 00 00 80       	mov    $0x80000001,%eax
   105ce:	0f a2                	cpuid
   105d0:	f6 c1 40             	test   $0x40,%cl
   105d3:	74 0a                	je     105df <__cpu_indicator_init+0x5df>
   105d5:	81 0d 3d 54 14 00 00 08 00 00 	orl    $0x800,0x14543d(%rip)        # 155a1c <__cpu_model+0xc>
   105df:	f6 c1 01             	test   $0x1,%cl
   105e2:	0f 85 51 0a 00 00    	jne    11039 <__cpu_indicator_init+0x1039>
   105e8:	89 c8                	mov    %ecx,%eax
   105ea:	83 e0 20             	and    $0x20,%eax
   105ed:	0f 85 35 0a 00 00    	jne    11028 <__cpu_indicator_init+0x1028>
   105f3:	f6 c5 80             	test   $0x80,%ch
   105f6:	0f 85 1b 0a 00 00    	jne    11017 <__cpu_indicator_init+0x1017>
   105fc:	f7 c1 00 00 20 00    	test   $0x200000,%ecx
   10602:	0f 85 b6 08 00 00    	jne    10ebe <__cpu_indicator_init+0xebe>
   10608:	85 c0                	test   %eax,%eax
   1060a:	0f 85 9d 08 00 00    	jne    10ead <__cpu_indicator_init+0xead>
   10610:	f6 c5 01             	test   $0x1,%ch
   10613:	0f 85 88 08 00 00    	jne    10ea1 <__cpu_indicator_init+0xea1>
   10619:	f7 c1 00 00 00 20    	test   $0x20000000,%ecx
   1061f:	0f 85 6b 08 00 00    	jne    10e90 <__cpu_indicator_init+0xe90>
   10625:	f7 c2 00 00 00 20    	test   $0x20000000,%edx
   1062b:	0f 85 4e 08 00 00    	jne    10e7f <__cpu_indicator_init+0xe7f>
   10631:	f7 c2 00 00 00 40    	test   $0x40000000,%edx
   10637:	0f 85 33 08 00 00    	jne    10e70 <__cpu_indicator_init+0xe70>
   1063d:	85 d2                	test   %edx,%edx
   1063f:	0f 88 05 0a 00 00    	js     1104a <__cpu_indicator_init+0x104a>
   10645:	45 85 db             	test   %r11d,%r11d
   10648:	74 1b                	je     10665 <__cpu_indicator_init+0x665>
   1064a:	f7 c1 00 00 01 00    	test   $0x10000,%ecx
   10650:	74 0a                	je     1065c <__cpu_indicator_init+0x65c>
   10652:	81 0d c0 53 14 00 00 10 00 00 	orl    $0x1000,0x1453c0(%rip)        # 155a1c <__cpu_model+0xc>
   1065c:	80 e5 08             	and    $0x8,%ch
   1065f:	0f 85 3a 02 00 00    	jne    1089f <__cpu_indicator_init+0x89f>
   10665:	81 ff 07 00 00 80    	cmp    $0x80000007,%edi
   1066b:	76 1e                	jbe    1068b <__cpu_indicator_init+0x68b>
   1066d:	b8 08 00 00 80       	mov    $0x80000008,%eax
   10672:	0f a2                	cpuid
   10674:	89 df                	mov    %ebx,%edi
   10676:	f6 c3 01             	test   $0x1,%bl
   10679:	0f 85 2a 03 00 00    	jne    109a9 <__cpu_indicator_init+0x9a9>
   1067f:	81 e7 00 02 00 00    	and    $0x200,%edi
   10685:	0f 85 c1 03 00 00    	jne    10a4c <__cpu_indicator_init+0xa4c>
   1068b:	41 81 fa 47 65 6e 75 	cmp    $0x756e6547,%r10d
   10692:	0f 84 a8 00 00 00    	je     10740 <__cpu_indicator_init+0x740>
   10698:	41 81 fa 41 75 74 68 	cmp    $0x68747541,%r10d
   1069f:	0f 84 31 01 00 00    	je     107d6 <__cpu_indicator_init+0x7d6>
   106a5:	41 81 fa 43 65 6e 74 	cmp    $0x746e6543,%r10d
   106ac:	0f 94 c2             	sete   %dl
   106af:	41 83 fe 06          	cmp    $0x6,%r14d
   106b3:	0f 87 31 01 00 00    	ja     107ea <__cpu_indicator_init+0x7ea>
   106b9:	b8 05 00 00 00       	mov    $0x5,%eax
   106be:	84 d2                	test   %dl,%dl
   106c0:	0f 84 24 01 00 00    	je     107ea <__cpu_indicator_init+0x7ea>
   106c6:	89 05 44 53 14 00    	mov    %eax,0x145344(%rip)        # 155a10 <__cpu_model>
   106cc:	8b 05 2e 53 14 00    	mov    0x14532e(%rip),%eax        # 155a00 <__cpu_features2>
   106d2:	a9 00 00 80 00       	test   $0x800000,%eax
   106d7:	74 0f                	je     106e8 <__cpu_indicator_init+0x6e8>
   106d9:	8b 15 3d 53 14 00    	mov    0x14533d(%rip),%edx        # 155a1c <__cpu_model+0xc>
   106df:	f6 c2 10             	test   $0x10,%dl
   106e2:	0f 85 3d 01 00 00    	jne    10825 <__cpu_indicator_init+0x825>
   106e8:	31 c0                	xor    %eax,%eax
   106ea:	eb 0f                	jmp    106fb <__cpu_indicator_init+0x6fb>
   106ec:	c7 05 1a 53 14 00 04 00 00 00 	movl   $0x4,0x14531a(%rip)        # 155a10 <__cpu_model>
   106f6:	b8 ff ff ff ff       	mov    $0xffffffff,%eax
   106fb:	5b                   	pop    %rbx
   106fc:	41 5c                	pop    %r12
   106fe:	41 5d                	pop    %r13
   10700:	41 5e                	pop    %r14
   10702:	41 5f                	pop    %r15
   10704:	5d                   	pop    %rbp
   10705:	c3                   	ret
   10706:	31 c0                	xor    %eax,%eax
   10708:	c3                   	ret
   10709:	31 c9                	xor    %ecx,%ecx
   1070b:	0f 01 d0             	xgetbv
   1070e:	89 c2                	mov    %eax,%edx
   10710:	f7 d2                	not    %edx
   10712:	80 e2 06             	and    $0x6,%dl
   10715:	0f 84 00 07 00 00    	je     10e1b <__cpu_indicator_init+0xe1b>
   1071b:	45 31 c9             	xor    %r9d,%r9d
   1071e:	45 31 db             	xor    %r11d,%r11d
   10721:	89 c2                	mov    %eax,%edx
   10723:	45 31 ff             	xor    %r15d,%r15d
   10726:	f7 d2                	not    %edx
   10728:	81 e2 00 00 06 00    	and    $0x60000,%edx
   1072e:	41 0f 94 c7          	sete   %r15b
   10732:	c1 e8 13             	shr    $0x13,%eax
   10735:	83 e0 01             	and    $0x1,%eax
   10738:	89 45 d0             	mov    %eax,-0x30(%rbp)
   1073b:	e9 62 f9 ff ff       	jmp    100a2 <__cpu_indicator_init+0xa2>
   10740:	41 83 fe 0f          	cmp    $0xf,%r14d
   10744:	0f 84 1a 09 00 00    	je     11064 <__cpu_indicator_init+0x1064>
   1074a:	41 83 fe 06          	cmp    $0x6,%r14d
   1074e:	0f 84 07 03 00 00    	je     10a5b <__cpu_indicator_init+0xa5b>
   10754:	b8 01 00 00 00       	mov    $0x1,%eax
   10759:	e9 68 ff ff ff       	jmp    106c6 <__cpu_indicator_init+0x6c6>
   1075e:	81 ce 00 80 00 00    	or     $0x8000,%esi
   10764:	89 35 96 52 14 00    	mov    %esi,0x145296(%rip)        # 155a00 <__cpu_features2>
   1076a:	e9 86 f9 ff ff       	jmp    100f5 <__cpu_indicator_init+0xf5>
   1076f:	81 ce 00 00 00 40    	or     $0x40000000,%esi
   10775:	89 35 85 52 14 00    	mov    %esi,0x145285(%rip)        # 155a00 <__cpu_features2>
   1077b:	e9 01 fa ff ff       	jmp    10181 <__cpu_indicator_init+0x181>
   10780:	81 ce 00 00 08 00    	or     $0x80000,%esi
   10786:	89 35 74 52 14 00    	mov    %esi,0x145274(%rip)        # 155a00 <__cpu_features2>
   1078c:	e9 71 f9 ff ff       	jmp    10102 <__cpu_indicator_init+0x102>
   10791:	81 0d 69 52 14 00 00 00 02 00 	orl    $0x20000,0x145269(%rip)        # 155a04 <__cpu_features2+0x4>
   1079b:	e9 23 fa ff ff       	jmp    101c3 <__cpu_indicator_init+0x1c3>
   107a0:	83 0d 5d 52 14 00 20 	orl    $0x20,0x14525d(%rip)        # 155a04 <__cpu_features2+0x4>
   107a7:	e9 0a fa ff ff       	jmp    101b6 <__cpu_indicator_init+0x1b6>
   107ac:	81 ce 00 00 00 04    	or     $0x4000000,%esi
   107b2:	89 35 48 52 14 00    	mov    %esi,0x145248(%rip)        # 155a00 <__cpu_features2>
   107b8:	e9 de f9 ff ff       	jmp    1019b <__cpu_indicator_init+0x19b>
   107bd:	81 ce 00 40 00 00    	or     $0x4000,%esi
   107c3:	89 35 37 52 14 00    	mov    %esi,0x145237(%rip)        # 155a00 <__cpu_features2>
   107c9:	e9 c0 f9 ff ff       	jmp    1018e <__cpu_indicator_init+0x18e>
   107ce:	45 31 c9             	xor    %r9d,%r9d
   107d1:	e9 81 fd ff ff       	jmp    10557 <__cpu_indicator_init+0x557>
   107d6:	41 83 fe 0f          	cmp    $0xf,%r14d
   107da:	0f 84 b6 02 00 00    	je     10a96 <__cpu_indicator_init+0xa96>
   107e0:	b8 02 00 00 00       	mov    $0x2,%eax
   107e5:	e9 dc fe ff ff       	jmp    106c6 <__cpu_indicator_init+0x6c6>
   107ea:	41 81 fa 20 20 53 68 	cmp    $0x68532020,%r10d
   107f1:	0f 84 fb 02 00 00    	je     10af2 <__cpu_indicator_init+0xaf2>
   107f7:	84 d2                	test   %dl,%dl
   107f9:	0f 85 f3 02 00 00    	jne    10af2 <__cpu_indicator_init+0xaf2>
   107ff:	41 81 fa 43 79 72 69 	cmp    $0x69727943,%r10d
   10806:	0f 84 4a 09 00 00    	je     11156 <__cpu_indicator_init+0x1156>
   1080c:	41 81 fa 47 65 6f 64 	cmp    $0x646f6547,%r10d
   10813:	b8 04 00 00 00       	mov    $0x4,%eax
   10818:	ba 07 00 00 00       	mov    $0x7,%edx
   1081d:	0f 44 c2             	cmove  %edx,%eax
   10820:	e9 a1 fe ff ff       	jmp    106c6 <__cpu_indicator_init+0x6c6>
   10825:	81 0d d5 51 14 00 00 00 00 80 	orl    $0x80000000,0x1451d5(%rip)        # 155a04 <__cpu_features2+0x4>
   1082f:	89 c1                	mov    %eax,%ecx
   10831:	f7 d1                	not    %ecx
   10833:	81 e1 00 40 40 00    	and    $0x404000,%ecx
   10839:	0f 85 a9 fe ff ff    	jne    106e8 <__cpu_indicator_init+0x6e8>
   1083f:	89 d1                	mov    %edx,%ecx
   10841:	f7 d1                	not    %ecx
   10843:	81 e1 04 01 00 00    	and    $0x104,%ecx
   10849:	0f 85 99 fe ff ff    	jne    106e8 <__cpu_indicator_init+0x6e8>
   1084f:	8b 0d b3 51 14 00    	mov    0x1451b3(%rip),%ecx        # 155a08 <__cpu_features2+0x8>
   10855:	89 ce                	mov    %ecx,%esi
   10857:	83 ce 01             	or     $0x1,%esi
   1085a:	89 35 a8 51 14 00    	mov    %esi,0x1451a8(%rip)        # 155a08 <__cpu_features2+0x8>
   10860:	89 d6                	mov    %edx,%esi
   10862:	f7 d6                	not    %esi
   10864:	81 e6 00 44 03 00    	and    $0x34400,%esi
   1086a:	0f 85 78 fe ff ff    	jne    106e8 <__cpu_indicator_init+0x6e8>
   10870:	f7 d0                	not    %eax
   10872:	a9 00 00 02 06       	test   $0x6020000,%eax
   10877:	0f 85 6b fe ff ff    	jne    106e8 <__cpu_indicator_init+0x6e8>
   1087d:	89 ce                	mov    %ecx,%esi
   1087f:	89 c8                	mov    %ecx,%eax
   10881:	f7 d2                	not    %edx
   10883:	83 ce 07             	or     $0x7,%esi
   10886:	83 c8 03             	or     $0x3,%eax
   10889:	81 e2 00 00 f0 00    	and    $0xf00000,%edx
   1088f:	0f 44 c6             	cmove  %esi,%eax
   10892:	89 05 70 51 14 00    	mov    %eax,0x145170(%rip)        # 155a08 <__cpu_features2+0x8>
   10898:	31 c0                	xor    %eax,%eax
   1089a:	e9 5c fe ff ff       	jmp    106fb <__cpu_indicator_init+0x6fb>
   1089f:	81 0d 73 51 14 00 00 20 00 00 	orl    $0x2000,0x145173(%rip)        # 155a1c <__cpu_model+0xc>
   108a9:	e9 b7 fd ff ff       	jmp    10665 <__cpu_indicator_init+0x665>
   108ae:	81 0d 64 51 14 00 00 00 10 00 	orl    $0x100000,0x145164(%rip)        # 155a1c <__cpu_model+0xc>
   108b8:	e9 03 fb ff ff       	jmp    103c0 <__cpu_indicator_init+0x3c0>
   108bd:	b8 1e 00 00 00       	mov    $0x1e,%eax
   108c2:	b9 01 00 00 00       	mov    $0x1,%ecx
   108c7:	0f a2                	cpuid
   108c9:	45 85 ff             	test   %r15d,%r15d
   108cc:	74 29                	je     108f7 <__cpu_indicator_init+0x8f7>
   108ce:	a8 80                	test   $0x80,%al
   108d0:	0f 85 27 09 00 00    	jne    111fd <__cpu_indicator_init+0x11fd>
   108d6:	a8 40                	test   $0x40,%al
   108d8:	0f 85 10 09 00 00    	jne    111ee <__cpu_indicator_init+0x11ee>
   108de:	a8 20                	test   $0x20,%al
   108e0:	0f 85 f9 08 00 00    	jne    111df <__cpu_indicator_init+0x11df>
   108e6:	a8 10                	test   $0x10,%al
   108e8:	0f 85 e2 08 00 00    	jne    111d0 <__cpu_indicator_init+0x11d0>
   108ee:	f6 c4 01             	test   $0x1,%ah
   108f1:	0f 85 ca 08 00 00    	jne    111c1 <__cpu_indicator_init+0x11c1>
   108f7:	83 ff 23             	cmp    $0x23,%edi
   108fa:	0f 86 b5 fc ff ff    	jbe    105b5 <__cpu_indicator_init+0x5b5>
   10900:	45 85 c9             	test   %r9d,%r9d
   10903:	0f 84 ac fc ff ff    	je     105b5 <__cpu_indicator_init+0x5b5>
   10909:	b8 24 00 00 00       	mov    $0x24,%eax
   1090e:	31 c9                	xor    %ecx,%ecx
   10910:	0f a2                	cpuid
   10912:	0f b6 d3             	movzbl %bl,%edx
   10915:	80 eb 01             	sub    $0x1,%bl
   10918:	74 1a                	je     10934 <__cpu_indicator_init+0x934>
   1091a:	8b 05 e8 50 14 00    	mov    0x1450e8(%rip),%eax        # 155a08 <__cpu_features2+0x8>
   10920:	83 fa 02             	cmp    $0x2,%edx
   10923:	0f 85 0b 05 00 00    	jne    10e34 <__cpu_indicator_init+0xe34>
   10929:	0d 00 00 10 00       	or     $0x100000,%eax
   1092e:	89 05 d4 50 14 00    	mov    %eax,0x1450d4(%rip)        # 155a08 <__cpu_features2+0x8>
   10934:	81 0d ca 50 14 00 00 00 06 00 	orl    $0x60000,0x1450ca(%rip)        # 155a08 <__cpu_features2+0x8>
   1093e:	e9 72 fc ff ff       	jmp    105b5 <__cpu_indicator_init+0x5b5>
   10943:	81 0d b7 50 14 00 00 00 08 00 	orl    $0x80000,0x1450b7(%rip)        # 155a04 <__cpu_features2+0x4>
   1094d:	e9 1e fc ff ff       	jmp    10570 <__cpu_indicator_init+0x570>
   10952:	83 ce 08             	or     $0x8,%esi
   10955:	89 35 a5 50 14 00    	mov    %esi,0x1450a5(%rip)        # 155a00 <__cpu_features2>
   1095b:	e9 e6 fa ff ff       	jmp    10446 <__cpu_indicator_init+0x446>
   10960:	83 ce 04             	or     $0x4,%esi
   10963:	89 35 97 50 14 00    	mov    %esi,0x145097(%rip)        # 155a00 <__cpu_features2>
   10969:	e9 cb fa ff ff       	jmp    10439 <__cpu_indicator_init+0x439>
   1096e:	81 0d 8c 50 14 00 00 00 80 00 	orl    $0x800000,0x14508c(%rip)        # 155a04 <__cpu_features2+0x4>
   10978:	e9 1e fa ff ff       	jmp    1039b <__cpu_indicator_init+0x39b>
   1097d:	81 0d 7d 50 14 00 00 00 40 00 	orl    $0x400000,0x14507d(%rip)        # 155a04 <__cpu_features2+0x4>
   10987:	e9 03 fa ff ff       	jmp    1038f <__cpu_indicator_init+0x38f>
   1098c:	81 0d 6e 50 14 00 00 00 20 00 	orl    $0x200000,0x14506e(%rip)        # 155a04 <__cpu_features2+0x4>
   10996:	e9 e8 f9 ff ff       	jmp    10383 <__cpu_indicator_init+0x383>
   1099b:	83 ce 20             	or     $0x20,%esi
   1099e:	89 35 5c 50 14 00    	mov    %esi,0x14505c(%rip)        # 155a00 <__cpu_features2>
   109a4:	e9 b9 fa ff ff       	jmp    10462 <__cpu_indicator_init+0x462>
   109a9:	81 ce 00 20 00 00    	or     $0x2000,%esi
   109af:	89 35 4b 50 14 00    	mov    %esi,0x14504b(%rip)        # 155a00 <__cpu_features2>
   109b5:	e9 c5 fc ff ff       	jmp    1067f <__cpu_indicator_init+0x67f>
   109ba:	81 0d 40 50 14 00 00 00 10 00 	orl    $0x100000,0x145040(%rip)        # 155a04 <__cpu_features2+0x4>
   109c4:	e9 b7 fb ff ff       	jmp    10580 <__cpu_indicator_init+0x580>
   109c9:	81 0d 31 50 14 00 00 00 04 00 	orl    $0x40000,0x145031(%rip)        # 155a04 <__cpu_features2+0x4>
   109d3:	e9 a0 fb ff ff       	jmp    10578 <__cpu_indicator_init+0x578>
   109d8:	81 0d 26 50 14 00 00 01 00 00 	orl    $0x100,0x145026(%rip)        # 155a08 <__cpu_features2+0x8>
   109e2:	e9 b7 fa ff ff       	jmp    1049e <__cpu_indicator_init+0x49e>
   109e7:	83 0d 1a 50 14 00 40 	orl    $0x40,0x14501a(%rip)        # 155a08 <__cpu_features2+0x8>
   109ee:	e9 a2 fa ff ff       	jmp    10495 <__cpu_indicator_init+0x495>
   109f3:	81 0d 07 50 14 00 00 00 00 02 	orl    $0x2000000,0x145007(%rip)        # 155a04 <__cpu_features2+0x4>
   109fd:	e9 8b fa ff ff       	jmp    1048d <__cpu_indicator_init+0x48d>
   10a02:	81 0d f8 4f 14 00 00 00 00 40 	orl    $0x40000000,0x144ff8(%rip)        # 155a04 <__cpu_features2+0x4>
   10a0c:	e9 5d fa ff ff       	jmp    1046e <__cpu_indicator_init+0x46e>
   10a11:	81 0d ed 4f 14 00 00 00 01 00 	orl    $0x10000,0x144fed(%rip)        # 155a08 <__cpu_features2+0x8>
   10a1b:	e9 8f fa ff ff       	jmp    104af <__cpu_indicator_init+0x4af>
   10a20:	81 0d de 4f 14 00 00 02 00 00 	orl    $0x200,0x144fde(%rip)        # 155a08 <__cpu_features2+0x8>
   10a2a:	e9 77 fa ff ff       	jmp    104a6 <__cpu_indicator_init+0x4a6>
   10a2f:	83 ce 02             	or     $0x2,%esi
   10a32:	89 35 c8 4f 14 00    	mov    %esi,0x144fc8(%rip)        # 155a00 <__cpu_features2>
   10a38:	e9 28 f8 ff ff       	jmp    10265 <__cpu_indicator_init+0x265>
   10a3d:	81 0d bd 4f 14 00 00 40 00 00 	orl    $0x4000,0x144fbd(%rip)        # 155a04 <__cpu_features2+0x4>
   10a47:	e9 26 f8 ff ff       	jmp    10272 <__cpu_indicator_init+0x272>
   10a4c:	81 0d ae 4f 14 00 00 00 01 00 	orl    $0x10000,0x144fae(%rip)        # 155a04 <__cpu_features2+0x4>
   10a56:	e9 30 fc ff ff       	jmp    1068b <__cpu_indicator_init+0x68b>
   10a5b:	8b 4d d4             	mov    -0x2c(%rbp),%ecx
   10a5e:	44 09 e9             	or     %r13d,%ecx
   10a61:	81 f9 b6 00 00 00    	cmp    $0xb6,%ecx
   10a67:	0f 87 f3 06 00 00    	ja     11160 <__cpu_indicator_init+0x1160>
   10a6d:	83 f9 24             	cmp    $0x24,%ecx
   10a70:	0f 86 e8 07 00 00    	jbe    1125e <__cpu_indicator_init+0x125e>
   10a76:	83 e9 25             	sub    $0x25,%ecx
   10a79:	81 f9 91 00 00 00    	cmp    $0x91,%ecx
   10a7f:	0f 87 cf fc ff ff    	ja     10754 <__cpu_indicator_init+0x754>
   10a85:	48 8d 15 14 19 04 00 	lea    0x41914(%rip),%rdx        # 523a0 <_IO_stdin_used+0x13a0>
   10a8c:	48 63 04 8a          	movslq (%rdx,%rcx,4),%rax
   10a90:	48 01 d0             	add    %rdx,%rax
   10a93:	3e ff e0             	notrack jmp *%rax
   10a96:	8b 45 cc             	mov    -0x34(%rbp),%eax
   10a99:	8b 55 d4             	mov    -0x2c(%rbp),%edx
   10a9c:	83 e8 01             	sub    $0x1,%eax
   10a9f:	44 09 ea             	or     %r13d,%edx
   10aa2:	83 f8 0a             	cmp    $0xa,%eax
   10aa5:	0f 87 35 fd ff ff    	ja     107e0 <__cpu_indicator_init+0x7e0>
   10aab:	48 8d 0d 36 1b 04 00 	lea    0x41b36(%rip),%rcx        # 525e8 <_IO_stdin_used+0x15e8>
   10ab2:	48 63 04 81          	movslq (%rcx,%rax,4),%rax
   10ab6:	48 01 c8             	add    %rcx,%rax
   10ab9:	3e ff e0             	notrack jmp *%rax
   10abc:	8b 05 42 4f 14 00    	mov    0x144f42(%rip),%eax        # 155a04 <__cpu_features2+0x4>
   10ac2:	89 c2                	mov    %eax,%edx
   10ac4:	0d 00 00 00 18       	or     $0x18000000,%eax
   10ac9:	81 ca 00 00 00 08    	or     $0x8000000,%edx
   10acf:	80 e3 04             	and    $0x4,%bl
   10ad2:	0f 44 c2             	cmove  %edx,%eax
   10ad5:	89 c2                	mov    %eax,%edx
   10ad7:	81 ca 00 00 00 04    	or     $0x4000000,%edx
   10add:	41 81 e0 00 00 80 00 	and    $0x800000,%r8d
   10ae4:	0f 45 c2             	cmovne %edx,%eax
   10ae7:	89 05 17 4f 14 00    	mov    %eax,0x144f17(%rip)        # 155a04 <__cpu_features2+0x4>
   10aed:	e9 ba fa ff ff       	jmp    105ac <__cpu_indicator_init+0x5ac>
   10af2:	41 83 fe 07          	cmp    $0x7,%r14d
   10af6:	0f 84 a3 05 00 00    	je     1109f <__cpu_indicator_init+0x109f>
   10afc:	b8 03 00 00 00       	mov    $0x3,%eax
   10b01:	e9 c0 fb ff ff       	jmp    106c6 <__cpu_indicator_init+0x6c6>
   10b06:	c7 05 04 4f 14 00 14 00 00 00 	movl   $0x14,0x144f04(%rip)        # 155a14 <__cpu_model+0x4>
   10b10:	83 fa 77             	cmp    $0x77,%edx
   10b13:	76 0a                	jbe    10b1f <__cpu_indicator_init+0xb1f>
   10b15:	40 80 e6 20          	and    $0x20,%sil
   10b19:	0f 84 c1 fc ff ff    	je     107e0 <__cpu_indicator_init+0x7e0>
   10b1f:	c7 05 ef 4e 14 00 24 00 00 00 	movl   $0x24,0x144eef(%rip)        # 155a18 <__cpu_model+0x8>
   10b29:	e9 b2 fc ff ff       	jmp    107e0 <__cpu_indicator_init+0x7e0>
   10b2e:	c7 05 dc 4e 14 00 09 00 00 00 	movl   $0x9,0x144edc(%rip)        # 155a14 <__cpu_model+0x4>
   10b38:	e9 a3 fc ff ff       	jmp    107e0 <__cpu_indicator_init+0x7e0>
   10b3d:	c7 05 cd 4e 14 00 05 00 00 00 	movl   $0x5,0x144ecd(%rip)        # 155a14 <__cpu_model+0x4>
   10b47:	83 fa 02             	cmp    $0x2,%edx
   10b4a:	0f 84 bc 06 00 00    	je     1120c <__cpu_indicator_init+0x120c>
   10b50:	83 fa 0f             	cmp    $0xf,%edx
   10b53:	0f 87 3e 07 00 00    	ja     11297 <__cpu_indicator_init+0x1297>
   10b59:	c7 05 b5 4e 14 00 07 00 00 00 	movl   $0x7,0x144eb5(%rip)        # 155a18 <__cpu_model+0x8>
   10b63:	e9 78 fc ff ff       	jmp    107e0 <__cpu_indicator_init+0x7e0>
   10b68:	c7 05 a2 4e 14 00 08 00 00 00 	movl   $0x8,0x144ea2(%rip)        # 155a14 <__cpu_model+0x4>
   10b72:	e9 69 fc ff ff       	jmp    107e0 <__cpu_indicator_init+0x7e0>
   10b77:	c7 05 93 4e 14 00 04 00 00 00 	movl   $0x4,0x144e93(%rip)        # 155a14 <__cpu_model+0x4>
   10b81:	83 fa 04             	cmp    $0x4,%edx
   10b84:	0f 84 68 07 00 00    	je     112f2 <__cpu_indicator_init+0x12f2>
   10b8a:	83 fa 08             	cmp    $0x8,%edx
   10b8d:	0f 84 50 07 00 00    	je     112e3 <__cpu_indicator_init+0x12e3>
   10b93:	83 fa 02             	cmp    $0x2,%edx
   10b96:	0f 85 44 fc ff ff    	jne    107e0 <__cpu_indicator_init+0x7e0>
   10b9c:	c7 05 72 4e 14 00 04 00 00 00 	movl   $0x4,0x144e72(%rip)        # 155a18 <__cpu_model+0x8>
   10ba6:	e9 35 fc ff ff       	jmp    107e0 <__cpu_indicator_init+0x7e0>
   10bab:	c7 05 5f 4e 14 00 0f 00 00 00 	movl   $0xf,0x144e5f(%rip)        # 155a14 <__cpu_model+0x4>
   10bb5:	83 fa 0f             	cmp    $0xf,%edx
   10bb8:	76 32                	jbe    10bec <__cpu_indicator_init+0xbec>
   10bba:	8d 42 f0             	lea    -0x10(%rdx),%eax
   10bbd:	83 f8 0f             	cmp    $0xf,%eax
   10bc0:	0f 86 7a 06 00 00    	jbe    11240 <__cpu_indicator_init+0x1240>
   10bc6:	83 ea 60             	sub    $0x60,%edx
   10bc9:	83 fa 4f             	cmp    $0x4f,%edx
   10bcc:	0f 86 6e 06 00 00    	jbe    11240 <__cpu_indicator_init+0x1240>
   10bd2:	f6 05 44 4e 14 00 80 	testb  $0x80,0x144e44(%rip)        # 155a1d <__cpu_model+0xd>
   10bd9:	0f 85 61 06 00 00    	jne    11240 <__cpu_indicator_init+0x1240>
   10bdf:	f6 05 1f 4e 14 00 40 	testb  $0x40,0x144e1f(%rip)        # 155a05 <__cpu_features2+0x5>
   10be6:	0f 84 f4 fb ff ff    	je     107e0 <__cpu_indicator_init+0x7e0>
   10bec:	c7 05 22 4e 14 00 1a 00 00 00 	movl   $0x1a,0x144e22(%rip)        # 155a18 <__cpu_model+0x8>
   10bf6:	e9 e5 fb ff ff       	jmp    107e0 <__cpu_indicator_init+0x7e0>
   10bfb:	c7 05 0f 4e 14 00 0a 00 00 00 	movl   $0xa,0x144e0f(%rip)        # 155a14 <__cpu_model+0x4>
   10c05:	83 fa 1f             	cmp    $0x1f,%edx
   10c08:	76 21                	jbe    10c2b <__cpu_indicator_init+0xc2b>
   10c0a:	83 fa 2f             	cmp    $0x2f,%edx
   10c0d:	0f 87 3c 06 00 00    	ja     1124f <__cpu_indicator_init+0x124f>
   10c13:	f7 c6 00 10 00 00    	test   $0x1000,%esi
   10c19:	0f 85 30 06 00 00    	jne    1124f <__cpu_indicator_init+0x124f>
   10c1f:	81 e6 00 20 00 00    	and    $0x2000,%esi
   10c25:	0f 84 b5 fb ff ff    	je     107e0 <__cpu_indicator_init+0x7e0>
   10c2b:	c7 05 e3 4d 14 00 0b 00 00 00 	movl   $0xb,0x144de3(%rip)        # 155a18 <__cpu_model+0x8>
   10c35:	e9 a6 fb ff ff       	jmp    107e0 <__cpu_indicator_init+0x7e0>
   10c3a:	c7 05 d0 4d 14 00 06 00 00 00 	movl   $0x6,0x144dd0(%rip)        # 155a14 <__cpu_model+0x4>
   10c44:	e9 0b fb ff ff       	jmp    10754 <__cpu_indicator_init+0x754>
   10c49:	48 8b 05 f8 19 04 00 	mov    0x419f8(%rip),%rax        # 52648 <_IO_stdin_used+0x1648>
   10c50:	48 89 05 bd 4d 14 00 	mov    %rax,0x144dbd(%rip)        # 155a14 <__cpu_model+0x4>
   10c57:	e9 f8 fa ff ff       	jmp    10754 <__cpu_indicator_init+0x754>
   10c5c:	48 8b 05 dd 19 04 00 	mov    0x419dd(%rip),%rax        # 52640 <_IO_stdin_used+0x1640>
   10c63:	48 89 05 aa 4d 14 00 	mov    %rax,0x144daa(%rip)        # 155a14 <__cpu_model+0x4>
   10c6a:	e9 e5 fa ff ff       	jmp    10754 <__cpu_indicator_init+0x754>
   10c6f:	48 8b 05 c2 19 04 00 	mov    0x419c2(%rip),%rax        # 52638 <_IO_stdin_used+0x1638>
   10c76:	48 89 05 97 4d 14 00 	mov    %rax,0x144d97(%rip)        # 155a14 <__cpu_model+0x4>
   10c7d:	e9 d2 fa ff ff       	jmp    10754 <__cpu_indicator_init+0x754>
   10c82:	48 8b 05 ef 19 04 00 	mov    0x419ef(%rip),%rax        # 52678 <_IO_stdin_used+0x1678>
   10c89:	48 89 05 84 4d 14 00 	mov    %rax,0x144d84(%rip)        # 155a14 <__cpu_model+0x4>
   10c90:	e9 bf fa ff ff       	jmp    10754 <__cpu_indicator_init+0x754>
   10c95:	48 8b 05 84 19 04 00 	mov    0x41984(%rip),%rax        # 52620 <_IO_stdin_used+0x1620>
   10c9c:	48 89 05 71 4d 14 00 	mov    %rax,0x144d71(%rip)        # 155a14 <__cpu_model+0x4>
   10ca3:	e9 ac fa ff ff       	jmp    10754 <__cpu_indicator_init+0x754>
   10ca8:	c7 05 62 4d 14 00 0e 00 00 00 	movl   $0xe,0x144d62(%rip)        # 155a14 <__cpu_model+0x4>
   10cb2:	e9 9d fa ff ff       	jmp    10754 <__cpu_indicator_init+0x754>
   10cb7:	48 8b 05 9a 19 04 00 	mov    0x4199a(%rip),%rax        # 52658 <_IO_stdin_used+0x1658>
   10cbe:	48 89 05 4f 4d 14 00 	mov    %rax,0x144d4f(%rip)        # 155a14 <__cpu_model+0x4>
   10cc5:	e9 8a fa ff ff       	jmp    10754 <__cpu_indicator_init+0x754>
   10cca:	48 8b 05 9f 19 04 00 	mov    0x4199f(%rip),%rax        # 52670 <_IO_stdin_used+0x1670>
   10cd1:	48 89 05 3c 4d 14 00 	mov    %rax,0x144d3c(%rip)        # 155a14 <__cpu_model+0x4>
   10cd8:	e9 77 fa ff ff       	jmp    10754 <__cpu_indicator_init+0x754>
   10cdd:	48 8b 05 44 19 04 00 	mov    0x41944(%rip),%rax        # 52628 <_IO_stdin_used+0x1628>
   10ce4:	48 89 05 29 4d 14 00 	mov    %rax,0x144d29(%rip)        # 155a14 <__cpu_model+0x4>
   10ceb:	e9 64 fa ff ff       	jmp    10754 <__cpu_indicator_init+0x754>
   10cf0:	48 8b 05 39 19 04 00 	mov    0x41939(%rip),%rax        # 52630 <_IO_stdin_used+0x1630>
   10cf7:	48 89 05 16 4d 14 00 	mov    %rax,0x144d16(%rip)        # 155a14 <__cpu_model+0x4>
   10cfe:	e9 51 fa ff ff       	jmp    10754 <__cpu_indicator_init+0x754>
   10d03:	48 8b 05 56 19 04 00 	mov    0x41956(%rip),%rax        # 52660 <_IO_stdin_used+0x1660>
   10d0a:	48 89 05 03 4d 14 00 	mov    %rax,0x144d03(%rip)        # 155a14 <__cpu_model+0x4>
   10d11:	e9 3e fa ff ff       	jmp    10754 <__cpu_indicator_init+0x754>
   10d16:	c7 05 f4 4c 14 00 0c 00 00 00 	movl   $0xc,0x144cf4(%rip)        # 155a14 <__cpu_model+0x4>
   10d20:	e9 2f fa ff ff       	jmp    10754 <__cpu_indicator_init+0x754>
   10d25:	48 8b 05 24 19 04 00 	mov    0x41924(%rip),%rax        # 52650 <_IO_stdin_used+0x1650>
   10d2c:	48 89 05 e1 4c 14 00 	mov    %rax,0x144ce1(%rip)        # 155a14 <__cpu_model+0x4>
   10d33:	e9 1c fa ff ff       	jmp    10754 <__cpu_indicator_init+0x754>
   10d38:	c7 05 d2 4c 14 00 03 00 00 00 	movl   $0x3,0x144cd2(%rip)        # 155a14 <__cpu_model+0x4>
   10d42:	40 f6 c6 10          	test   $0x10,%sil
   10d46:	0f 84 fe 05 00 00    	je     1134a <__cpu_indicator_init+0x134a>
   10d4c:	c7 05 c2 4c 14 00 17 00 00 00 	movl   $0x17,0x144cc2(%rip)        # 155a18 <__cpu_model+0x8>
   10d56:	e9 f9 f9 ff ff       	jmp    10754 <__cpu_indicator_init+0x754>
   10d5b:	c7 05 af 4c 14 00 0d 00 00 00 	movl   $0xd,0x144caf(%rip)        # 155a14 <__cpu_model+0x4>
   10d65:	e9 ea f9 ff ff       	jmp    10754 <__cpu_indicator_init+0x754>
   10d6a:	c7 05 a0 4c 14 00 12 00 00 00 	movl   $0x12,0x144ca0(%rip)        # 155a14 <__cpu_model+0x4>
   10d74:	e9 db f9 ff ff       	jmp    10754 <__cpu_indicator_init+0x754>
   10d79:	83 f9 0e             	cmp    $0xe,%ecx
   10d7c:	0f 85 d2 f9 ff ff    	jne    10754 <__cpu_indicator_init+0x754>
   10d82:	48 8b 05 0f 19 04 00 	mov    0x4190f(%rip),%rax        # 52698 <_IO_stdin_used+0x1698>
   10d89:	48 89 05 84 4c 14 00 	mov    %rax,0x144c84(%rip)        # 155a14 <__cpu_model+0x4>
   10d90:	e9 bf f9 ff ff       	jmp    10754 <__cpu_indicator_init+0x754>
   10d95:	c7 05 75 4c 14 00 11 00 00 00 	movl   $0x11,0x144c75(%rip)        # 155a14 <__cpu_model+0x4>
   10d9f:	e9 b0 f9 ff ff       	jmp    10754 <__cpu_indicator_init+0x754>
   10da4:	48 8b 05 bd 18 04 00 	mov    0x418bd(%rip),%rax        # 52668 <_IO_stdin_used+0x1668>
   10dab:	48 89 05 62 4c 14 00 	mov    %rax,0x144c62(%rip)        # 155a14 <__cpu_model+0x4>
   10db2:	e9 9d f9 ff ff       	jmp    10754 <__cpu_indicator_init+0x754>
   10db7:	83 f9 1c             	cmp    $0x1c,%ecx
   10dba:	0f 85 94 f9 ff ff    	jne    10754 <__cpu_indicator_init+0x754>
   10dc0:	c7 05 4a 4c 14 00 01 00 00 00 	movl   $0x1,0x144c4a(%rip)        # 155a14 <__cpu_model+0x4>
   10dca:	e9 85 f9 ff ff       	jmp    10754 <__cpu_indicator_init+0x754>
   10dcf:	48 8b 05 ba 18 04 00 	mov    0x418ba(%rip),%rax        # 52690 <_IO_stdin_used+0x1690>
   10dd6:	48 89 05 37 4c 14 00 	mov    %rax,0x144c37(%rip)        # 155a14 <__cpu_model+0x4>
   10ddd:	e9 72 f9 ff ff       	jmp    10754 <__cpu_indicator_init+0x754>
   10de2:	48 8b 05 9f 18 04 00 	mov    0x4189f(%rip),%rax        # 52688 <_IO_stdin_used+0x1688>
   10de9:	48 89 05 24 4c 14 00 	mov    %rax,0x144c24(%rip)        # 155a14 <__cpu_model+0x4>
   10df0:	e9 5f f9 ff ff       	jmp    10754 <__cpu_indicator_init+0x754>
   10df5:	48 8b 05 84 18 04 00 	mov    0x41884(%rip),%rax        # 52680 <_IO_stdin_used+0x1680>
   10dfc:	48 89 05 11 4c 14 00 	mov    %rax,0x144c11(%rip)        # 155a14 <__cpu_model+0x4>
   10e03:	e9 4c f9 ff ff       	jmp    10754 <__cpu_indicator_init+0x754>
   10e08:	48 8b 05 09 18 04 00 	mov    0x41809(%rip),%rax        # 52618 <_IO_stdin_used+0x1618>
   10e0f:	48 89 05 fe 4b 14 00 	mov    %rax,0x144bfe(%rip)        # 155a14 <__cpu_model+0x4>
   10e16:	e9 39 f9 ff ff       	jmp    10754 <__cpu_indicator_init+0x754>
   10e1b:	89 c2                	mov    %eax,%edx
   10e1d:	45 31 c9             	xor    %r9d,%r9d
   10e20:	41 bb 01 00 00 00    	mov    $0x1,%r11d
   10e26:	f7 d2                	not    %edx
   10e28:	80 e2 e6             	and    $0xe6,%dl
   10e2b:	41 0f 94 c1          	sete   %r9b
   10e2f:	e9 ed f8 ff ff       	jmp    10721 <__cpu_indicator_init+0x721>
   10e34:	0d 00 00 06 00       	or     $0x60000,%eax
   10e39:	89 05 c9 4b 14 00    	mov    %eax,0x144bc9(%rip)        # 155a08 <__cpu_features2+0x8>
   10e3f:	e9 71 f7 ff ff       	jmp    105b5 <__cpu_indicator_init+0x5b5>
   10e44:	81 0d b6 4b 14 00 80 00 00 00 	orl    $0x80,0x144bb6(%rip)        # 155a04 <__cpu_features2+0x4>
   10e4e:	e9 f0 f3 ff ff       	jmp    10243 <__cpu_indicator_init+0x243>
   10e53:	81 ce 00 01 00 00    	or     $0x100,%esi
   10e59:	89 35 a1 4b 14 00    	mov    %esi,0x144ba1(%rip)        # 155a00 <__cpu_features2>
   10e5f:	e9 45 f4 ff ff       	jmp    102a9 <__cpu_indicator_init+0x2a9>
   10e64:	83 0d 99 4b 14 00 40 	orl    $0x40,0x144b99(%rip)        # 155a04 <__cpu_features2+0x4>
   10e6b:	e9 2c f4 ff ff       	jmp    1029c <__cpu_indicator_init+0x29c>
   10e70:	40 80 ce 80          	or     $0x80,%sil
   10e74:	89 35 86 4b 14 00    	mov    %esi,0x144b86(%rip)        # 155a00 <__cpu_features2>
   10e7a:	e9 be f7 ff ff       	jmp    1063d <__cpu_indicator_init+0x63d>
   10e7f:	81 ce 00 00 80 00    	or     $0x800000,%esi
   10e85:	89 35 75 4b 14 00    	mov    %esi,0x144b75(%rip)        # 155a00 <__cpu_features2>
   10e8b:	e9 a1 f7 ff ff       	jmp    10631 <__cpu_indicator_init+0x631>
   10e90:	81 ce 00 00 00 20    	or     $0x20000000,%esi
   10e96:	89 35 64 4b 14 00    	mov    %esi,0x144b64(%rip)        # 155a00 <__cpu_features2>
   10e9c:	e9 84 f7 ff ff       	jmp    10625 <__cpu_indicator_init+0x625>
   10ea1:	83 0d 5c 4b 14 00 04 	orl    $0x4,0x144b5c(%rip)        # 155a04 <__cpu_features2+0x4>
   10ea8:	e9 6c f7 ff ff       	jmp    10619 <__cpu_indicator_init+0x619>
   10ead:	81 ce 00 00 00 02    	or     $0x2000000,%esi
   10eb3:	89 35 47 4b 14 00    	mov    %esi,0x144b47(%rip)        # 155a00 <__cpu_features2>
   10eb9:	e9 52 f7 ff ff       	jmp    10610 <__cpu_indicator_init+0x610>
   10ebe:	81 0d 3c 4b 14 00 00 10 00 00 	orl    $0x1000,0x144b3c(%rip)        # 155a04 <__cpu_features2+0x4>
   10ec8:	e9 3b f7 ff ff       	jmp    10608 <__cpu_indicator_init+0x608>
   10ecd:	81 ce 00 00 20 00    	or     $0x200000,%esi
   10ed3:	89 35 27 4b 14 00    	mov    %esi,0x144b27(%rip)        # 155a00 <__cpu_features2>
   10ed9:	e9 8b f4 ff ff       	jmp    10369 <__cpu_indicator_init+0x369>
   10ede:	81 ce 00 00 00 80    	or     $0x80000000,%esi
   10ee4:	89 35 16 4b 14 00    	mov    %esi,0x144b16(%rip)        # 155a00 <__cpu_features2>
   10eea:	e9 6e f4 ff ff       	jmp    1035d <__cpu_indicator_init+0x35d>
   10eef:	81 0d 0b 4b 14 00 00 20 00 00 	orl    $0x2000,0x144b0b(%rip)        # 155a04 <__cpu_features2+0x4>
   10ef9:	e9 53 f4 ff ff       	jmp    10351 <__cpu_indicator_init+0x351>
   10efe:	81 0d fc 4a 14 00 00 01 00 00 	orl    $0x100,0x144afc(%rip)        # 155a04 <__cpu_features2+0x4>
   10f08:	e9 38 f4 ff ff       	jmp    10345 <__cpu_indicator_init+0x345>
   10f0d:	81 0d ed 4a 14 00 00 08 00 00 	orl    $0x800,0x144aed(%rip)        # 155a04 <__cpu_features2+0x4>
   10f17:	e9 20 f4 ff ff       	jmp    1033c <__cpu_indicator_init+0x33c>
   10f1c:	81 0d de 4a 14 00 00 80 00 00 	orl    $0x8000,0x144ade(%rip)        # 155a04 <__cpu_features2+0x4>
   10f26:	e9 07 f4 ff ff       	jmp    10332 <__cpu_indicator_init+0x332>
   10f2b:	81 ce 00 04 00 00    	or     $0x400,%esi
   10f31:	89 35 c9 4a 14 00    	mov    %esi,0x144ac9(%rip)        # 155a00 <__cpu_features2>
   10f37:	e9 ec f3 ff ff       	jmp    10328 <__cpu_indicator_init+0x328>
   10f3c:	81 ce 00 00 01 00    	or     $0x10000,%esi
   10f42:	89 35 b8 4a 14 00    	mov    %esi,0x144ab8(%rip)        # 155a00 <__cpu_features2>
   10f48:	e9 ce f3 ff ff       	jmp    1031b <__cpu_indicator_init+0x31b>
   10f4d:	81 ce 00 00 00 08    	or     $0x8000000,%esi
   10f53:	89 35 a7 4a 14 00    	mov    %esi,0x144aa7(%rip)        # 155a00 <__cpu_features2>
   10f59:	e9 b0 f3 ff ff       	jmp    1030e <__cpu_indicator_init+0x30e>
   10f5e:	81 ce 00 00 00 10    	or     $0x10000000,%esi
   10f64:	89 35 96 4a 14 00    	mov    %esi,0x144a96(%rip)        # 155a00 <__cpu_features2>
   10f6a:	e9 92 f3 ff ff       	jmp    10301 <__cpu_indicator_init+0x301>
   10f6f:	83 ce 01             	or     $0x1,%esi
   10f72:	89 35 88 4a 14 00    	mov    %esi,0x144a88(%rip)        # 155a00 <__cpu_features2>
   10f78:	e9 77 f3 ff ff       	jmp    102f4 <__cpu_indicator_init+0x2f4>
   10f7d:	83 0d 80 4a 14 00 10 	orl    $0x10,0x144a80(%rip)        # 155a04 <__cpu_features2+0x4>
   10f84:	e9 5e f3 ff ff       	jmp    102e7 <__cpu_indicator_init+0x2e7>
   10f89:	83 0d 74 4a 14 00 01 	orl    $0x1,0x144a74(%rip)        # 155a04 <__cpu_features2+0x4>
   10f90:	e9 45 f3 ff ff       	jmp    102da <__cpu_indicator_init+0x2da>
   10f95:	81 ce 00 10 00 00    	or     $0x1000,%esi
   10f9b:	89 35 5f 4a 14 00    	mov    %esi,0x144a5f(%rip)        # 155a00 <__cpu_features2>
   10fa1:	e9 2a f3 ff ff       	jmp    102d0 <__cpu_indicator_init+0x2d0>
   10fa6:	81 ce 00 08 00 00    	or     $0x800,%esi
   10fac:	89 35 4e 4a 14 00    	mov    %esi,0x144a4e(%rip)        # 155a00 <__cpu_features2>
   10fb2:	e9 0c f3 ff ff       	jmp    102c3 <__cpu_indicator_init+0x2c3>
   10fb7:	81 0d 43 4a 14 00 00 04 00 00 	orl    $0x400,0x144a43(%rip)        # 155a04 <__cpu_features2+0x4>
   10fc1:	e9 f0 f2 ff ff       	jmp    102b6 <__cpu_indicator_init+0x2b6>
   10fc6:	81 ce 00 00 04 00    	or     $0x40000,%esi
   10fcc:	89 35 2e 4a 14 00    	mov    %esi,0x144a2e(%rip)        # 155a00 <__cpu_features2>
   10fd2:	e9 b8 f2 ff ff       	jmp    1028f <__cpu_indicator_init+0x28f>
   10fd7:	81 ce 00 00 02 00    	or     $0x20000,%esi
   10fdd:	89 35 1d 4a 14 00    	mov    %esi,0x144a1d(%rip)        # 155a00 <__cpu_features2>
   10fe3:	e9 13 f2 ff ff       	jmp    101fb <__cpu_indicator_init+0x1fb>
   10fe8:	81 ce 00 00 10 00    	or     $0x100000,%esi
   10fee:	89 35 0c 4a 14 00    	mov    %esi,0x144a0c(%rip)        # 155a00 <__cpu_features2>
   10ff4:	e9 3d f2 ff ff       	jmp    10236 <__cpu_indicator_init+0x236>
   10ff9:	81 0d 01 4a 14 00 00 02 00 00 	orl    $0x200,0x144a01(%rip)        # 155a04 <__cpu_features2+0x4>
   11003:	e9 24 f2 ff ff       	jmp    1022c <__cpu_indicator_init+0x22c>
   11008:	81 0d f2 49 14 00 00 00 00 01 	orl    $0x1000000,0x1449f2(%rip)        # 155a04 <__cpu_features2+0x4>
   11012:	e9 5b f3 ff ff       	jmp    10372 <__cpu_indicator_init+0x372>
   11017:	81 ce 00 00 00 01    	or     $0x1000000,%esi
   1101d:	89 35 dd 49 14 00    	mov    %esi,0x1449dd(%rip)        # 155a00 <__cpu_features2>
   11023:	e9 d4 f5 ff ff       	jmp    105fc <__cpu_indicator_init+0x5fc>
   11028:	81 ce 00 02 00 00    	or     $0x200,%esi
   1102e:	89 35 cc 49 14 00    	mov    %esi,0x1449cc(%rip)        # 155a00 <__cpu_features2>
   11034:	e9 ba f5 ff ff       	jmp    105f3 <__cpu_indicator_init+0x5f3>
   11039:	81 ce 00 00 40 00    	or     $0x400000,%esi
   1103f:	89 35 bb 49 14 00    	mov    %esi,0x1449bb(%rip)        # 155a00 <__cpu_features2>
   11045:	e9 9e f5 ff ff       	jmp    105e8 <__cpu_indicator_init+0x5e8>
   1104a:	83 ce 40             	or     $0x40,%esi
   1104d:	89 35 ad 49 14 00    	mov    %esi,0x1449ad(%rip)        # 155a00 <__cpu_features2>
   11053:	e9 ed f5 ff ff       	jmp    10645 <__cpu_indicator_init+0x645>
   11058:	83 0d a5 49 14 00 08 	orl    $0x8,0x1449a5(%rip)        # 155a04 <__cpu_features2+0x4>
   1105f:	e9 33 f5 ff ff       	jmp    10597 <__cpu_indicator_init+0x597>
   11064:	8b 45 d4             	mov    -0x2c(%rbp),%eax
   11067:	44 09 e8             	or     %r13d,%eax
   1106a:	83 e8 01             	sub    $0x1,%eax
   1106d:	0f 85 e1 f6 ff ff    	jne    10754 <__cpu_indicator_init+0x754>
   11073:	83 7d cc 04          	cmpl   $0x4,-0x34(%rbp)
   11077:	0f 85 d7 f6 ff ff    	jne    10754 <__cpu_indicator_init+0x754>
   1107d:	48 8b 05 2c 16 04 00 	mov    0x4162c(%rip),%rax        # 526b0 <_IO_stdin_used+0x16b0>
   11084:	48 89 05 89 49 14 00 	mov    %rax,0x144989(%rip)        # 155a14 <__cpu_model+0x4>
   1108b:	e9 c4 f6 ff ff       	jmp    10754 <__cpu_indicator_init+0x754>
   11090:	81 0d 6e 49 14 00 00 00 00 02 	orl    $0x2000000,0x14496e(%rip)        # 155a08 <__cpu_features2+0x8>
   1109a:	e9 18 f4 ff ff       	jmp    104b7 <__cpu_indicator_init+0x4b7>
   1109f:	c7 05 6b 49 14 00 10 00 00 00 	movl   $0x10,0x14496b(%rip)        # 155a14 <__cpu_model+0x4>
   110a9:	8b 45 d4             	mov    -0x2c(%rbp),%eax
   110ac:	44 09 e8             	or     %r13d,%eax
   110af:	83 f8 3b             	cmp    $0x3b,%eax
   110b2:	0f 84 63 01 00 00    	je     1121b <__cpu_indicator_init+0x121b>
   110b8:	83 f8 5b             	cmp    $0x5b,%eax
   110bb:	0f 84 f1 00 00 00    	je     111b2 <__cpu_indicator_init+0x11b2>
   110c1:	83 f8 6a             	cmp    $0x6a,%eax
   110c4:	0f 86 32 fa ff ff    	jbe    10afc <__cpu_indicator_init+0xafc>
   110ca:	c7 05 44 49 14 00 25 00 00 00 	movl   $0x25,0x144944(%rip)        # 155a18 <__cpu_model+0x8>
   110d4:	e9 23 fa ff ff       	jmp    10afc <__cpu_indicator_init+0xafc>
   110d9:	81 0d 25 49 14 00 00 20 00 00 	orl    $0x2000,0x144925(%rip)        # 155a08 <__cpu_features2+0x8>
   110e3:	e9 12 f4 ff ff       	jmp    104fa <__cpu_indicator_init+0x4fa>
   110e8:	83 0d 19 49 14 00 20 	orl    $0x20,0x144919(%rip)        # 155a08 <__cpu_features2+0x8>
   110ef:	e9 ed f3 ff ff       	jmp    104e1 <__cpu_indicator_init+0x4e1>
   110f4:	83 0d 0d 49 14 00 10 	orl    $0x10,0x14490d(%rip)        # 155a08 <__cpu_features2+0x8>
   110fb:	e9 d8 f3 ff ff       	jmp    104d8 <__cpu_indicator_init+0x4d8>
   11100:	83 0d 01 49 14 00 08 	orl    $0x8,0x144901(%rip)        # 155a08 <__cpu_features2+0x8>
   11107:	e9 c3 f3 ff ff       	jmp    104cf <__cpu_indicator_init+0x4cf>
   1110c:	81 0d ee 48 14 00 00 00 00 20 	orl    $0x20000000,0x1448ee(%rip)        # 155a04 <__cpu_features2+0x4>
   11116:	e9 a9 f3 ff ff       	jmp    104c4 <__cpu_indicator_init+0x4c4>
   1111b:	81 0d e3 48 14 00 00 10 00 00 	orl    $0x1000,0x1448e3(%rip)        # 155a08 <__cpu_features2+0x8>
   11125:	e9 c8 f3 ff ff       	jmp    104f2 <__cpu_indicator_init+0x4f2>
   1112a:	81 0d d4 48 14 00 00 08 00 00 	orl    $0x800,0x1448d4(%rip)        # 155a08 <__cpu_features2+0x8>
   11134:	e9 b1 f3 ff ff       	jmp    104ea <__cpu_indicator_init+0x4ea>
   11139:	83 ce 10             	or     $0x10,%esi
   1113c:	89 35 be 48 14 00    	mov    %esi,0x1448be(%rip)        # 155a00 <__cpu_features2>
   11142:	e9 ce f3 ff ff       	jmp    10515 <__cpu_indicator_init+0x515>
   11147:	81 0d b7 48 14 00 80 00 00 00 	orl    $0x80,0x1448b7(%rip)        # 155a08 <__cpu_features2+0x8>
   11151:	e9 da f3 ff ff       	jmp    10530 <__cpu_indicator_init+0x530>
   11156:	b8 06 00 00 00       	mov    $0x6,%eax
   1115b:	e9 66 f5 ff ff       	jmp    106c6 <__cpu_indicator_init+0x6c6>
   11160:	81 f9 cc 00 00 00    	cmp    $0xcc,%ecx
   11166:	0f 84 bc 01 00 00    	je     11328 <__cpu_indicator_init+0x1328>
   1116c:	0f 87 8f 01 00 00    	ja     11301 <__cpu_indicator_init+0x1301>
   11172:	81 e9 b7 00 00 00    	sub    $0xb7,%ecx
   11178:	83 f9 0f             	cmp    $0xf,%ecx
   1117b:	0f 87 d3 f5 ff ff    	ja     10754 <__cpu_indicator_init+0x754>
   11181:	b8 01 00 00 00       	mov    $0x1,%eax
   11186:	48 d3 e0             	shl    %cl,%rax
   11189:	a9 89 01 00 00       	test   $0x189,%eax
   1118e:	0f 85 ee fa ff ff    	jne    10c82 <__cpu_indicator_init+0xc82>
   11194:	a9 40 80 00 00       	test   $0x8040,%eax
   11199:	0f 84 da fb ff ff    	je     10d79 <__cpu_indicator_init+0xd79>
   1119f:	48 8b 05 fa 14 04 00 	mov    0x414fa(%rip),%rax        # 526a0 <_IO_stdin_used+0x16a0>
   111a6:	48 89 05 67 48 14 00 	mov    %rax,0x144867(%rip)        # 155a14 <__cpu_model+0x4>
   111ad:	e9 a2 f5 ff ff       	jmp    10754 <__cpu_indicator_init+0x754>
   111b2:	c7 05 5c 48 14 00 23 00 00 00 	movl   $0x23,0x14485c(%rip)        # 155a18 <__cpu_model+0x8>
   111bc:	e9 3b f9 ff ff       	jmp    10afc <__cpu_indicator_init+0xafc>
   111c1:	81 0d 3d 48 14 00 00 00 00 04 	orl    $0x4000000,0x14483d(%rip)        # 155a08 <__cpu_features2+0x8>
   111cb:	e9 27 f7 ff ff       	jmp    108f7 <__cpu_indicator_init+0x8f7>
   111d0:	81 0d 2e 48 14 00 00 00 00 01 	orl    $0x1000000,0x14482e(%rip)        # 155a08 <__cpu_features2+0x8>
   111da:	e9 0f f7 ff ff       	jmp    108ee <__cpu_indicator_init+0x8ee>
   111df:	81 0d 1f 48 14 00 00 00 80 00 	orl    $0x800000,0x14481f(%rip)        # 155a08 <__cpu_features2+0x8>
   111e9:	e9 f8 f6 ff ff       	jmp    108e6 <__cpu_indicator_init+0x8e6>
   111ee:	81 0d 10 48 14 00 00 00 40 00 	orl    $0x400000,0x144810(%rip)        # 155a08 <__cpu_features2+0x8>
   111f8:	e9 e1 f6 ff ff       	jmp    108de <__cpu_indicator_init+0x8de>
   111fd:	81 0d 01 48 14 00 00 00 20 00 	orl    $0x200000,0x144801(%rip)        # 155a08 <__cpu_features2+0x8>
   11207:	e9 ca f6 ff ff       	jmp    108d6 <__cpu_indicator_init+0x8d6>
   1120c:	c7 05 02 48 14 00 08 00 00 00 	movl   $0x8,0x144802(%rip)        # 155a18 <__cpu_model+0x8>
   11216:	e9 c5 f5 ff ff       	jmp    107e0 <__cpu_indicator_init+0x7e0>
   1121b:	81 25 f7 47 14 00 ff fd ff ff 	andl   $0xfffffdff,0x1447f7(%rip)        # 155a1c <__cpu_model+0xc>
   11225:	81 e6 ff ff fd ff    	and    $0xfffdffff,%esi
   1122b:	89 35 cf 47 14 00    	mov    %esi,0x1447cf(%rip)        # 155a00 <__cpu_features2>
   11231:	c7 05 dd 47 14 00 1c 00 00 00 	movl   $0x1c,0x1447dd(%rip)        # 155a18 <__cpu_model+0x8>
   1123b:	e9 bc f8 ff ff       	jmp    10afc <__cpu_indicator_init+0xafc>
   11240:	c7 05 ce 47 14 00 1d 00 00 00 	movl   $0x1d,0x1447ce(%rip)        # 155a18 <__cpu_model+0x8>
   1124a:	e9 91 f5 ff ff       	jmp    107e0 <__cpu_indicator_init+0x7e0>
   1124f:	c7 05 bf 47 14 00 14 00 00 00 	movl   $0x14,0x1447bf(%rip)        # 155a18 <__cpu_model+0x8>
   11259:	e9 82 f5 ff ff       	jmp    107e0 <__cpu_indicator_init+0x7e0>
   1125e:	8d 41 f1             	lea    -0xf(%rcx),%eax
   11261:	83 f8 10             	cmp    $0x10,%eax
   11264:	0f 87 ea f4 ff ff    	ja     10754 <__cpu_indicator_init+0x754>
   1126a:	b8 01 00 00 00       	mov    $0x1,%eax
   1126f:	48 d3 e0             	shl    %cl,%rax
   11272:	a9 00 00 00 c4       	test   $0xc4000000,%eax
   11277:	0f 85 8b fb ff ff    	jne    10e08 <__cpu_indicator_init+0xe08>
   1127d:	a9 00 80 80 20       	test   $0x20808000,%eax
   11282:	0f 84 2f fb ff ff    	je     10db7 <__cpu_indicator_init+0xdb7>
   11288:	c7 05 82 47 14 00 02 00 00 00 	movl   $0x2,0x144782(%rip)        # 155a14 <__cpu_model+0x4>
   11292:	e9 bd f4 ff ff       	jmp    10754 <__cpu_indicator_init+0x754>
   11297:	83 fa 2f             	cmp    $0x2f,%edx
   1129a:	0f 86 6c ff ff ff    	jbe    1120c <__cpu_indicator_init+0x120c>
   112a0:	83 fa 4f             	cmp    $0x4f,%edx
   112a3:	0f 86 92 00 00 00    	jbe    1133b <__cpu_indicator_init+0x133b>
   112a9:	83 fa 7f             	cmp    $0x7f,%edx
   112ac:	0f 86 b1 00 00 00    	jbe    11363 <__cpu_indicator_init+0x1363>
   112b2:	8b 05 64 47 14 00    	mov    0x144764(%rip),%eax        # 155a1c <__cpu_model+0xc>
   112b8:	f6 c4 04             	test   $0x4,%ah
   112bb:	0f 85 a2 00 00 00    	jne    11363 <__cpu_indicator_init+0x1363>
   112c1:	f6 05 3e 47 14 00 08 	testb  $0x8,0x14473e(%rip)        # 155a06 <__cpu_features2+0x6>
   112c8:	75 71                	jne    1133b <__cpu_indicator_init+0x133b>
   112ca:	a9 00 00 01 00       	test   $0x10000,%eax
   112cf:	0f 85 37 ff ff ff    	jne    1120c <__cpu_indicator_init+0x120c>
   112d5:	f6 c4 20             	test   $0x20,%ah
   112d8:	0f 85 7b f8 ff ff    	jne    10b59 <__cpu_indicator_init+0xb59>
   112de:	e9 fd f4 ff ff       	jmp    107e0 <__cpu_indicator_init+0x7e0>
   112e3:	c7 05 2b 47 14 00 06 00 00 00 	movl   $0x6,0x14472b(%rip)        # 155a18 <__cpu_model+0x8>
   112ed:	e9 ee f4 ff ff       	jmp    107e0 <__cpu_indicator_init+0x7e0>
   112f2:	c7 05 1c 47 14 00 05 00 00 00 	movl   $0x5,0x14471c(%rip)        # 155a18 <__cpu_model+0x8>
   112fc:	e9 df f4 ff ff       	jmp    107e0 <__cpu_indicator_init+0x7e0>
   11301:	81 f9 cf 00 00 00    	cmp    $0xcf,%ecx
   11307:	0f 84 e8 fa ff ff    	je     10df5 <__cpu_indicator_init+0xdf5>
   1130d:	81 f9 dd 00 00 00    	cmp    $0xdd,%ecx
   11313:	0f 85 3b f4 ff ff    	jne    10754 <__cpu_indicator_init+0x754>
   11319:	c7 05 f1 46 14 00 13 00 00 00 	movl   $0x13,0x1446f1(%rip)        # 155a14 <__cpu_model+0x4>
   11323:	e9 2c f4 ff ff       	jmp    10754 <__cpu_indicator_init+0x754>
   11328:	48 8b 05 79 13 04 00 	mov    0x41379(%rip),%rax        # 526a8 <_IO_stdin_used+0x16a8>
   1132f:	48 89 05 de 46 14 00 	mov    %rax,0x1446de(%rip)        # 155a14 <__cpu_model+0x4>
   11336:	e9 19 f4 ff ff       	jmp    10754 <__cpu_indicator_init+0x754>
   1133b:	c7 05 d3 46 14 00 09 00 00 00 	movl   $0x9,0x1446d3(%rip)        # 155a18 <__cpu_model+0x8>
   11345:	e9 96 f4 ff ff       	jmp    107e0 <__cpu_indicator_init+0x7e0>
   1134a:	83 e6 04             	and    $0x4,%esi
   1134d:	83 fe 01             	cmp    $0x1,%esi
   11350:	19 c0                	sbb    %eax,%eax
   11352:	83 e0 fb             	and    $0xfffffffb,%eax
   11355:	83 c0 15             	add    $0x15,%eax
   11358:	89 05 ba 46 14 00    	mov    %eax,0x1446ba(%rip)        # 155a18 <__cpu_model+0x8>
   1135e:	e9 f1 f3 ff ff       	jmp    10754 <__cpu_indicator_init+0x754>
   11363:	c7 05 ab 46 14 00 0a 00 00 00 	movl   $0xa,0x1446ab(%rip)        # 155a18 <__cpu_model+0x8>
   1136d:	e9 6e f4 ff ff       	jmp    107e0 <__cpu_indicator_init+0x7e0>
   11372:	66 2e 0f 1f 84 00 00 00 00 00 	cs nopw 0x0(%rax,%rax,1)
   1137c:	0f 1f 40 00          	nopl   0x0(%rax)

0000000000011380 <_start>:
   11380:	f3 0f 1e fa          	endbr64
   11384:	31 ed                	xor    %ebp,%ebp
   11386:	49 89 d1             	mov    %rdx,%r9
   11389:	5e                   	pop    %rsi
   1138a:	48 89 e2             	mov    %rsp,%rdx
   1138d:	48 83 e4 f0          	and    $0xfffffffffffffff0,%rsp
   11391:	50                   	push   %rax
   11392:	54                   	push   %rsp
   11393:	45 31 c0             	xor    %r8d,%r8d
   11396:	31 c9                	xor    %ecx,%ecx
   11398:	48 8d 3d 61 11 01 00 	lea    0x11161(%rip),%rdi        # 22500 <__wrap_main>
   1139f:	ff 15 1b 2c 04 00    	call   *0x42c1b(%rip)        # 53fc0 <__libc_start_main@GLIBC_2.34>
   113a5:	f4                   	hlt
   113a6:	66 2e 0f 1f 84 00 00 00 00 00 	cs nopw 0x0(%rax,%rax,1)
   113b0:	48 8d 3d 99 2d 04 00 	lea    0x42d99(%rip),%rdi        # 54150 <__TMC_END__>
   113b7:	48 8d 05 92 2d 04 00 	lea    0x42d92(%rip),%rax        # 54150 <__TMC_END__>
   113be:	48 39 f8             	cmp    %rdi,%rax
   113c1:	74 15                	je     113d8 <_start+0x58>
   113c3:	48 8b 05 fe 2b 04 00 	mov    0x42bfe(%rip),%rax        # 53fc8 <_ITM_deregisterTMCloneTable@Base>
   113ca:	48 85 c0             	test   %rax,%rax
   113cd:	74 09                	je     113d8 <_start+0x58>
   113cf:	ff e0                	jmp    *%rax
   113d1:	0f 1f 80 00 00 00 00 	nopl   0x0(%rax)
   113d8:	c3                   	ret
   113d9:	0f 1f 80 00 00 00 00 	nopl   0x0(%rax)
   113e0:	48 8d 3d 69 2d 04 00 	lea    0x42d69(%rip),%rdi        # 54150 <__TMC_END__>
   113e7:	48 8d 35 62 2d 04 00 	lea    0x42d62(%rip),%rsi        # 54150 <__TMC_END__>
   113ee:	48 29 fe             	sub    %rdi,%rsi
   113f1:	48 89 f0             	mov    %rsi,%rax
   113f4:	48 c1 ee 3f          	shr    $0x3f,%rsi
   113f8:	48 c1 f8 03          	sar    $0x3,%rax
   113fc:	48 01 c6             	add    %rax,%rsi
   113ff:	48 d1 fe             	sar    $1,%rsi
   11402:	74 14                	je     11418 <_start+0x98>
   11404:	48 8b 05 cd 2b 04 00 	mov    0x42bcd(%rip),%rax        # 53fd8 <_ITM_registerTMCloneTable@Base>
   1140b:	48 85 c0             	test   %rax,%rax
   1140e:	74 08                	je     11418 <_start+0x98>
   11410:	ff e0                	jmp    *%rax
   11412:	66 0f 1f 44 00 00    	nopw   0x0(%rax,%rax,1)
   11418:	c3                   	ret
   11419:	0f 1f 80 00 00 00 00 	nopl   0x0(%rax)
   11420:	f3 0f 1e fa          	endbr64
   11424:	80 3d 5d 2d 04 00 00 	cmpb   $0x0,0x42d5d(%rip)        # 54188 <stderr@GLIBC_2.2.5+0x8>
   1142b:	75 33                	jne    11460 <_start+0xe0>
   1142d:	55                   	push   %rbp
   1142e:	48 83 3d aa 2b 04 00 00 	cmpq   $0x0,0x42baa(%rip)        # 53fe0 <__cxa_finalize@GLIBC_2.2.5>
   11436:	48 89 e5             	mov    %rsp,%rbp
   11439:	74 0d                	je     11448 <_start+0xc8>
   1143b:	48 8b 3d ee 2c 04 00 	mov    0x42cee(%rip),%rdi        # 54130 <__dso_handle>
   11442:	ff 15 98 2b 04 00    	call   *0x42b98(%rip)        # 53fe0 <__cxa_finalize@GLIBC_2.2.5>
   11448:	e8 63 ff ff ff       	call   113b0 <_start+0x30>
   1144d:	c6 05 34 2d 04 00 01 	movb   $0x1,0x42d34(%rip)        # 54188 <stderr@GLIBC_2.2.5+0x8>
   11454:	5d                   	pop    %rbp
   11455:	c3                   	ret
   11456:	66 2e 0f 1f 84 00 00 00 00 00 	cs nopw 0x0(%rax,%rax,1)
   11460:	c3                   	ret
   11461:	0f 1f 40 00          	nopl   0x0(%rax)
   11465:	66 66 2e 0f 1f 84 00 00 00 00 00 	data16 cs nopw 0x0(%rax,%rax,1)
   11470:	f3 0f 1e fa          	endbr64
   11474:	e9 67 ff ff ff       	jmp    113e0 <_start+0x60>

0000000000011479 <tls_setup>:
   11479:	55                   	push   %rbp
   1147a:	48 89 e5             	mov    %rsp,%rbp
   1147d:	48 83 ec 10          	sub    $0x10,%rsp
   11481:	41 b9 00 00 00 00    	mov    $0x0,%r9d
   11487:	41 b8 00 00 00 00    	mov    $0x0,%r8d
   1148d:	b9 22 00 00 00       	mov    $0x22,%ecx
   11492:	ba 03 00 00 00       	mov    $0x3,%edx
   11497:	be 40 00 00 00       	mov    $0x40,%esi
   1149c:	bf 00 00 00 00       	mov    $0x0,%edi
   114a1:	e8 1a fc fe ff       	call   10c0 <mmap@plt>
   114a6:	48 89 45 f8          	mov    %rax,-0x8(%rbp)
   114aa:	48 8b 45 f8          	mov    -0x8(%rbp),%rax
   114ae:	48 8b 55 f8          	mov    -0x8(%rbp),%rdx
   114b2:	48 89 10             	mov    %rdx,(%rax)
   114b5:	eb 0f                	jmp    114c6 <tls_setup+0x4d>
   114b7:	fa                   	cli
   114b8:	90                   	nop
   114b9:	90                   	nop
   114ba:	90                   	nop
   114bb:	90                   	nop
   114bc:	fa                   	cli
   114bd:	90                   	nop
   114be:	90                   	nop
   114bf:	90                   	nop
   114c0:	90                   	nop
   114c1:	fa                   	cli
   114c2:	90                   	nop
   114c3:	90                   	nop
   114c4:	90                   	nop
   114c5:	90                   	nop
   114c6:	48 8b 45 f8          	mov    -0x8(%rbp),%rax
   114ca:	48 89 c6             	mov    %rax,%rsi
   114cd:	bf 01 10 00 00       	mov    $0x1001,%edi
   114d2:	e8 49 fc fe ff       	call   1120 <arch_prctl@plt>
   114d7:	85 c0                	test   %eax,%eax
   114d9:	74 07                	je     114e2 <tls_setup+0x69>
   114db:	b8 00 00 00 00       	mov    $0x0,%eax
   114e0:	eb 04                	jmp    114e6 <tls_setup+0x6d>
   114e2:	48 8b 45 f8          	mov    -0x8(%rbp),%rax
   114e6:	c9                   	leave
   114e7:	c3                   	ret

00000000000114e8 <init_area>:
   114e8:	55                   	push   %rbp
   114e9:	48 89 e5             	mov    %rsp,%rbp
   114ec:	48 89 7d e8          	mov    %rdi,-0x18(%rbp)
   114f0:	48 89 75 e0          	mov    %rsi,-0x20(%rbp)
   114f4:	eb 0f                	jmp    11505 <init_area+0x1d>
   114f6:	fa                   	cli
   114f7:	90                   	nop
   114f8:	90                   	nop
   114f9:	90                   	nop
   114fa:	90                   	nop
   114fb:	fa                   	cli
   114fc:	90                   	nop
   114fd:	90                   	nop
   114fe:	90                   	nop
   114ff:	90                   	nop
   11500:	fa                   	cli
   11501:	90                   	nop
   11502:	90                   	nop
   11503:	90                   	nop
   11504:	90                   	nop
   11505:	c7 45 fc 00 00 00 00 	movl   $0x0,-0x4(%rbp)
   1150c:	eb 18                	jmp    11526 <init_area+0x3e>
   1150e:	8b 45 fc             	mov    -0x4(%rbp),%eax
   11511:	48 63 d0             	movslq %eax,%rdx
   11514:	48 8b 45 e8          	mov    -0x18(%rbp),%rax
   11518:	48 01 c2             	add    %rax,%rdx
   1151b:	48 8b 45 e0          	mov    -0x20(%rbp),%rax
   1151f:	48 89 02             	mov    %rax,(%rdx)
   11522:	83 45 fc 01          	addl   $0x1,-0x4(%rbp)
   11526:	8b 45 fc             	mov    -0x4(%rbp),%eax
   11529:	3d f7 ff 3f 00       	cmp    $0x3ffff7,%eax
   1152e:	76 de                	jbe    1150e <init_area+0x26>
   11530:	90                   	nop
   11531:	90                   	nop
   11532:	5d                   	pop    %rbp
   11533:	c3                   	ret

0000000000011534 <test_checkpoint>:
   11534:	55                   	push   %rbp
   11535:	48 89 e5             	mov    %rsp,%rbp
   11538:	48 83 ec 50          	sub    $0x50,%rsp
   1153c:	48 89 7d c8          	mov    %rdi,-0x38(%rbp)
   11540:	48 89 75 c0          	mov    %rsi,-0x40(%rbp)
   11544:	89 55 bc             	mov    %edx,-0x44(%rbp)
   11547:	89 4d b8             	mov    %ecx,-0x48(%rbp)
   1154a:	e8 31 fb fe ff       	call   1080 <clock@plt>
   1154f:	48 89 45 e0          	mov    %rax,-0x20(%rbp)
   11553:	eb 0f                	jmp    11564 <test_checkpoint+0x30>
   11555:	fa                   	cli
   11556:	90                   	nop
   11557:	90                   	nop
   11558:	90                   	nop
   11559:	90                   	nop
   1155a:	fa                   	cli
   1155b:	90                   	nop
   1155c:	90                   	nop
   1155d:	90                   	nop
   1155e:	90                   	nop
   1155f:	fa                   	cli
   11560:	90                   	nop
   11561:	90                   	nop
   11562:	90                   	nop
   11563:	90                   	nop
   11564:	c7 45 d4 00 00 00 00 	movl   $0x0,-0x2c(%rbp)
   1156b:	eb 45                	jmp    115b2 <test_checkpoint+0x7e>
   1156d:	8b 45 d4             	mov    -0x2c(%rbp),%eax
   11570:	48 63 c8             	movslq %eax,%rcx
   11573:	48 ba 2b 00 88 01 00 0e 00 80 	movabs $0x80000e000188002b,%rdx
   1157d:	48 89 c8             	mov    %rcx,%rax
   11580:	48 f7 e2             	mul    %rdx
   11583:	48 89 d0             	mov    %rdx,%rax
   11586:	48 c1 e8 15          	shr    $0x15,%rax
   1158a:	48 69 d0 f9 ff 3f 00 	imul   $0x3ffff9,%rax,%rdx
   11591:	48 89 c8             	mov    %rcx,%rax
   11594:	48 29 d0             	sub    %rdx,%rax
   11597:	89 45 dc             	mov    %eax,-0x24(%rbp)
   1159a:	8b 45 dc             	mov    -0x24(%rbp),%eax
   1159d:	48 63 d0             	movslq %eax,%rdx
   115a0:	48 8b 45 c8          	mov    -0x38(%rbp),%rax
   115a4:	48 01 c2             	add    %rax,%rdx
   115a7:	48 8b 45 c0          	mov    -0x40(%rbp),%rax
   115ab:	48 89 02             	mov    %rax,(%rdx)
   115ae:	83 45 d4 01          	addl   $0x1,-0x2c(%rbp)
   115b2:	8b 45 d4             	mov    -0x2c(%rbp),%eax
   115b5:	3b 45 bc             	cmp    -0x44(%rbp),%eax
   115b8:	7c b3                	jl     1156d <test_checkpoint+0x39>
   115ba:	e8 c1 fa fe ff       	call   1080 <clock@plt>
   115bf:	48 89 45 e8          	mov    %rax,-0x18(%rbp)
   115c3:	48 8b 45 e8          	mov    -0x18(%rbp),%rax
   115c7:	48 2b 45 e0          	sub    -0x20(%rbp),%rax
   115cb:	66 0f ef c0          	pxor   %xmm0,%xmm0
   115cf:	f2 48 0f 2a c0       	cvtsi2sd %rax,%xmm0
   115d4:	f2 0f 10 0d 54 fd 03 00 	movsd  0x3fd54(%rip),%xmm1        # 51330 <_IO_stdin_used+0x330>
   115dc:	f2 0f 5e c1          	divsd  %xmm1,%xmm0
   115e0:	f2 0f 11 45 f0       	movsd  %xmm0,-0x10(%rbp)
   115e5:	eb 0f                	jmp    115f6 <test_checkpoint+0xc2>
   115e7:	fa                   	cli
   115e8:	90                   	nop
   115e9:	90                   	nop
   115ea:	90                   	nop
   115eb:	90                   	nop
   115ec:	fa                   	cli
   115ed:	90                   	nop
   115ee:	90                   	nop
   115ef:	90                   	nop
   115f0:	90                   	nop
   115f1:	fa                   	cli
   115f2:	90                   	nop
   115f3:	90                   	nop
   115f4:	90                   	nop
   115f5:	90                   	nop
   115f6:	48 8b 55 f0          	mov    -0x10(%rbp),%rdx
   115fa:	8b 45 bc             	mov    -0x44(%rbp),%eax
   115fd:	48 8d 0d 04 fa 03 00 	lea    0x3fa04(%rip),%rcx        # 51008 <_IO_stdin_used+0x8>
   11604:	66 48 0f 6e c2       	movq   %rdx,%xmm0
   11609:	89 c6                	mov    %eax,%esi
   1160b:	48 89 cf             	mov    %rcx,%rdi
   1160e:	b8 01 00 00 00       	mov    $0x1,%eax
   11613:	e8 d8 fa fe ff       	call   10f0 <printf@plt>
   11618:	e8 63 fa fe ff       	call   1080 <clock@plt>
   1161d:	48 89 45 e0          	mov    %rax,-0x20(%rbp)
   11621:	eb 0f                	jmp    11632 <test_checkpoint+0xfe>
   11623:	fa                   	cli
   11624:	90                   	nop
   11625:	90                   	nop
   11626:	90                   	nop
   11627:	90                   	nop
   11628:	fa                   	cli
   11629:	90                   	nop
   1162a:	90                   	nop
   1162b:	90                   	nop
   1162c:	90                   	nop
   1162d:	fa                   	cli
   1162e:	90                   	nop
   1162f:	90                   	nop
   11630:	90                   	nop
   11631:	90                   	nop
   11632:	c7 45 d8 00 00 00 00 	movl   $0x0,-0x28(%rbp)
   11639:	eb 45                	jmp    11680 <test_checkpoint+0x14c>
   1163b:	8b 45 d8             	mov    -0x28(%rbp),%eax
   1163e:	48 63 c8             	movslq %eax,%rcx
   11641:	48 ba 2b 00 88 01 00 0e 00 80 	movabs $0x80000e000188002b,%rdx
   1164b:	48 89 c8             	mov    %rcx,%rax
   1164e:	48 f7 e2             	mul    %rdx
   11651:	48 89 d0             	mov    %rdx,%rax
   11654:	48 c1 e8 15          	shr    $0x15,%rax
   11658:	48 69 d0 f9 ff 3f 00 	imul   $0x3ffff9,%rax,%rdx
   1165f:	48 89 c8             	mov    %rcx,%rax
   11662:	48 29 d0             	sub    %rdx,%rax
   11665:	89 45 dc             	mov    %eax,-0x24(%rbp)
   11668:	8b 45 dc             	mov    -0x24(%rbp),%eax
   1166b:	48 63 d0             	movslq %eax,%rdx
   1166e:	48 8b 45 c8          	mov    -0x38(%rbp),%rax
   11672:	48 01 d0             	add    %rdx,%rax
   11675:	48 8b 00             	mov    (%rax),%rax
   11678:	48 89 45 f8          	mov    %rax,-0x8(%rbp)
   1167c:	83 45 d8 01          	addl   $0x1,-0x28(%rbp)
   11680:	8b 45 d8             	mov    -0x28(%rbp),%eax
   11683:	3b 45 b8             	cmp    -0x48(%rbp),%eax
   11686:	7c b3                	jl     1163b <test_checkpoint+0x107>
   11688:	e8 f3 f9 fe ff       	call   1080 <clock@plt>
   1168d:	48 89 45 e8          	mov    %rax,-0x18(%rbp)
   11691:	48 8b 45 e8          	mov    -0x18(%rbp),%rax
   11695:	48 2b 45 e0          	sub    -0x20(%rbp),%rax
   11699:	66 0f ef c0          	pxor   %xmm0,%xmm0
   1169d:	f2 48 0f 2a c0       	cvtsi2sd %rax,%xmm0
   116a2:	f2 0f 10 0d 86 fc 03 00 	movsd  0x3fc86(%rip),%xmm1        # 51330 <_IO_stdin_used+0x330>
   116aa:	f2 0f 5e c1          	divsd  %xmm1,%xmm0
   116ae:	f2 0f 11 45 f0       	movsd  %xmm0,-0x10(%rbp)
   116b3:	eb 0f                	jmp    116c4 <test_checkpoint+0x190>
   116b5:	fa                   	cli
   116b6:	90                   	nop
   116b7:	90                   	nop
   116b8:	90                   	nop
   116b9:	90                   	nop
   116ba:	fa                   	cli
   116bb:	90                   	nop
   116bc:	90                   	nop
   116bd:	90                   	nop
   116be:	90                   	nop
   116bf:	fa                   	cli
   116c0:	90                   	nop
   116c1:	90                   	nop
   116c2:	90                   	nop
   116c3:	90                   	nop
   116c4:	48 8b 55 f0          	mov    -0x10(%rbp),%rdx
   116c8:	8b 45 b8             	mov    -0x48(%rbp),%eax
   116cb:	48 8d 0d 55 f9 03 00 	lea    0x3f955(%rip),%rcx        # 51027 <_IO_stdin_used+0x27>
   116d2:	66 48 0f 6e c2       	movq   %rdx,%xmm0
   116d7:	89 c6                	mov    %eax,%esi
   116d9:	48 89 cf             	mov    %rcx,%rdi
   116dc:	b8 01 00 00 00       	mov    $0x1,%eax
   116e1:	e8 0a fa fe ff       	call   10f0 <printf@plt>
   116e6:	90                   	nop
   116e7:	c9                   	leave
   116e8:	c3                   	ret

00000000000116e9 <test_no_checkpoint>:
   116e9:	55                   	push   %rbp
   116ea:	48 89 e5             	mov    %rsp,%rbp
   116ed:	48 83 ec 50          	sub    $0x50,%rsp
   116f1:	48 89 7d c8          	mov    %rdi,-0x38(%rbp)
   116f5:	48 89 75 c0          	mov    %rsi,-0x40(%rbp)
   116f9:	89 55 bc             	mov    %edx,-0x44(%rbp)
   116fc:	89 4d b8             	mov    %ecx,-0x48(%rbp)
   116ff:	e8 7c f9 fe ff       	call   1080 <clock@plt>
   11704:	48 89 45 e0          	mov    %rax,-0x20(%rbp)
   11708:	eb 0f                	jmp    11719 <test_no_checkpoint+0x30>
   1170a:	fa                   	cli
   1170b:	90                   	nop
   1170c:	90                   	nop
   1170d:	90                   	nop
   1170e:	90                   	nop
   1170f:	fa                   	cli
   11710:	90                   	nop
   11711:	90                   	nop
   11712:	90                   	nop
   11713:	90                   	nop
   11714:	fa                   	cli
   11715:	90                   	nop
   11716:	90                   	nop
   11717:	90                   	nop
   11718:	90                   	nop
   11719:	c7 45 d4 00 00 00 00 	movl   $0x0,-0x2c(%rbp)
   11720:	eb 45                	jmp    11767 <test_no_checkpoint+0x7e>
   11722:	8b 45 d4             	mov    -0x2c(%rbp),%eax
   11725:	48 63 c8             	movslq %eax,%rcx
   11728:	48 ba 2b 00 88 01 00 0e 00 80 	movabs $0x80000e000188002b,%rdx
   11732:	48 89 c8             	mov    %rcx,%rax
   11735:	48 f7 e2             	mul    %rdx
   11738:	48 89 d0             	mov    %rdx,%rax
   1173b:	48 c1 e8 15          	shr    $0x15,%rax
   1173f:	48 69 d0 f9 ff 3f 00 	imul   $0x3ffff9,%rax,%rdx
   11746:	48 89 c8             	mov    %rcx,%rax
   11749:	48 29 d0             	sub    %rdx,%rax
   1174c:	89 45 dc             	mov    %eax,-0x24(%rbp)
   1174f:	8b 45 dc             	mov    -0x24(%rbp),%eax
   11752:	48 63 d0             	movslq %eax,%rdx
   11755:	48 8b 45 c8          	mov    -0x38(%rbp),%rax
   11759:	48 01 c2             	add    %rax,%rdx
   1175c:	48 8b 45 c0          	mov    -0x40(%rbp),%rax
   11760:	48 89 02             	mov    %rax,(%rdx)
   11763:	83 45 d4 01          	addl   $0x1,-0x2c(%rbp)
   11767:	8b 45 d4             	mov    -0x2c(%rbp),%eax
   1176a:	3b 45 bc             	cmp    -0x44(%rbp),%eax
   1176d:	7c b3                	jl     11722 <test_no_checkpoint+0x39>
   1176f:	e8 0c f9 fe ff       	call   1080 <clock@plt>
   11774:	48 89 45 e8          	mov    %rax,-0x18(%rbp)
   11778:	48 8b 45 e8          	mov    -0x18(%rbp),%rax
   1177c:	48 2b 45 e0          	sub    -0x20(%rbp),%rax
   11780:	66 0f ef c0          	pxor   %xmm0,%xmm0
   11784:	f2 48 0f 2a c0       	cvtsi2sd %rax,%xmm0
   11789:	f2 0f 10 0d 9f fb 03 00 	movsd  0x3fb9f(%rip),%xmm1        # 51330 <_IO_stdin_used+0x330>
   11791:	f2 0f 5e c1          	divsd  %xmm1,%xmm0
   11795:	f2 0f 11 45 f0       	movsd  %xmm0,-0x10(%rbp)
   1179a:	eb 0f                	jmp    117ab <test_no_checkpoint+0xc2>
   1179c:	fa                   	cli
   1179d:	90                   	nop
   1179e:	90                   	nop
   1179f:	90                   	nop
   117a0:	90                   	nop
   117a1:	fa                   	cli
   117a2:	90                   	nop
   117a3:	90                   	nop
   117a4:	90                   	nop
   117a5:	90                   	nop
   117a6:	fa                   	cli
   117a7:	90                   	nop
   117a8:	90                   	nop
   117a9:	90                   	nop
   117aa:	90                   	nop
   117ab:	48 8b 55 f0          	mov    -0x10(%rbp),%rdx
   117af:	8b 45 bc             	mov    -0x44(%rbp),%eax
   117b2:	48 8d 0d 4f f8 03 00 	lea    0x3f84f(%rip),%rcx        # 51008 <_IO_stdin_used+0x8>
   117b9:	66 48 0f 6e c2       	movq   %rdx,%xmm0
   117be:	89 c6                	mov    %eax,%esi
   117c0:	48 89 cf             	mov    %rcx,%rdi
   117c3:	b8 01 00 00 00       	mov    $0x1,%eax
   117c8:	e8 23 f9 fe ff       	call   10f0 <printf@plt>
   117cd:	e8 ae f8 fe ff       	call   1080 <clock@plt>
   117d2:	48 89 45 e0          	mov    %rax,-0x20(%rbp)
   117d6:	eb 0f                	jmp    117e7 <test_no_checkpoint+0xfe>
   117d8:	fa                   	cli
   117d9:	90                   	nop
   117da:	90                   	nop
   117db:	90                   	nop
   117dc:	90                   	nop
   117dd:	fa                   	cli
   117de:	90                   	nop
   117df:	90                   	nop
   117e0:	90                   	nop
   117e1:	90                   	nop
   117e2:	fa                   	cli
   117e3:	90                   	nop
   117e4:	90                   	nop
   117e5:	90                   	nop
   117e6:	90                   	nop
   117e7:	c7 45 d8 00 00 00 00 	movl   $0x0,-0x28(%rbp)
   117ee:	eb 45                	jmp    11835 <test_no_checkpoint+0x14c>
   117f0:	8b 45 d8             	mov    -0x28(%rbp),%eax
   117f3:	48 63 c8             	movslq %eax,%rcx
   117f6:	48 ba 2b 00 88 01 00 0e 00 80 	movabs $0x80000e000188002b,%rdx
   11800:	48 89 c8             	mov    %rcx,%rax
   11803:	48 f7 e2             	mul    %rdx
   11806:	48 89 d0             	mov    %rdx,%rax
   11809:	48 c1 e8 15          	shr    $0x15,%rax
   1180d:	48 69 d0 f9 ff 3f 00 	imul   $0x3ffff9,%rax,%rdx
   11814:	48 89 c8             	mov    %rcx,%rax
   11817:	48 29 d0             	sub    %rdx,%rax
   1181a:	89 45 dc             	mov    %eax,-0x24(%rbp)
   1181d:	8b 45 dc             	mov    -0x24(%rbp),%eax
   11820:	48 63 d0             	movslq %eax,%rdx
   11823:	48 8b 45 c8          	mov    -0x38(%rbp),%rax
   11827:	48 01 d0             	add    %rdx,%rax
   1182a:	48 8b 00             	mov    (%rax),%rax
   1182d:	48 89 45 f8          	mov    %rax,-0x8(%rbp)
   11831:	83 45 d8 01          	addl   $0x1,-0x28(%rbp)
   11835:	8b 45 d8             	mov    -0x28(%rbp),%eax
   11838:	3b 45 b8             	cmp    -0x48(%rbp),%eax
   1183b:	7c b3                	jl     117f0 <test_no_checkpoint+0x107>
   1183d:	e8 3e f8 fe ff       	call   1080 <clock@plt>
   11842:	48 89 45 e8          	mov    %rax,-0x18(%rbp)
   11846:	48 8b 45 e8          	mov    -0x18(%rbp),%rax
   1184a:	48 2b 45 e0          	sub    -0x20(%rbp),%rax
   1184e:	66 0f ef c0          	pxor   %xmm0,%xmm0
   11852:	f2 48 0f 2a c0       	cvtsi2sd %rax,%xmm0
   11857:	f2 0f 10 0d d1 fa 03 00 	movsd  0x3fad1(%rip),%xmm1        # 51330 <_IO_stdin_used+0x330>
   1185f:	f2 0f 5e c1          	divsd  %xmm1,%xmm0
   11863:	f2 0f 11 45 f0       	movsd  %xmm0,-0x10(%rbp)
   11868:	eb 0f                	jmp    11879 <test_no_checkpoint+0x190>
   1186a:	fa                   	cli
   1186b:	90                   	nop
   1186c:	90                   	nop
   1186d:	90                   	nop
   1186e:	90                   	nop
   1186f:	fa                   	cli
   11870:	90                   	nop
   11871:	90                   	nop
   11872:	90                   	nop
   11873:	90                   	nop
   11874:	fa                   	cli
   11875:	90                   	nop
   11876:	90                   	nop
   11877:	90                   	nop
   11878:	90                   	nop
   11879:	48 8b 55 f0          	mov    -0x10(%rbp),%rdx
   1187d:	8b 45 b8             	mov    -0x48(%rbp),%eax
   11880:	48 8d 0d a0 f7 03 00 	lea    0x3f7a0(%rip),%rcx        # 51027 <_IO_stdin_used+0x27>
   11887:	66 48 0f 6e c2       	movq   %rdx,%xmm0
   1188c:	89 c6                	mov    %eax,%esi
   1188e:	48 89 cf             	mov    %rcx,%rdi
   11891:	b8 01 00 00 00       	mov    $0x1,%eax
   11896:	e8 55 f8 fe ff       	call   10f0 <printf@plt>
   1189b:	90                   	nop
   1189c:	c9                   	leave
   1189d:	c3                   	ret

000000000001189e <verify_checkpoint>:
   1189e:	55                   	push   %rbp
   1189f:	48 89 e5             	mov    %rsp,%rbp
   118a2:	48 83 ec 40          	sub    $0x40,%rsp
   118a6:	48 89 7d c8          	mov    %rdi,-0x38(%rbp)
   118aa:	48 89 75 c0          	mov    %rsi,-0x40(%rbp)
   118ae:	48 8b 45 c8          	mov    -0x38(%rbp),%rax
   118b2:	48 05 00 00 80 00    	add    $0x800000,%rax
   118b8:	48 89 45 e8          	mov    %rax,-0x18(%rbp)
   118bc:	48 8b 45 c8          	mov    -0x38(%rbp),%rax
   118c0:	48 05 00 00 40 00    	add    $0x400000,%rax
   118c6:	48 89 45 f0          	mov    %rax,-0x10(%rbp)
   118ca:	48 8b 45 c0          	mov    -0x40(%rbp),%rax
   118ce:	48 89 45 f8          	mov    %rax,-0x8(%rbp)
   118d2:	eb 0f                	jmp    118e3 <verify_checkpoint+0x45>
   118d4:	fa                   	cli
   118d5:	90                   	nop
   118d6:	90                   	nop
   118d7:	90                   	nop
   118d8:	90                   	nop
   118d9:	fa                   	cli
   118da:	90                   	nop
   118db:	90                   	nop
   118dc:	90                   	nop
   118dd:	90                   	nop
   118de:	fa                   	cli
   118df:	90                   	nop
   118e0:	90                   	nop
   118e1:	90                   	nop
   118e2:	90                   	nop
   118e3:	eb 0f                	jmp    118f4 <verify_checkpoint+0x56>
   118e5:	fa                   	cli
   118e6:	90                   	nop
   118e7:	90                   	nop
   118e8:	90                   	nop
   118e9:	90                   	nop
   118ea:	fa                   	cli
   118eb:	90                   	nop
   118ec:	90                   	nop
   118ed:	90                   	nop
   118ee:	90                   	nop
   118ef:	fa                   	cli
   118f0:	90                   	nop
   118f1:	90                   	nop
   118f2:	90                   	nop
   118f3:	90                   	nop
   118f4:	c7 45 d8 00 00 00 00 	movl   $0x0,-0x28(%rbp)
   118fb:	e9 8f 01 00 00       	jmp    11a8f <verify_checkpoint+0x1f1>
   11900:	eb 0f                	jmp    11911 <verify_checkpoint+0x73>
   11902:	fa                   	cli
   11903:	90                   	nop
   11904:	90                   	nop
   11905:	90                   	nop
   11906:	90                   	nop
   11907:	fa                   	cli
   11908:	90                   	nop
   11909:	90                   	nop
   1190a:	90                   	nop
   1190b:	90                   	nop
   1190c:	fa                   	cli
   1190d:	90                   	nop
   1190e:	90                   	nop
   1190f:	90                   	nop
   11910:	90                   	nop
   11911:	8b 45 d8             	mov    -0x28(%rbp),%eax
   11914:	48 63 d0             	movslq %eax,%rdx
   11917:	48 8b 45 e8          	mov    -0x18(%rbp),%rax
   1191b:	48 01 d0             	add    %rdx,%rax
   1191e:	48 8b 00             	mov    (%rax),%rax
   11921:	48 85 c0             	test   %rax,%rax
   11924:	0f 84 60 01 00 00    	je     11a8a <verify_checkpoint+0x1ec>
   1192a:	eb 0f                	jmp    1193b <verify_checkpoint+0x9d>
   1192c:	fa                   	cli
   1192d:	90                   	nop
   1192e:	90                   	nop
   1192f:	90                   	nop
   11930:	90                   	nop
   11931:	fa                   	cli
   11932:	90                   	nop
   11933:	90                   	nop
   11934:	90                   	nop
   11935:	90                   	nop
   11936:	fa                   	cli
   11937:	90                   	nop
   11938:	90                   	nop
   11939:	90                   	nop
   1193a:	90                   	nop
   1193b:	c7 45 dc 00 00 00 00 	movl   $0x0,-0x24(%rbp)
   11942:	e9 37 01 00 00       	jmp    11a7e <verify_checkpoint+0x1e0>
   11947:	8b 55 d8             	mov    -0x28(%rbp),%edx
   1194a:	8b 45 dc             	mov    -0x24(%rbp),%eax
   1194d:	01 d0                	add    %edx,%eax
   1194f:	48 63 d0             	movslq %eax,%rdx
   11952:	48 8b 45 e8          	mov    -0x18(%rbp),%rax
   11956:	48 01 d0             	add    %rdx,%rax
   11959:	0f b6 00             	movzbl (%rax),%eax
   1195c:	88 45 d7             	mov    %al,-0x29(%rbp)
   1195f:	eb 0f                	jmp    11970 <verify_checkpoint+0xd2>
   11961:	fa                   	cli
   11962:	90                   	nop
   11963:	90                   	nop
   11964:	90                   	nop
   11965:	90                   	nop
   11966:	fa                   	cli
   11967:	90                   	nop
   11968:	90                   	nop
   11969:	90                   	nop
   1196a:	90                   	nop
   1196b:	fa                   	cli
   1196c:	90                   	nop
   1196d:	90                   	nop
   1196e:	90                   	nop
   1196f:	90                   	nop
   11970:	80 7d d7 00          	cmpb   $0x0,-0x29(%rbp)
   11974:	0f 84 ff 00 00 00    	je     11a79 <verify_checkpoint+0x1db>
   1197a:	eb 0f                	jmp    1198b <verify_checkpoint+0xed>
   1197c:	fa                   	cli
   1197d:	90                   	nop
   1197e:	90                   	nop
   1197f:	90                   	nop
   11980:	90                   	nop
   11981:	fa                   	cli
   11982:	90                   	nop
   11983:	90                   	nop
   11984:	90                   	nop
   11985:	90                   	nop
   11986:	fa                   	cli
   11987:	90                   	nop
   11988:	90                   	nop
   11989:	90                   	nop
   1198a:	90                   	nop
   1198b:	c7 45 e0 00 00 00 00 	movl   $0x0,-0x20(%rbp)
   11992:	e9 d6 00 00 00       	jmp    11a6d <verify_checkpoint+0x1cf>
   11997:	eb 0f                	jmp    119a8 <verify_checkpoint+0x10a>
   11999:	fa                   	cli
   1199a:	90                   	nop
   1199b:	90                   	nop
   1199c:	90                   	nop
   1199d:	90                   	nop
   1199e:	fa                   	cli
   1199f:	90                   	nop
   119a0:	90                   	nop
   119a1:	90                   	nop
   119a2:	90                   	nop
   119a3:	fa                   	cli
   119a4:	90                   	nop
   119a5:	90                   	nop
   119a6:	90                   	nop
   119a7:	90                   	nop
   119a8:	0f be 55 d7          	movsbl -0x29(%rbp),%edx
   119ac:	8b 45 e0             	mov    -0x20(%rbp),%eax
   119af:	89 c1                	mov    %eax,%ecx
   119b1:	d3 fa                	sar    %cl,%edx
   119b3:	89 d0                	mov    %edx,%eax
   119b5:	83 e0 01             	and    $0x1,%eax
   119b8:	85 c0                	test   %eax,%eax
   119ba:	0f 84 a9 00 00 00    	je     11a69 <verify_checkpoint+0x1cb>
   119c0:	8b 55 d8             	mov    -0x28(%rbp),%edx
   119c3:	8b 45 dc             	mov    -0x24(%rbp),%eax
   119c6:	01 d0                	add    %edx,%eax
   119c8:	8d 14 c5 00 00 00 00 	lea    0x0(,%rax,8),%edx
   119cf:	8b 45 e0             	mov    -0x20(%rbp),%eax
   119d2:	01 d0                	add    %edx,%eax
   119d4:	c1 e0 03             	shl    $0x3,%eax
   119d7:	89 45 e4             	mov    %eax,-0x1c(%rbp)
   119da:	eb 0f                	jmp    119eb <verify_checkpoint+0x14d>
   119dc:	fa                   	cli
   119dd:	90                   	nop
   119de:	90                   	nop
   119df:	90                   	nop
   119e0:	90                   	nop
   119e1:	fa                   	cli
   119e2:	90                   	nop
   119e3:	90                   	nop
   119e4:	90                   	nop
   119e5:	90                   	nop
   119e6:	fa                   	cli
   119e7:	90                   	nop
   119e8:	90                   	nop
   119e9:	90                   	nop
   119ea:	90                   	nop
   119eb:	8b 45 e4             	mov    -0x1c(%rbp),%eax
   119ee:	48 63 d0             	movslq %eax,%rdx
   119f1:	48 8b 45 f8          	mov    -0x8(%rbp),%rax
   119f5:	48 01 d0             	add    %rdx,%rax
   119f8:	48 8b 10             	mov    (%rax),%rdx
   119fb:	8b 45 e4             	mov    -0x1c(%rbp),%eax
   119fe:	48 63 c8             	movslq %eax,%rcx
   11a01:	48 8b 45 f0          	mov    -0x10(%rbp),%rax
   11a05:	48 01 c8             	add    %rcx,%rax
   11a08:	48 8b 00             	mov    (%rax),%rax
   11a0b:	48 39 c2             	cmp    %rax,%rdx
   11a0e:	74 59                	je     11a69 <verify_checkpoint+0x1cb>
   11a10:	eb 0f                	jmp    11a21 <verify_checkpoint+0x183>
   11a12:	fa                   	cli
   11a13:	90                   	nop
   11a14:	90                   	nop
   11a15:	90                   	nop
   11a16:	90                   	nop
   11a17:	fa                   	cli
   11a18:	90                   	nop
   11a19:	90                   	nop
   11a1a:	90                   	nop
   11a1b:	90                   	nop
   11a1c:	fa                   	cli
   11a1d:	90                   	nop
   11a1e:	90                   	nop
   11a1f:	90                   	nop
   11a20:	90                   	nop
   11a21:	8b 45 e4             	mov    -0x1c(%rbp),%eax
   11a24:	48 63 d0             	movslq %eax,%rdx
   11a27:	48 8b 45 f8          	mov    -0x8(%rbp),%rax
   11a2b:	48 01 d0             	add    %rdx,%rax
   11a2e:	48 8b 38             	mov    (%rax),%rdi
   11a31:	8b 45 e4             	mov    -0x1c(%rbp),%eax
   11a34:	48 63 d0             	movslq %eax,%rdx
   11a37:	48 8b 45 f0          	mov    -0x10(%rbp),%rax
   11a3b:	48 01 d0             	add    %rdx,%rax
   11a3e:	48 8b 08             	mov    (%rax),%rcx
   11a41:	48 8b 05 38 27 04 00 	mov    0x42738(%rip),%rax        # 54180 <stderr@GLIBC_2.2.5>
   11a48:	8b 55 d8             	mov    -0x28(%rbp),%edx
   11a4b:	48 8d 35 f6 f5 03 00 	lea    0x3f5f6(%rip),%rsi        # 51048 <_IO_stdin_used+0x48>
   11a52:	49 89 f8             	mov    %rdi,%r8
   11a55:	48 89 c7             	mov    %rax,%rdi
   11a58:	b8 00 00 00 00       	mov    $0x0,%eax
   11a5d:	e8 1e f7 fe ff       	call   1180 <fprintf@plt>
   11a62:	b8 ff ff ff ff       	mov    $0xffffffff,%eax
   11a67:	eb 39                	jmp    11aa2 <verify_checkpoint+0x204>
   11a69:	83 45 e0 01          	addl   $0x1,-0x20(%rbp)
   11a6d:	83 7d e0 07          	cmpl   $0x7,-0x20(%rbp)
   11a71:	0f 8e 20 ff ff ff    	jle    11997 <verify_checkpoint+0xf9>
   11a77:	eb 01                	jmp    11a7a <verify_checkpoint+0x1dc>
   11a79:	90                   	nop
   11a7a:	83 45 dc 01          	addl   $0x1,-0x24(%rbp)
   11a7e:	83 7d dc 07          	cmpl   $0x7,-0x24(%rbp)
   11a82:	0f 8e bf fe ff ff    	jle    11947 <verify_checkpoint+0xa9>
   11a88:	eb 01                	jmp    11a8b <verify_checkpoint+0x1ed>
   11a8a:	90                   	nop
   11a8b:	83 45 d8 08          	addl   $0x8,-0x28(%rbp)
   11a8f:	8b 45 d8             	mov    -0x28(%rbp),%eax
   11a92:	3d ff ff 07 00       	cmp    $0x7ffff,%eax
   11a97:	0f 86 63 fe ff ff    	jbe    11900 <verify_checkpoint+0x62>
   11a9d:	b8 00 00 00 00       	mov    $0x0,%eax
   11aa2:	c9                   	leave
   11aa3:	c3                   	ret

0000000000011aa4 <restore_area>:
   11aa4:	55                   	push   %rbp
   11aa5:	48 89 e5             	mov    %rsp,%rbp
   11aa8:	48 83 ec 40          	sub    $0x40,%rsp
   11aac:	48 89 7d c8          	mov    %rdi,-0x38(%rbp)
   11ab0:	48 8b 45 c8          	mov    -0x38(%rbp),%rax
   11ab4:	48 05 00 00 80 00    	add    $0x800000,%rax
   11aba:	48 89 45 e8          	mov    %rax,-0x18(%rbp)
   11abe:	48 8b 45 c8          	mov    -0x38(%rbp),%rax
   11ac2:	48 05 00 00 40 00    	add    $0x400000,%rax
   11ac8:	48 89 45 f0          	mov    %rax,-0x10(%rbp)
   11acc:	48 8b 45 c8          	mov    -0x38(%rbp),%rax
   11ad0:	48 89 45 f8          	mov    %rax,-0x8(%rbp)
   11ad4:	eb 0f                	jmp    11ae5 <restore_area+0x41>
   11ad6:	fa                   	cli
   11ad7:	90                   	nop
   11ad8:	90                   	nop
   11ad9:	90                   	nop
   11ada:	90                   	nop
   11adb:	fa                   	cli
   11adc:	90                   	nop
   11add:	90                   	nop
   11ade:	90                   	nop
   11adf:	90                   	nop
   11ae0:	fa                   	cli
   11ae1:	90                   	nop
   11ae2:	90                   	nop
   11ae3:	90                   	nop
   11ae4:	90                   	nop
   11ae5:	eb 0f                	jmp    11af6 <restore_area+0x52>
   11ae7:	fa                   	cli
   11ae8:	90                   	nop
   11ae9:	90                   	nop
   11aea:	90                   	nop
   11aeb:	90                   	nop
   11aec:	fa                   	cli
   11aed:	90                   	nop
   11aee:	90                   	nop
   11aef:	90                   	nop
   11af0:	90                   	nop
   11af1:	fa                   	cli
   11af2:	90                   	nop
   11af3:	90                   	nop
   11af4:	90                   	nop
   11af5:	90                   	nop
   11af6:	c7 45 d8 00 00 00 00 	movl   $0x0,-0x28(%rbp)
   11afd:	e9 15 01 00 00       	jmp    11c17 <restore_area+0x173>
   11b02:	eb 0f                	jmp    11b13 <restore_area+0x6f>
   11b04:	fa                   	cli
   11b05:	90                   	nop
   11b06:	90                   	nop
   11b07:	90                   	nop
   11b08:	90                   	nop
   11b09:	fa                   	cli
   11b0a:	90                   	nop
   11b0b:	90                   	nop
   11b0c:	90                   	nop
   11b0d:	90                   	nop
   11b0e:	fa                   	cli
   11b0f:	90                   	nop
   11b10:	90                   	nop
   11b11:	90                   	nop
   11b12:	90                   	nop
   11b13:	8b 45 d8             	mov    -0x28(%rbp),%eax
   11b16:	48 63 d0             	movslq %eax,%rdx
   11b19:	48 8b 45 e8          	mov    -0x18(%rbp),%rax
   11b1d:	48 01 d0             	add    %rdx,%rax
   11b20:	48 8b 00             	mov    (%rax),%rax
   11b23:	48 85 c0             	test   %rax,%rax
   11b26:	0f 84 e6 00 00 00    	je     11c12 <restore_area+0x16e>
   11b2c:	eb 0f                	jmp    11b3d <restore_area+0x99>
   11b2e:	fa                   	cli
   11b2f:	90                   	nop
   11b30:	90                   	nop
   11b31:	90                   	nop
   11b32:	90                   	nop
   11b33:	fa                   	cli
   11b34:	90                   	nop
   11b35:	90                   	nop
   11b36:	90                   	nop
   11b37:	90                   	nop
   11b38:	fa                   	cli
   11b39:	90                   	nop
   11b3a:	90                   	nop
   11b3b:	90                   	nop
   11b3c:	90                   	nop
   11b3d:	c7 45 dc 00 00 00 00 	movl   $0x0,-0x24(%rbp)
   11b44:	e9 bd 00 00 00       	jmp    11c06 <restore_area+0x162>
   11b49:	8b 55 d8             	mov    -0x28(%rbp),%edx
   11b4c:	8b 45 dc             	mov    -0x24(%rbp),%eax
   11b4f:	01 d0                	add    %edx,%eax
   11b51:	48 63 d0             	movslq %eax,%rdx
   11b54:	48 8b 45 e8          	mov    -0x18(%rbp),%rax
   11b58:	48 01 d0             	add    %rdx,%rax
   11b5b:	0f b6 00             	movzbl (%rax),%eax
   11b5e:	88 45 d7             	mov    %al,-0x29(%rbp)
   11b61:	eb 0f                	jmp    11b72 <restore_area+0xce>
   11b63:	fa                   	cli
   11b64:	90                   	nop
   11b65:	90                   	nop
   11b66:	90                   	nop
   11b67:	90                   	nop
   11b68:	fa                   	cli
   11b69:	90                   	nop
   11b6a:	90                   	nop
   11b6b:	90                   	nop
   11b6c:	90                   	nop
   11b6d:	fa                   	cli
   11b6e:	90                   	nop
   11b6f:	90                   	nop
   11b70:	90                   	nop
   11b71:	90                   	nop
   11b72:	80 7d d7 00          	cmpb   $0x0,-0x29(%rbp)
   11b76:	0f 84 85 00 00 00    	je     11c01 <restore_area+0x15d>
   11b7c:	eb 0f                	jmp    11b8d <restore_area+0xe9>
   11b7e:	fa                   	cli
   11b7f:	90                   	nop
   11b80:	90                   	nop
   11b81:	90                   	nop
   11b82:	90                   	nop
   11b83:	fa                   	cli
   11b84:	90                   	nop
   11b85:	90                   	nop
   11b86:	90                   	nop
   11b87:	90                   	nop
   11b88:	fa                   	cli
   11b89:	90                   	nop
   11b8a:	90                   	nop
   11b8b:	90                   	nop
   11b8c:	90                   	nop
   11b8d:	c7 45 e0 00 00 00 00 	movl   $0x0,-0x20(%rbp)
   11b94:	eb 63                	jmp    11bf9 <restore_area+0x155>
   11b96:	eb 0f                	jmp    11ba7 <restore_area+0x103>
   11b98:	fa                   	cli
   11b99:	90                   	nop
   11b9a:	90                   	nop
   11b9b:	90                   	nop
   11b9c:	90                   	nop
   11b9d:	fa                   	cli
   11b9e:	90                   	nop
   11b9f:	90                   	nop
   11ba0:	90                   	nop
   11ba1:	90                   	nop
   11ba2:	fa                   	cli
   11ba3:	90                   	nop
   11ba4:	90                   	nop
   11ba5:	90                   	nop
   11ba6:	90                   	nop
   11ba7:	0f be 55 d7          	movsbl -0x29(%rbp),%edx
   11bab:	8b 45 e0             	mov    -0x20(%rbp),%eax
   11bae:	89 c1                	mov    %eax,%ecx
   11bb0:	d3 fa                	sar    %cl,%edx
   11bb2:	89 d0                	mov    %edx,%eax
   11bb4:	83 e0 01             	and    $0x1,%eax
   11bb7:	85 c0                	test   %eax,%eax
   11bb9:	74 3a                	je     11bf5 <restore_area+0x151>
   11bbb:	8b 55 d8             	mov    -0x28(%rbp),%edx
   11bbe:	8b 45 dc             	mov    -0x24(%rbp),%eax
   11bc1:	01 d0                	add    %edx,%eax
   11bc3:	8d 14 c5 00 00 00 00 	lea    0x0(,%rax,8),%edx
   11bca:	8b 45 e0             	mov    -0x20(%rbp),%eax
   11bcd:	01 d0                	add    %edx,%eax
   11bcf:	c1 e0 03             	shl    $0x3,%eax
   11bd2:	89 45 e4             	mov    %eax,-0x1c(%rbp)
   11bd5:	8b 45 e4             	mov    -0x1c(%rbp),%eax
   11bd8:	48 63 d0             	movslq %eax,%rdx
   11bdb:	48 8b 45 f0          	mov    -0x10(%rbp),%rax
   11bdf:	48 01 d0             	add    %rdx,%rax
   11be2:	8b 55 e4             	mov    -0x1c(%rbp),%edx
   11be5:	48 63 ca             	movslq %edx,%rcx
   11be8:	48 8b 55 f8          	mov    -0x8(%rbp),%rdx
   11bec:	48 01 ca             	add    %rcx,%rdx
   11bef:	48 8b 00             	mov    (%rax),%rax
   11bf2:	48 89 02             	mov    %rax,(%rdx)
   11bf5:	83 45 e0 01          	addl   $0x1,-0x20(%rbp)
   11bf9:	83 7d e0 07          	cmpl   $0x7,-0x20(%rbp)
   11bfd:	7e 97                	jle    11b96 <restore_area+0xf2>
   11bff:	eb 01                	jmp    11c02 <restore_area+0x15e>
   11c01:	90                   	nop
   11c02:	83 45 dc 01          	addl   $0x1,-0x24(%rbp)
   11c06:	83 7d dc 07          	cmpl   $0x7,-0x24(%rbp)
   11c0a:	0f 8e 39 ff ff ff    	jle    11b49 <restore_area+0xa5>
   11c10:	eb 01                	jmp    11c13 <restore_area+0x16f>
   11c12:	90                   	nop
   11c13:	83 45 d8 08          	addl   $0x8,-0x28(%rbp)
   11c17:	8b 45 d8             	mov    -0x28(%rbp),%eax
   11c1a:	3d ff ff 07 00       	cmp    $0x7ffff,%eax
   11c1f:	0f 86 dd fe ff ff    	jbe    11b02 <restore_area+0x5e>
   11c25:	48 8b 45 e8          	mov    -0x18(%rbp),%rax
   11c29:	ba 00 00 08 00       	mov    $0x80000,%edx
   11c2e:	be 00 00 00 00       	mov    $0x0,%esi
   11c33:	48 89 c7             	mov    %rax,%rdi
   11c36:	e8 c5 f4 fe ff       	call   1100 <memset@plt>
   11c3b:	90                   	nop
   11c3c:	c9                   	leave
   11c3d:	c3                   	ret

0000000000011c3e <clean_cache>:
   11c3e:	55                   	push   %rbp
   11c3f:	48 89 e5             	mov    %rsp,%rbp
   11c42:	48 89 7d e8          	mov    %rdi,-0x18(%rbp)
   11c46:	48 8d 05 c3 3d 14 00 	lea    0x143dc3(%rip),%rax        # 155a10 <__cpu_model>
   11c4d:	8b 40 0c             	mov    0xc(%rax),%eax
   11c50:	83 e0 10             	and    $0x10,%eax
   11c53:	85 c0                	test   %eax,%eax
   11c55:	74 09                	je     11c60 <clean_cache+0x22>
   11c57:	c7 45 f0 40 00 00 00 	movl   $0x40,-0x10(%rbp)
   11c5e:	eb 07                	jmp    11c67 <clean_cache+0x29>
   11c60:	c7 45 f0 20 00 00 00 	movl   $0x20,-0x10(%rbp)
   11c67:	eb 0f                	jmp    11c78 <clean_cache+0x3a>
   11c69:	fa                   	cli
   11c6a:	90                   	nop
   11c6b:	90                   	nop
   11c6c:	90                   	nop
   11c6d:	90                   	nop
   11c6e:	fa                   	cli
   11c6f:	90                   	nop
   11c70:	90                   	nop
   11c71:	90                   	nop
   11c72:	90                   	nop
   11c73:	fa                   	cli
   11c74:	90                   	nop
   11c75:	90                   	nop
   11c76:	90                   	nop
   11c77:	90                   	nop
   11c78:	eb 0f                	jmp    11c89 <clean_cache+0x4b>
   11c7a:	fa                   	cli
   11c7b:	90                   	nop
   11c7c:	90                   	nop
   11c7d:	90                   	nop
   11c7e:	90                   	nop
   11c7f:	fa                   	cli
   11c80:	90                   	nop
   11c81:	90                   	nop
   11c82:	90                   	nop
   11c83:	90                   	nop
   11c84:	fa                   	cli
   11c85:	90                   	nop
   11c86:	90                   	nop
   11c87:	90                   	nop
   11c88:	90                   	nop
   11c89:	c7 45 f4 00 00 00 00 	movl   $0x0,-0xc(%rbp)
   11c90:	eb 2a                	jmp    11cbc <clean_cache+0x7e>
   11c92:	8b 45 f4             	mov    -0xc(%rbp),%eax
   11c95:	48 63 d0             	movslq %eax,%rdx
   11c98:	48 8b 45 e8          	mov    -0x18(%rbp),%rax
   11c9c:	48 01 d0             	add    %rdx,%rax
   11c9f:	48 89 45 f8          	mov    %rax,-0x8(%rbp)
   11ca3:	48 8b 45 f8          	mov    -0x8(%rbp),%rax
   11ca7:	0f ae 38             	clflush (%rax)
   11caa:	90                   	nop
   11cab:	8b 45 f0             	mov    -0x10(%rbp),%eax
   11cae:	8d 50 07             	lea    0x7(%rax),%edx
   11cb1:	85 c0                	test   %eax,%eax
   11cb3:	0f 48 c2             	cmovs  %edx,%eax
   11cb6:	c1 f8 03             	sar    $0x3,%eax
   11cb9:	01 45 f4             	add    %eax,-0xc(%rbp)
   11cbc:	8b 45 f4             	mov    -0xc(%rbp),%eax
   11cbf:	3d ff ff 87 00       	cmp    $0x87ffff,%eax
   11cc4:	76 cc                	jbe    11c92 <clean_cache+0x54>
   11cc6:	90                   	nop
   11cc7:	90                   	nop
   11cc8:	5d                   	pop    %rbp
   11cc9:	c3                   	ret

0000000000011cca <main>:
   11cca:	55                   	push   %rbp
   11ccb:	48 89 e5             	mov    %rsp,%rbp
   11cce:	48 83 c4 80          	add    $0xffffffffffffff80,%rsp
   11cd2:	89 7d 8c             	mov    %edi,-0x74(%rbp)
   11cd5:	48 89 75 80          	mov    %rsi,-0x80(%rbp)
   11cd9:	64 48 8b 04 25 28 00 00 00 	mov    %fs:0x28,%rax
   11ce2:	48 89 45 f8          	mov    %rax,-0x8(%rbp)
   11ce6:	31 c0                	xor    %eax,%eax
   11ce8:	eb 0f                	jmp    11cf9 <main+0x2f>
   11cea:	fa                   	cli
   11ceb:	90                   	nop
   11cec:	90                   	nop
   11ced:	90                   	nop
   11cee:	90                   	nop
   11cef:	fa                   	cli
   11cf0:	90                   	nop
   11cf1:	90                   	nop
   11cf2:	90                   	nop
   11cf3:	90                   	nop
   11cf4:	fa                   	cli
   11cf5:	90                   	nop
   11cf6:	90                   	nop
   11cf7:	90                   	nop
   11cf8:	90                   	nop
   11cf9:	83 7d 8c 02          	cmpl   $0x2,-0x74(%rbp)
   11cfd:	7f 40                	jg     11d3f <main+0x75>
   11cff:	eb 0f                	jmp    11d10 <main+0x46>
   11d01:	fa                   	cli
   11d02:	90                   	nop
   11d03:	90                   	nop
   11d04:	90                   	nop
   11d05:	90                   	nop
   11d06:	fa                   	cli
   11d07:	90                   	nop
   11d08:	90                   	nop
   11d09:	90                   	nop
   11d0a:	90                   	nop
   11d0b:	fa                   	cli
   11d0c:	90                   	nop
   11d0d:	90                   	nop
   11d0e:	90                   	nop
   11d0f:	90                   	nop
   11d10:	48 8b 45 80          	mov    -0x80(%rbp),%rax
   11d14:	48 8b 10             	mov    (%rax),%rdx
   11d17:	48 8b 05 62 24 04 00 	mov    0x42462(%rip),%rax        # 54180 <stderr@GLIBC_2.2.5>
   11d1e:	48 8d 0d 7b f3 03 00 	lea    0x3f37b(%rip),%rcx        # 510a0 <_IO_stdin_used+0xa0>
   11d25:	48 89 ce             	mov    %rcx,%rsi
   11d28:	48 89 c7             	mov    %rax,%rdi
   11d2b:	b8 00 00 00 00       	mov    $0x0,%eax
   11d30:	e8 4b f4 fe ff       	call   1180 <fprintf@plt>
   11d35:	b8 01 00 00 00       	mov    $0x1,%eax
   11d3a:	e9 eb 06 00 00       	jmp    1242a <main+0x760>
   11d3f:	48 8b 45 80          	mov    -0x80(%rbp),%rax
   11d43:	48 83 c0 08          	add    $0x8,%rax
   11d47:	48 8b 00             	mov    (%rax),%rax
   11d4a:	48 8d 4d a8          	lea    -0x58(%rbp),%rcx
   11d4e:	ba 0a 00 00 00       	mov    $0xa,%edx
   11d53:	48 89 ce             	mov    %rcx,%rsi
   11d56:	48 89 c7             	mov    %rax,%rdi
   11d59:	e8 52 f4 fe ff       	call   11b0 <__isoc23_strtol@plt>
   11d5e:	89 45 9c             	mov    %eax,-0x64(%rbp)
   11d61:	eb 0f                	jmp    11d72 <main+0xa8>
   11d63:	fa                   	cli
   11d64:	90                   	nop
   11d65:	90                   	nop
   11d66:	90                   	nop
   11d67:	90                   	nop
   11d68:	fa                   	cli
   11d69:	90                   	nop
   11d6a:	90                   	nop
   11d6b:	90                   	nop
   11d6c:	90                   	nop
   11d6d:	fa                   	cli
   11d6e:	90                   	nop
   11d6f:	90                   	nop
   11d70:	90                   	nop
   11d71:	90                   	nop
   11d72:	48 8b 45 a8          	mov    -0x58(%rbp),%rax
   11d76:	0f b6 00             	movzbl (%rax),%eax
   11d79:	84 c0                	test   %al,%al
   11d7b:	75 06                	jne    11d83 <main+0xb9>
   11d7d:	83 7d 9c 00          	cmpl   $0x0,-0x64(%rbp)
   11d81:	7f 3b                	jg     11dbe <main+0xf4>
   11d83:	eb 0f                	jmp    11d94 <main+0xca>
   11d85:	fa                   	cli
   11d86:	90                   	nop
   11d87:	90                   	nop
   11d88:	90                   	nop
   11d89:	90                   	nop
   11d8a:	fa                   	cli
   11d8b:	90                   	nop
   11d8c:	90                   	nop
   11d8d:	90                   	nop
   11d8e:	90                   	nop
   11d8f:	fa                   	cli
   11d90:	90                   	nop
   11d91:	90                   	nop
   11d92:	90                   	nop
   11d93:	90                   	nop
   11d94:	48 8b 05 e5 23 04 00 	mov    0x423e5(%rip),%rax        # 54180 <stderr@GLIBC_2.2.5>
   11d9b:	48 8d 3d 2e f3 03 00 	lea    0x3f32e(%rip),%rdi        # 510d0 <_IO_stdin_used+0xd0>
   11da2:	48 89 c1             	mov    %rax,%rcx
   11da5:	ba 3b 00 00 00       	mov    $0x3b,%edx
   11daa:	be 01 00 00 00       	mov    $0x1,%esi
   11daf:	e8 8c f4 fe ff       	call   1240 <fwrite@plt>
   11db4:	b8 01 00 00 00       	mov    $0x1,%eax
   11db9:	e9 6c 06 00 00       	jmp    1242a <main+0x760>
   11dbe:	48 8b 45 80          	mov    -0x80(%rbp),%rax
   11dc2:	48 83 c0 10          	add    $0x10,%rax
   11dc6:	48 8b 00             	mov    (%rax),%rax
   11dc9:	48 8d 4d a8          	lea    -0x58(%rbp),%rcx
   11dcd:	ba 0a 00 00 00       	mov    $0xa,%edx
   11dd2:	48 89 ce             	mov    %rcx,%rsi
   11dd5:	48 89 c7             	mov    %rax,%rdi
   11dd8:	e8 d3 f3 fe ff       	call   11b0 <__isoc23_strtol@plt>
   11ddd:	89 45 a0             	mov    %eax,-0x60(%rbp)
   11de0:	eb 0f                	jmp    11df1 <main+0x127>
   11de2:	fa                   	cli
   11de3:	90                   	nop
   11de4:	90                   	nop
   11de5:	90                   	nop
   11de6:	90                   	nop
   11de7:	fa                   	cli
   11de8:	90                   	nop
   11de9:	90                   	nop
   11dea:	90                   	nop
   11deb:	90                   	nop
   11dec:	fa                   	cli
   11ded:	90                   	nop
   11dee:	90                   	nop
   11def:	90                   	nop
   11df0:	90                   	nop
   11df1:	48 8b 45 a8          	mov    -0x58(%rbp),%rax
   11df5:	0f b6 00             	movzbl (%rax),%eax
   11df8:	84 c0                	test   %al,%al
   11dfa:	75 06                	jne    11e02 <main+0x138>
   11dfc:	83 7d a0 00          	cmpl   $0x0,-0x60(%rbp)
   11e00:	79 3b                	jns    11e3d <main+0x173>
   11e02:	eb 0f                	jmp    11e13 <main+0x149>
   11e04:	fa                   	cli
   11e05:	90                   	nop
   11e06:	90                   	nop
   11e07:	90                   	nop
   11e08:	90                   	nop
   11e09:	fa                   	cli
   11e0a:	90                   	nop
   11e0b:	90                   	nop
   11e0c:	90                   	nop
   11e0d:	90                   	nop
   11e0e:	fa                   	cli
   11e0f:	90                   	nop
   11e10:	90                   	nop
   11e11:	90                   	nop
   11e12:	90                   	nop
   11e13:	48 8b 05 66 23 04 00 	mov    0x42366(%rip),%rax        # 54180 <stderr@GLIBC_2.2.5>
   11e1a:	48 8d 3d ef f2 03 00 	lea    0x3f2ef(%rip),%rdi        # 51110 <_IO_stdin_used+0x110>
   11e21:	48 89 c1             	mov    %rax,%rcx
   11e24:	ba 3a 00 00 00       	mov    $0x3a,%edx
   11e29:	be 01 00 00 00       	mov    $0x1,%esi
   11e2e:	e8 0d f4 fe ff       	call   1240 <fwrite@plt>
   11e33:	b8 01 00 00 00       	mov    $0x1,%eax
   11e38:	e9 ed 05 00 00       	jmp    1242a <main+0x760>
   11e3d:	eb 0f                	jmp    11e4e <main+0x184>
   11e3f:	fa                   	cli
   11e40:	90                   	nop
   11e41:	90                   	nop
   11e42:	90                   	nop
   11e43:	90                   	nop
   11e44:	fa                   	cli
   11e45:	90                   	nop
   11e46:	90                   	nop
   11e47:	90                   	nop
   11e48:	90                   	nop
   11e49:	fa                   	cli
   11e4a:	90                   	nop
   11e4b:	90                   	nop
   11e4c:	90                   	nop
   11e4d:	90                   	nop
   11e4e:	8b 45 9c             	mov    -0x64(%rbp),%eax
   11e51:	48 8d 15 f3 f2 03 00 	lea    0x3f2f3(%rip),%rdx        # 5114b <_IO_stdin_used+0x14b>
   11e58:	89 c6                	mov    %eax,%esi
   11e5a:	48 89 d7             	mov    %rdx,%rdi
   11e5d:	b8 00 00 00 00       	mov    $0x0,%eax
   11e62:	e8 89 f2 fe ff       	call   10f0 <printf@plt>
   11e67:	eb 0f                	jmp    11e78 <main+0x1ae>
   11e69:	fa                   	cli
   11e6a:	90                   	nop
   11e6b:	90                   	nop
   11e6c:	90                   	nop
   11e6d:	90                   	nop
   11e6e:	fa                   	cli
   11e6f:	90                   	nop
   11e70:	90                   	nop
   11e71:	90                   	nop
   11e72:	90                   	nop
   11e73:	fa                   	cli
   11e74:	90                   	nop
   11e75:	90                   	nop
   11e76:	90                   	nop
   11e77:	90                   	nop
   11e78:	8b 45 a0             	mov    -0x60(%rbp),%eax
   11e7b:	48 8d 15 df f2 03 00 	lea    0x3f2df(%rip),%rdx        # 51161 <_IO_stdin_used+0x161>
   11e82:	89 c6                	mov    %eax,%esi
   11e84:	48 89 d7             	mov    %rdx,%rdi
   11e87:	b8 00 00 00 00       	mov    $0x0,%eax
   11e8c:	e8 5f f2 fe ff       	call   10f0 <printf@plt>
   11e91:	eb 0f                	jmp    11ea2 <main+0x1d8>
   11e93:	fa                   	cli
   11e94:	90                   	nop
   11e95:	90                   	nop
   11e96:	90                   	nop
   11e97:	90                   	nop
   11e98:	fa                   	cli
   11e99:	90                   	nop
   11e9a:	90                   	nop
   11e9b:	90                   	nop
   11e9c:	90                   	nop
   11e9d:	fa                   	cli
   11e9e:	90                   	nop
   11e9f:	90                   	nop
   11ea0:	90                   	nop
   11ea1:	90                   	nop
   11ea2:	e8 d2 f5 ff ff       	call   11479 <tls_setup>
   11ea7:	48 85 c0             	test   %rax,%rax
   11eaa:	75 3b                	jne    11ee7 <main+0x21d>
   11eac:	eb 0f                	jmp    11ebd <main+0x1f3>
   11eae:	fa                   	cli
   11eaf:	90                   	nop
   11eb0:	90                   	nop
   11eb1:	90                   	nop
   11eb2:	90                   	nop
   11eb3:	fa                   	cli
   11eb4:	90                   	nop
   11eb5:	90                   	nop
   11eb6:	90                   	nop
   11eb7:	90                   	nop
   11eb8:	fa                   	cli
   11eb9:	90                   	nop
   11eba:	90                   	nop
   11ebb:	90                   	nop
   11ebc:	90                   	nop
   11ebd:	48 8b 05 bc 22 04 00 	mov    0x422bc(%rip),%rax        # 54180 <stderr@GLIBC_2.2.5>
   11ec4:	48 8d 3d ac f2 03 00 	lea    0x3f2ac(%rip),%rdi        # 51177 <_IO_stdin_used+0x177>
   11ecb:	48 89 c1             	mov    %rax,%rcx
   11ece:	ba 11 00 00 00       	mov    $0x11,%edx
   11ed3:	be 01 00 00 00       	mov    $0x1,%esi
   11ed8:	e8 63 f3 fe ff       	call   1240 <fwrite@plt>
   11edd:	b8 01 00 00 00       	mov    $0x1,%eax
   11ee2:	e9 43 05 00 00       	jmp    1242a <main+0x760>
   11ee7:	bf 2a 00 00 00       	mov    $0x2a,%edi
   11eec:	e8 4f f2 fe ff       	call   1140 <srand@plt>
   11ef1:	e8 7a f3 fe ff       	call   1270 <rand@plt>
   11ef6:	48 63 d0             	movslq %eax,%rdx
   11ef9:	48 83 fa ff          	cmp    $0xffffffffffffffff,%rdx
   11efd:	0f 93 c0             	setae  %al
   11f00:	0f b6 c0             	movzbl %al,%eax
   11f03:	48 f7 d8             	neg    %rax
   11f06:	48 89 c1             	mov    %rax,%rcx
   11f09:	48 89 d0             	mov    %rdx,%rax
   11f0c:	48 29 c8             	sub    %rcx,%rax
   11f0f:	48 83 c0 01          	add    $0x1,%rax
   11f13:	48 89 45 b0          	mov    %rax,-0x50(%rbp)
   11f17:	e8 54 f3 fe ff       	call   1270 <rand@plt>
   11f1c:	48 63 d0             	movslq %eax,%rdx
   11f1f:	48 83 fa ff          	cmp    $0xffffffffffffffff,%rdx
   11f23:	0f 93 c0             	setae  %al
   11f26:	0f b6 c0             	movzbl %al,%eax
   11f29:	48 f7 d8             	neg    %rax
   11f2c:	48 89 c1             	mov    %rax,%rcx
   11f2f:	48 89 d0             	mov    %rdx,%rax
   11f32:	48 29 c8             	sub    %rcx,%rax
   11f35:	48 83 c0 01          	add    $0x1,%rax
   11f39:	48 89 45 b8          	mov    %rax,-0x48(%rbp)
   11f3d:	e8 2e f3 fe ff       	call   1270 <rand@plt>
   11f42:	48 63 d0             	movslq %eax,%rdx
   11f45:	48 83 fa ff          	cmp    $0xffffffffffffffff,%rdx
   11f49:	0f 93 c0             	setae  %al
   11f4c:	0f b6 c0             	movzbl %al,%eax
   11f4f:	48 f7 d8             	neg    %rax
   11f52:	48 89 c1             	mov    %rax,%rcx
   11f55:	48 89 d0             	mov    %rdx,%rax
   11f58:	48 29 c8             	sub    %rcx,%rax
   11f5b:	48 83 c0 01          	add    $0x1,%rax
   11f5f:	48 89 45 c0          	mov    %rax,-0x40(%rbp)
   11f63:	eb 0f                	jmp    11f74 <main+0x2aa>
   11f65:	fa                   	cli
   11f66:	90                   	nop
   11f67:	90                   	nop
   11f68:	90                   	nop
   11f69:	90                   	nop
   11f6a:	fa                   	cli
   11f6b:	90                   	nop
   11f6c:	90                   	nop
   11f6d:	90                   	nop
   11f6e:	90                   	nop
   11f6f:	fa                   	cli
   11f70:	90                   	nop
   11f71:	90                   	nop
   11f72:	90                   	nop
   11f73:	90                   	nop
   11f74:	48 8b 45 b0          	mov    -0x50(%rbp),%rax
   11f78:	48 8d 15 0a f2 03 00 	lea    0x3f20a(%rip),%rdx        # 51189 <_IO_stdin_used+0x189>
   11f7f:	48 89 c6             	mov    %rax,%rsi
   11f82:	48 89 d7             	mov    %rdx,%rdi
   11f85:	b8 00 00 00 00       	mov    $0x0,%eax
   11f8a:	e8 61 f1 fe ff       	call   10f0 <printf@plt>
   11f8f:	eb 0f                	jmp    11fa0 <main+0x2d6>
   11f91:	fa                   	cli
   11f92:	90                   	nop
   11f93:	90                   	nop
   11f94:	90                   	nop
   11f95:	90                   	nop
   11f96:	fa                   	cli
   11f97:	90                   	nop
   11f98:	90                   	nop
   11f99:	90                   	nop
   11f9a:	90                   	nop
   11f9b:	fa                   	cli
   11f9c:	90                   	nop
   11f9d:	90                   	nop
   11f9e:	90                   	nop
   11f9f:	90                   	nop
   11fa0:	48 8b 45 b8          	mov    -0x48(%rbp),%rax
   11fa4:	48 8d 15 f3 f1 03 00 	lea    0x3f1f3(%rip),%rdx        # 5119e <_IO_stdin_used+0x19e>
   11fab:	48 89 c6             	mov    %rax,%rsi
   11fae:	48 89 d7             	mov    %rdx,%rdi
   11fb1:	b8 00 00 00 00       	mov    $0x0,%eax
   11fb6:	e8 35 f1 fe ff       	call   10f0 <printf@plt>
   11fbb:	eb 0f                	jmp    11fcc <main+0x302>
   11fbd:	fa                   	cli
   11fbe:	90                   	nop
   11fbf:	90                   	nop
   11fc0:	90                   	nop
   11fc1:	90                   	nop
   11fc2:	fa                   	cli
   11fc3:	90                   	nop
   11fc4:	90                   	nop
   11fc5:	90                   	nop
   11fc6:	90                   	nop
   11fc7:	fa                   	cli
   11fc8:	90                   	nop
   11fc9:	90                   	nop
   11fca:	90                   	nop
   11fcb:	90                   	nop
   11fcc:	48 8b 45 c0          	mov    -0x40(%rbp),%rax
   11fd0:	48 8d 15 da f1 03 00 	lea    0x3f1da(%rip),%rdx        # 511b1 <_IO_stdin_used+0x1b1>
   11fd7:	48 89 c6             	mov    %rax,%rsi
   11fda:	48 89 d7             	mov    %rdx,%rdi
   11fdd:	b8 00 00 00 00       	mov    $0x0,%eax
   11fe2:	e8 09 f1 fe ff       	call   10f0 <printf@plt>
   11fe7:	48 b8 00 00 00 00 08 00 00 00 	movabs $0x800000000,%rax
   11ff1:	48 89 45 c8          	mov    %rax,-0x38(%rbp)
   11ff5:	48 8b 45 c8          	mov    -0x38(%rbp),%rax
   11ff9:	be 00 00 88 00       	mov    $0x880000,%esi
   11ffe:	48 89 c7             	mov    %rax,%rdi
   12001:	e8 4a f2 fe ff       	call   1250 <aligned_alloc@plt>
   12006:	48 89 45 d0          	mov    %rax,-0x30(%rbp)
   1200a:	eb 0f                	jmp    1201b <main+0x351>
   1200c:	fa                   	cli
   1200d:	90                   	nop
   1200e:	90                   	nop
   1200f:	90                   	nop
   12010:	90                   	nop
   12011:	fa                   	cli
   12012:	90                   	nop
   12013:	90                   	nop
   12014:	90                   	nop
   12015:	90                   	nop
   12016:	fa                   	cli
   12017:	90                   	nop
   12018:	90                   	nop
   12019:	90                   	nop
   1201a:	90                   	nop
   1201b:	48 83 7d d0 00       	cmpq   $0x0,-0x30(%rbp)
   12020:	75 19                	jne    1203b <main+0x371>
   12022:	48 8d 05 9d f1 03 00 	lea    0x3f19d(%rip),%rax        # 511c6 <_IO_stdin_used+0x1c6>
   12029:	48 89 c7             	mov    %rax,%rdi
   1202c:	e8 cf f1 fe ff       	call   1200 <perror@plt>
   12031:	b8 01 00 00 00       	mov    $0x1,%eax
   12036:	e9 ef 03 00 00       	jmp    1242a <main+0x760>
   1203b:	48 8b 45 d0          	mov    -0x30(%rbp),%rax
   1203f:	ba 00 00 88 00       	mov    $0x880000,%edx
   12044:	be 00 00 00 00       	mov    $0x0,%esi
   12049:	48 89 c7             	mov    %rax,%rdi
   1204c:	e8 af f0 fe ff       	call   1100 <memset@plt>
   12051:	eb 0f                	jmp    12062 <main+0x398>
   12053:	fa                   	cli
   12054:	90                   	nop
   12055:	90                   	nop
   12056:	90                   	nop
   12057:	90                   	nop
   12058:	fa                   	cli
   12059:	90                   	nop
   1205a:	90                   	nop
   1205b:	90                   	nop
   1205c:	90                   	nop
   1205d:	fa                   	cli
   1205e:	90                   	nop
   1205f:	90                   	nop
   12060:	90                   	nop
   12061:	90                   	nop
   12062:	48 8b 45 d0          	mov    -0x30(%rbp),%rax
   12066:	48 8d 15 6f f1 03 00 	lea    0x3f16f(%rip),%rdx        # 511dc <_IO_stdin_used+0x1dc>
   1206d:	48 89 c6             	mov    %rax,%rsi
   12070:	48 89 d7             	mov    %rdx,%rdi
   12073:	b8 00 00 00 00       	mov    $0x0,%eax
   12078:	e8 73 f0 fe ff       	call   10f0 <printf@plt>
   1207d:	eb 0f                	jmp    1208e <main+0x3c4>
   1207f:	fa                   	cli
   12080:	90                   	nop
   12081:	90                   	nop
   12082:	90                   	nop
   12083:	90                   	nop
   12084:	fa                   	cli
   12085:	90                   	nop
   12086:	90                   	nop
   12087:	90                   	nop
   12088:	90                   	nop
   12089:	fa                   	cli
   1208a:	90                   	nop
   1208b:	90                   	nop
   1208c:	90                   	nop
   1208d:	90                   	nop
   1208e:	48 8b 45 d0          	mov    -0x30(%rbp),%rax
   12092:	48 8d 90 00 00 40 00 	lea    0x400000(%rax),%rdx
   12099:	48 8d 05 47 f1 03 00 	lea    0x3f147(%rip),%rax        # 511e7 <_IO_stdin_used+0x1e7>
   120a0:	48 89 d6             	mov    %rdx,%rsi
   120a3:	48 89 c7             	mov    %rax,%rdi
   120a6:	b8 00 00 00 00       	mov    $0x0,%eax
   120ab:	e8 40 f0 fe ff       	call   10f0 <printf@plt>
   120b0:	eb 0f                	jmp    120c1 <main+0x3f7>
   120b2:	fa                   	cli
   120b3:	90                   	nop
   120b4:	90                   	nop
   120b5:	90                   	nop
   120b6:	90                   	nop
   120b7:	fa                   	cli
   120b8:	90                   	nop
   120b9:	90                   	nop
   120ba:	90                   	nop
   120bb:	90                   	nop
   120bc:	fa                   	cli
   120bd:	90                   	nop
   120be:	90                   	nop
   120bf:	90                   	nop
   120c0:	90                   	nop
   120c1:	48 8b 45 d0          	mov    -0x30(%rbp),%rax
   120c5:	48 8d 90 00 00 88 00 	lea    0x880000(%rax),%rdx
   120cc:	48 8d 05 1f f1 03 00 	lea    0x3f11f(%rip),%rax        # 511f2 <_IO_stdin_used+0x1f2>
   120d3:	48 89 d6             	mov    %rdx,%rsi
   120d6:	48 89 c7             	mov    %rax,%rdi
   120d9:	b8 00 00 00 00       	mov    $0x0,%eax
   120de:	e8 0d f0 fe ff       	call   10f0 <printf@plt>
   120e3:	48 8b 55 b0          	mov    -0x50(%rbp),%rdx
   120e7:	48 8b 45 d0          	mov    -0x30(%rbp),%rax
   120eb:	48 89 d6             	mov    %rdx,%rsi
   120ee:	48 89 c7             	mov    %rax,%rdi
   120f1:	e8 f2 f3 ff ff       	call   114e8 <init_area>
   120f6:	41 b9 00 00 00 00    	mov    $0x0,%r9d
   120fc:	41 b8 00 00 00 00    	mov    $0x0,%r8d
   12102:	b9 22 00 00 00       	mov    $0x22,%ecx
   12107:	ba 03 00 00 00       	mov    $0x3,%edx
   1210c:	be 00 00 40 00       	mov    $0x400000,%esi
   12111:	bf 00 00 00 00       	mov    $0x0,%edi
   12116:	e8 a5 ef fe ff       	call   10c0 <mmap@plt>
   1211b:	48 89 45 d8          	mov    %rax,-0x28(%rbp)
   1211f:	eb 0f                	jmp    12130 <main+0x466>
   12121:	fa                   	cli
   12122:	90                   	nop
   12123:	90                   	nop
   12124:	90                   	nop
   12125:	90                   	nop
   12126:	fa                   	cli
   12127:	90                   	nop
   12128:	90                   	nop
   12129:	90                   	nop
   1212a:	90                   	nop
   1212b:	fa                   	cli
   1212c:	90                   	nop
   1212d:	90                   	nop
   1212e:	90                   	nop
   1212f:	90                   	nop
   12130:	48 83 7d d8 ff       	cmpq   $0xffffffffffffffff,-0x28(%rbp)
   12135:	75 19                	jne    12150 <main+0x486>
   12137:	48 8d 05 c0 f0 03 00 	lea    0x3f0c0(%rip),%rax        # 511fe <_IO_stdin_used+0x1fe>
   1213e:	48 89 c7             	mov    %rax,%rdi
   12141:	e8 ba f0 fe ff       	call   1200 <perror@plt>
   12146:	b8 01 00 00 00       	mov    $0x1,%eax
   1214b:	e9 da 02 00 00       	jmp    1242a <main+0x760>
   12150:	48 8b 4d d0          	mov    -0x30(%rbp),%rcx
   12154:	48 8b 45 d8          	mov    -0x28(%rbp),%rax
   12158:	ba 00 00 40 00       	mov    $0x400000,%edx
   1215d:	48 89 ce             	mov    %rcx,%rsi
   12160:	48 89 c7             	mov    %rax,%rdi
   12163:	e8 38 f0 fe ff       	call   11a0 <memcpy@plt>
   12168:	48 8b 4d d8          	mov    -0x28(%rbp),%rcx
   1216c:	48 8b 45 d0          	mov    -0x30(%rbp),%rax
   12170:	ba 00 00 40 00       	mov    $0x400000,%edx
   12175:	48 89 ce             	mov    %rcx,%rsi
   12178:	48 89 c7             	mov    %rax,%rdi
   1217b:	e8 d0 ef fe ff       	call   1150 <memcmp@plt>
   12180:	89 45 a4             	mov    %eax,-0x5c(%rbp)
   12183:	eb 0f                	jmp    12194 <main+0x4ca>
   12185:	fa                   	cli
   12186:	90                   	nop
   12187:	90                   	nop
   12188:	90                   	nop
   12189:	90                   	nop
   1218a:	fa                   	cli
   1218b:	90                   	nop
   1218c:	90                   	nop
   1218d:	90                   	nop
   1218e:	90                   	nop
   1218f:	fa                   	cli
   12190:	90                   	nop
   12191:	90                   	nop
   12192:	90                   	nop
   12193:	90                   	nop
   12194:	83 7d a4 00          	cmpl   $0x0,-0x5c(%rbp)
   12198:	74 3c                	je     121d6 <main+0x50c>
   1219a:	eb 0f                	jmp    121ab <main+0x4e1>
   1219c:	fa                   	cli
   1219d:	90                   	nop
   1219e:	90                   	nop
   1219f:	90                   	nop
   121a0:	90                   	nop
   121a1:	fa                   	cli
   121a2:	90                   	nop
   121a3:	90                   	nop
   121a4:	90                   	nop
   121a5:	90                   	nop
   121a6:	fa                   	cli
   121a7:	90                   	nop
   121a8:	90                   	nop
   121a9:	90                   	nop
   121aa:	90                   	nop
   121ab:	48 8b 05 ce 1f 04 00 	mov    0x41fce(%rip),%rax        # 54180 <stderr@GLIBC_2.2.5>
   121b2:	8b 55 a4             	mov    -0x5c(%rbp),%edx
   121b5:	48 8d 0d 56 f0 03 00 	lea    0x3f056(%rip),%rcx        # 51212 <_IO_stdin_used+0x212>
   121bc:	48 89 ce             	mov    %rcx,%rsi
   121bf:	48 89 c7             	mov    %rax,%rdi
   121c2:	b8 00 00 00 00       	mov    $0x0,%eax
   121c7:	e8 b4 ef fe ff       	call   1180 <fprintf@plt>
   121cc:	b8 01 00 00 00       	mov    $0x1,%eax
   121d1:	e9 54 02 00 00       	jmp    1242a <main+0x760>
   121d6:	eb 0f                	jmp    121e7 <main+0x51d>
   121d8:	fa                   	cli
   121d9:	90                   	nop
   121da:	90                   	nop
   121db:	90                   	nop
   121dc:	90                   	nop
   121dd:	fa                   	cli
   121de:	90                   	nop
   121df:	90                   	nop
   121e0:	90                   	nop
   121e1:	90                   	nop
   121e2:	fa                   	cli
   121e3:	90                   	nop
   121e4:	90                   	nop
   121e5:	90                   	nop
   121e6:	90                   	nop
   121e7:	48 8d 05 3d f0 03 00 	lea    0x3f03d(%rip),%rax        # 5122b <_IO_stdin_used+0x22b>
   121ee:	48 89 c7             	mov    %rax,%rdi
   121f1:	e8 6a ee fe ff       	call   1060 <puts@plt>
   121f6:	48 8b 45 d0          	mov    -0x30(%rbp),%rax
   121fa:	48 89 c7             	mov    %rax,%rdi
   121fd:	e8 3c fa ff ff       	call   11c3e <clean_cache>
   12202:	8b 4d a0             	mov    -0x60(%rbp),%ecx
   12205:	8b 55 9c             	mov    -0x64(%rbp),%edx
   12208:	48 8b 75 b8          	mov    -0x48(%rbp),%rsi
   1220c:	48 8b 45 d0          	mov    -0x30(%rbp),%rax
   12210:	48 89 c7             	mov    %rax,%rdi
   12213:	e8 1c f3 ff ff       	call   11534 <test_checkpoint>
   12218:	eb 0f                	jmp    12229 <main+0x55f>
   1221a:	fa                   	cli
   1221b:	90                   	nop
   1221c:	90                   	nop
   1221d:	90                   	nop
   1221e:	90                   	nop
   1221f:	fa                   	cli
   12220:	90                   	nop
   12221:	90                   	nop
   12222:	90                   	nop
   12223:	90                   	nop
   12224:	fa                   	cli
   12225:	90                   	nop
   12226:	90                   	nop
   12227:	90                   	nop
   12228:	90                   	nop
   12229:	48 8b 55 d8          	mov    -0x28(%rbp),%rdx
   1222d:	48 8b 45 d0          	mov    -0x30(%rbp),%rax
   12231:	48 89 d6             	mov    %rdx,%rsi
   12234:	48 89 c7             	mov    %rax,%rdi
   12237:	e8 62 f6 ff ff       	call   1189e <verify_checkpoint>
   1223c:	85 c0                	test   %eax,%eax
   1223e:	74 0a                	je     1224a <main+0x580>
   12240:	b8 01 00 00 00       	mov    $0x1,%eax
   12245:	e9 e0 01 00 00       	jmp    1242a <main+0x760>
   1224a:	eb 0f                	jmp    1225b <main+0x591>
   1224c:	fa                   	cli
   1224d:	90                   	nop
   1224e:	90                   	nop
   1224f:	90                   	nop
   12250:	90                   	nop
   12251:	fa                   	cli
   12252:	90                   	nop
   12253:	90                   	nop
   12254:	90                   	nop
   12255:	90                   	nop
   12256:	fa                   	cli
   12257:	90                   	nop
   12258:	90                   	nop
   12259:	90                   	nop
   1225a:	90                   	nop
   1225b:	48 8d 05 d6 ef 03 00 	lea    0x3efd6(%rip),%rax        # 51238 <_IO_stdin_used+0x238>
   12262:	48 89 c7             	mov    %rax,%rdi
   12265:	e8 f6 ed fe ff       	call   1060 <puts@plt>
   1226a:	48 8b 45 d0          	mov    -0x30(%rbp),%rax
   1226e:	48 89 c7             	mov    %rax,%rdi
   12271:	e8 c8 f9 ff ff       	call   11c3e <clean_cache>
   12276:	8b 4d a0             	mov    -0x60(%rbp),%ecx
   12279:	8b 55 9c             	mov    -0x64(%rbp),%edx
   1227c:	48 8b 75 c0          	mov    -0x40(%rbp),%rsi
   12280:	48 8b 45 d0          	mov    -0x30(%rbp),%rax
   12284:	48 89 c7             	mov    %rax,%rdi
   12287:	e8 a8 f2 ff ff       	call   11534 <test_checkpoint>
   1228c:	eb 0f                	jmp    1229d <main+0x5d3>
   1228e:	fa                   	cli
   1228f:	90                   	nop
   12290:	90                   	nop
   12291:	90                   	nop
   12292:	90                   	nop
   12293:	fa                   	cli
   12294:	90                   	nop
   12295:	90                   	nop
   12296:	90                   	nop
   12297:	90                   	nop
   12298:	fa                   	cli
   12299:	90                   	nop
   1229a:	90                   	nop
   1229b:	90                   	nop
   1229c:	90                   	nop
   1229d:	48 8b 55 d8          	mov    -0x28(%rbp),%rdx
   122a1:	48 8b 45 d0          	mov    -0x30(%rbp),%rax
   122a5:	48 89 d6             	mov    %rdx,%rsi
   122a8:	48 89 c7             	mov    %rax,%rdi
   122ab:	e8 ee f5 ff ff       	call   1189e <verify_checkpoint>
   122b0:	85 c0                	test   %eax,%eax
   122b2:	74 0a                	je     122be <main+0x5f4>
   122b4:	b8 01 00 00 00       	mov    $0x1,%eax
   122b9:	e9 6c 01 00 00       	jmp    1242a <main+0x760>
   122be:	eb 0f                	jmp    122cf <main+0x605>
   122c0:	fa                   	cli
   122c1:	90                   	nop
   122c2:	90                   	nop
   122c3:	90                   	nop
   122c4:	90                   	nop
   122c5:	fa                   	cli
   122c6:	90                   	nop
   122c7:	90                   	nop
   122c8:	90                   	nop
   122c9:	90                   	nop
   122ca:	fa                   	cli
   122cb:	90                   	nop
   122cc:	90                   	nop
   122cd:	90                   	nop
   122ce:	90                   	nop
   122cf:	48 8d 05 ac ef 03 00 	lea    0x3efac(%rip),%rax        # 51282 <_IO_stdin_used+0x282>
   122d6:	48 89 c7             	mov    %rax,%rdi
   122d9:	e8 82 ed fe ff       	call   1060 <puts@plt>
   122de:	48 8b 45 d0          	mov    -0x30(%rbp),%rax
   122e2:	48 89 c7             	mov    %rax,%rdi
   122e5:	e8 54 f9 ff ff       	call   11c3e <clean_cache>
   122ea:	e8 91 ed fe ff       	call   1080 <clock@plt>
   122ef:	48 89 45 e0          	mov    %rax,-0x20(%rbp)
   122f3:	48 8b 45 d0          	mov    -0x30(%rbp),%rax
   122f7:	48 89 c7             	mov    %rax,%rdi
   122fa:	e8 a5 f7 ff ff       	call   11aa4 <restore_area>
   122ff:	e8 7c ed fe ff       	call   1080 <clock@plt>
   12304:	48 89 45 e8          	mov    %rax,-0x18(%rbp)
   12308:	48 8b 45 e8          	mov    -0x18(%rbp),%rax
   1230c:	48 2b 45 e0          	sub    -0x20(%rbp),%rax
   12310:	66 0f ef c0          	pxor   %xmm0,%xmm0
   12314:	f2 48 0f 2a c0       	cvtsi2sd %rax,%xmm0
   12319:	f2 0f 10 0d 0f f0 03 00 	movsd  0x3f00f(%rip),%xmm1        # 51330 <_IO_stdin_used+0x330>
   12321:	f2 0f 5e c1          	divsd  %xmm1,%xmm0
   12325:	f2 0f 11 45 f0       	movsd  %xmm0,-0x10(%rbp)
   1232a:	eb 0f                	jmp    1233b <main+0x671>
   1232c:	fa                   	cli
   1232d:	90                   	nop
   1232e:	90                   	nop
   1232f:	90                   	nop
   12330:	90                   	nop
   12331:	fa                   	cli
   12332:	90                   	nop
   12333:	90                   	nop
   12334:	90                   	nop
   12335:	90                   	nop
   12336:	fa                   	cli
   12337:	90                   	nop
   12338:	90                   	nop
   12339:	90                   	nop
   1233a:	90                   	nop
   1233b:	48 8b 45 f0          	mov    -0x10(%rbp),%rax
   1233f:	48 8d 15 53 ef 03 00 	lea    0x3ef53(%rip),%rdx        # 51299 <_IO_stdin_used+0x299>
   12346:	66 48 0f 6e c0       	movq   %rax,%xmm0
   1234b:	48 89 d7             	mov    %rdx,%rdi
   1234e:	b8 01 00 00 00       	mov    $0x1,%eax
   12353:	e8 98 ed fe ff       	call   10f0 <printf@plt>
   12358:	48 8b 4d d8          	mov    -0x28(%rbp),%rcx
   1235c:	48 8b 45 d0          	mov    -0x30(%rbp),%rax
   12360:	ba 00 00 40 00       	mov    $0x400000,%edx
   12365:	48 89 ce             	mov    %rcx,%rsi
   12368:	48 89 c7             	mov    %rax,%rdi
   1236b:	e8 e0 ed fe ff       	call   1150 <memcmp@plt>
   12370:	89 45 a4             	mov    %eax,-0x5c(%rbp)
   12373:	eb 0f                	jmp    12384 <main+0x6ba>
   12375:	fa                   	cli
   12376:	90                   	nop
   12377:	90                   	nop
   12378:	90                   	nop
   12379:	90                   	nop
   1237a:	fa                   	cli
   1237b:	90                   	nop
   1237c:	90                   	nop
   1237d:	90                   	nop
   1237e:	90                   	nop
   1237f:	fa                   	cli
   12380:	90                   	nop
   12381:	90                   	nop
   12382:	90                   	nop
   12383:	90                   	nop
   12384:	83 7d a4 00          	cmpl   $0x0,-0x5c(%rbp)
   12388:	74 39                	je     123c3 <main+0x6f9>
   1238a:	eb 0f                	jmp    1239b <main+0x6d1>
   1238c:	fa                   	cli
   1238d:	90                   	nop
   1238e:	90                   	nop
   1238f:	90                   	nop
   12390:	90                   	nop
   12391:	fa                   	cli
   12392:	90                   	nop
   12393:	90                   	nop
   12394:	90                   	nop
   12395:	90                   	nop
   12396:	fa                   	cli
   12397:	90                   	nop
   12398:	90                   	nop
   12399:	90                   	nop
   1239a:	90                   	nop
   1239b:	48 8b 05 de 1d 04 00 	mov    0x41dde(%rip),%rax        # 54180 <stderr@GLIBC_2.2.5>
   123a2:	8b 55 a4             	mov    -0x5c(%rbp),%edx
   123a5:	48 8d 0d 0c ef 03 00 	lea    0x3ef0c(%rip),%rcx        # 512b8 <_IO_stdin_used+0x2b8>
   123ac:	48 89 ce             	mov    %rcx,%rsi
   123af:	48 89 c7             	mov    %rax,%rdi
   123b2:	b8 00 00 00 00       	mov    $0x0,%eax
   123b7:	e8 c4 ed fe ff       	call   1180 <fprintf@plt>
   123bc:	b8 01 00 00 00       	mov    $0x1,%eax
   123c1:	eb 67                	jmp    1242a <main+0x760>
   123c3:	eb 0f                	jmp    123d4 <main+0x70a>
   123c5:	fa                   	cli
   123c6:	90                   	nop
   123c7:	90                   	nop
   123c8:	90                   	nop
   123c9:	90                   	nop
   123ca:	fa                   	cli
   123cb:	90                   	nop
   123cc:	90                   	nop
   123cd:	90                   	nop
   123ce:	90                   	nop
   123cf:	fa                   	cli
   123d0:	90                   	nop
   123d1:	90                   	nop
   123d2:	90                   	nop
   123d3:	90                   	nop
   123d4:	48 8d 05 05 ef 03 00 	lea    0x3ef05(%rip),%rax        # 512e0 <_IO_stdin_used+0x2e0>
   123db:	48 89 c7             	mov    %rax,%rdi
   123de:	e8 7d ec fe ff       	call   1060 <puts@plt>
   123e3:	48 8b 45 d0          	mov    -0x30(%rbp),%rax
   123e7:	48 89 c7             	mov    %rax,%rdi
   123ea:	e8 4f f8 ff ff       	call   11c3e <clean_cache>
   123ef:	8b 4d a0             	mov    -0x60(%rbp),%ecx
   123f2:	8b 55 9c             	mov    -0x64(%rbp),%edx
   123f5:	48 8b 75 b8          	mov    -0x48(%rbp),%rsi
   123f9:	48 8b 45 d0          	mov    -0x30(%rbp),%rax
   123fd:	48 89 c7             	mov    %rax,%rdi
   12400:	e8 e4 f2 ff ff       	call   116e9 <test_no_checkpoint>
   12405:	eb 0f                	jmp    12416 <main+0x74c>
   12407:	fa                   	cli
   12408:	90                   	nop
   12409:	90                   	nop
   1240a:	90                   	nop
   1240b:	90                   	nop
   1240c:	fa                   	cli
   1240d:	90                   	nop
   1240e:	90                   	nop
   1240f:	90                   	nop
   12410:	90                   	nop
   12411:	fa                   	cli
   12412:	90                   	nop
   12413:	90                   	nop
   12414:	90                   	nop
   12415:	90                   	nop
   12416:	48 8d 05 01 ef 03 00 	lea    0x3ef01(%rip),%rax        # 5131e <_IO_stdin_used+0x31e>
   1241d:	48 89 c7             	mov    %rax,%rdi
   12420:	e8 3b ec fe ff       	call   1060 <puts@plt>
   12425:	b8 00 00 00 00       	mov    $0x0,%eax
   1242a:	48 8b 55 f8          	mov    -0x8(%rbp),%rdx
   1242e:	64 48 2b 14 25 28 00 00 00 	sub    %fs:0x28,%rdx
   12437:	74 05                	je     1243e <main+0x774>
   12439:	e8 72 ec fe ff       	call   10b0 <__stack_chk_fail@plt>
   1243e:	c9                   	leave
   1243f:	c3                   	ret
   12440:	66 2e 0f 1f 84 00 00 00 00 00 	cs nopw 0x0(%rax,%rax,1)
   1244a:	66 2e 0f 1f 84 00 00 00 00 00 	cs nopw 0x0(%rax,%rax,1)
   12454:	66 2e 0f 1f 84 00 00 00 00 00 	cs nopw 0x0(%rax,%rax,1)
   1245e:	66 2e 0f 1f 84 00 00 00 00 00 	cs nopw 0x0(%rax,%rax,1)
   12468:	66 2e 0f 1f 84 00 00 00 00 00 	cs nopw 0x0(%rax,%rax,1)
   12472:	66 2e 0f 1f 84 00 00 00 00 00 	cs nopw 0x0(%rax,%rax,1)
   1247c:	66 2e 0f 1f 84 00 00 00 00 00 	cs nopw 0x0(%rax,%rax,1)
   12486:	66 2e 0f 1f 84 00 00 00 00 00 	cs nopw 0x0(%rax,%rax,1)
   12490:	66 2e 0f 1f 84 00 00 00 00 00 	cs nopw 0x0(%rax,%rax,1)
   1249a:	66 2e 0f 1f 84 00 00 00 00 00 	cs nopw 0x0(%rax,%rax,1)
   124a4:	66 2e 0f 1f 84 00 00 00 00 00 	cs nopw 0x0(%rax,%rax,1)
   124ae:	66 2e 0f 1f 84 00 00 00 00 00 	cs nopw 0x0(%rax,%rax,1)
   124b8:	66 2e 0f 1f 84 00 00 00 00 00 	cs nopw 0x0(%rax,%rax,1)
   124c2:	66 2e 0f 1f 84 00 00 00 00 00 	cs nopw 0x0(%rax,%rax,1)
   124cc:	66 2e 0f 1f 84 00 00 00 00 00 	cs nopw 0x0(%rax,%rax,1)
   124d6:	66 2e 0f 1f 84 00 00 00 00 00 	cs nopw 0x0(%rax,%rax,1)
   124e0:	66 2e 0f 1f 84 00 00 00 00 00 	cs nopw 0x0(%rax,%rax,1)
   124ea:	66 2e 0f 1f 84 00 00 00 00 00 	cs nopw 0x0(%rax,%rax,1)
   124f4:	66 2e 0f 1f 84 00 00 00 00 00 	cs nopw 0x0(%rax,%rax,1)
   124fe:	66 2e 0f 1f 84 00 00 00 00 00 	cs nopw 0x0(%rax,%rax,1)
   12508:	66 2e 0f 1f 84 00 00 00 00 00 	cs nopw 0x0(%rax,%rax,1)
   12512:	66 2e 0f 1f 84 00 00 00 00 00 	cs nopw 0x0(%rax,%rax,1)
   1251c:	66 2e 0f 1f 84 00 00 00 00 00 	cs nopw 0x0(%rax,%rax,1)
   12526:	66 2e 0f 1f 84 00 00 00 00 00 	cs nopw 0x0(%rax,%rax,1)
   12530:	66 2e 0f 1f 84 00 00 00 00 00 	cs nopw 0x0(%rax,%rax,1)
   1253a:	66 2e 0f 1f 84 00 00 00 00 00 	cs nopw 0x0(%rax,%rax,1)
   12544:	66 2e 0f 1f 84 00 00 00 00 00 	cs nopw 0x0(%rax,%rax,1)
   1254e:	66 2e 0f 1f 84 00 00 00 00 00 	cs nopw 0x0(%rax,%rax,1)
   12558:	66 2e 0f 1f 84 00 00 00 00 00 	cs nopw 0x0(%rax,%rax,1)
   12562:	66 2e 0f 1f 84 00 00 00 00 00 	cs nopw 0x0(%rax,%rax,1)
   1256c:	66 2e 0f 1f 84 00 00 00 00 00 	cs nopw 0x0(%rax,%rax,1)
   12576:	66 2e 0f 1f 84 00 00 00 00 00 	cs nopw 0x0(%rax,%rax,1)
   12580:	66 2e 0f 1f 84 00 00 00 00 00 	cs nopw 0x0(%rax,%rax,1)
   1258a:	66 2e 0f 1f 84 00 00 00 00 00 	cs nopw 0x0(%rax,%rax,1)
   12594:	66 2e 0f 1f 84 00 00 00 00 00 	cs nopw 0x0(%rax,%rax,1)
   1259e:	66 2e 0f 1f 84 00 00 00 00 00 	cs nopw 0x0(%rax,%rax,1)
   125a8:	66 2e 0f 1f 84 00 00 00 00 00 	cs nopw 0x0(%rax,%rax,1)
   125b2:	66 2e 0f 1f 84 00 00 00 00 00 	cs nopw 0x0(%rax,%rax,1)
   125bc:	66 2e 0f 1f 84 00 00 00 00 00 	cs nopw 0x0(%rax,%rax,1)
   125c6:	66 2e 0f 1f 84 00 00 00 00 00 	cs nopw 0x0(%rax,%rax,1)
   125d0:	66 2e 0f 1f 84 00 00 00 00 00 	cs nopw 0x0(%rax,%rax,1)
   125da:	66 2e 0f 1f 84 00 00 00 00 00 	cs nopw 0x0(%rax,%rax,1)
   125e4:	66 2e 0f 1f 84 00 00 00 00 00 	cs nopw 0x0(%rax,%rax,1)
   125ee:	66 2e 0f 1f 84 00 00 00 00 00 	cs nopw 0x0(%rax,%rax,1)
   125f8:	66 2e 0f 1f 84 00 00 00 00 00 	cs nopw 0x0(%rax,%rax,1)
   12602:	66 2e 0f 1f 84 00 00 00 00 00 	cs nopw 0x0(%rax,%rax,1)
   1260c:	66 2e 0f 1f 84 00 00 00 00 00 	cs nopw 0x0(%rax,%rax,1)
   12616:	66 2e 0f 1f 84 00 00 00 00 00 	cs nopw 0x0(%rax,%rax,1)
   12620:	66 2e 0f 1f 84 00 00 00 00 00 	cs nopw 0x0(%rax,%rax,1)
   1262a:	66 2e 0f 1f 84 00 00 00 00 00 	cs nopw 0x0(%rax,%rax,1)
   12634:	66 2e 0f 1f 84 00 00 00 00 00 	cs nopw 0x0(%rax,%rax,1)
   1263e:	66 2e 0f 1f 84 00 00 00 00 00 	cs nopw 0x0(%rax,%rax,1)
   12648:	66 2e 0f 1f 84 00 00 00 00 00 	cs nopw 0x0(%rax,%rax,1)
   12652:	66 2e 0f 1f 84 00 00 00 00 00 	cs nopw 0x0(%rax,%rax,1)
   1265c:	66 2e 0f 1f 84 00 00 00 00 00 	cs nopw 0x0(%rax,%rax,1)
   12666:	66 2e 0f 1f 84 00 00 00 00 00 	cs nopw 0x0(%rax,%rax,1)
   12670:	66 2e 0f 1f 84 00 00 00 00 00 	cs nopw 0x0(%rax,%rax,1)
   1267a:	66 2e 0f 1f 84 00 00 00 00 00 	cs nopw 0x0(%rax,%rax,1)
   12684:	66 2e 0f 1f 84 00 00 00 00 00 	cs nopw 0x0(%rax,%rax,1)
   1268e:	66 2e 0f 1f 84 00 00 00 00 00 	cs nopw 0x0(%rax,%rax,1)
   12698:	66 2e 0f 1f 84 00 00 00 00 00 	cs nopw 0x0(%rax,%rax,1)
   126a2:	66 2e 0f 1f 84 00 00 00 00 00 	cs nopw 0x0(%rax,%rax,1)
   126ac:	66 2e 0f 1f 84 00 00 00 00 00 	cs nopw 0x0(%rax,%rax,1)
   126b6:	66 2e 0f 1f 84 00 00 00 00 00 	cs nopw 0x0(%rax,%rax,1)
   126c0:	66 2e 0f 1f 84 00 00 00 00 00 	cs nopw 0x0(%rax,%rax,1)
   126ca:	66 2e 0f 1f 84 00 00 00 00 00 	cs nopw 0x0(%rax,%rax,1)
   126d4:	66 2e 0f 1f 84 00 00 00 00 00 	cs nopw 0x0(%rax,%rax,1)
   126de:	66 2e 0f 1f 84 00 00 00 00 00 	cs nopw 0x0(%rax,%rax,1)
   126e8:	66 2e 0f 1f 84 00 00 00 00 00 	cs nopw 0x0(%rax,%rax,1)
   126f2:	66 2e 0f 1f 84 00 00 00 00 00 	cs nopw 0x0(%rax,%rax,1)
   126fc:	66 2e 0f 1f 84 00 00 00 00 00 	cs nopw 0x0(%rax,%rax,1)
   12706:	66 2e 0f 1f 84 00 00 00 00 00 	cs nopw 0x0(%rax,%rax,1)
   12710:	66 2e 0f 1f 84 00 00 00 00 00 	cs nopw 0x0(%rax,%rax,1)
   1271a:	66 2e 0f 1f 84 00 00 00 00 00 	cs nopw 0x0(%rax,%rax,1)
   12724:	66 2e 0f 1f 84 00 00 00 00 00 	cs nopw 0x0(%rax,%rax,1)
   1272e:	66 2e 0f 1f 84 00 00 00 00 00 	cs nopw 0x0(%rax,%rax,1)
   12738:	66 2e 0f 1f 84 00 00 00 00 00 	cs nopw 0x0(%rax,%rax,1)
   12742:	66 2e 0f 1f 84 00 00 00 00 00 	cs nopw 0x0(%rax,%rax,1)
   1274c:	66 2e 0f 1f 84 00 00 00 00 00 	cs nopw 0x0(%rax,%rax,1)
   12756:	66 2e 0f 1f 84 00 00 00 00 00 	cs nopw 0x0(%rax,%rax,1)
   12760:	66 2e 0f 1f 84 00 00 00 00 00 	cs nopw 0x0(%rax,%rax,1)
   1276a:	66 2e 0f 1f 84 00 00 00 00 00 	cs nopw 0x0(%rax,%rax,1)
   12774:	66 2e 0f 1f 84 00 00 00 00 00 	cs nopw 0x0(%rax,%rax,1)
   1277e:	66 2e 0f 1f 84 00 00 00 00 00 	cs nopw 0x0(%rax,%rax,1)
   12788:	66 2e 0f 1f 84 00 00 00 00 00 	cs nopw 0x0(%rax,%rax,1)
   12792:	66 2e 0f 1f 84 00 00 00 00 00 	cs nopw 0x0(%rax,%rax,1)
   1279c:	66 2e 0f 1f 84 00 00 00 00 00 	cs nopw 0x0(%rax,%rax,1)
   127a6:	66 2e 0f 1f 84 00 00 00 00 00 	cs nopw 0x0(%rax,%rax,1)
   127b0:	66 2e 0f 1f 84 00 00 00 00 00 	cs nopw 0x0(%rax,%rax,1)
   127ba:	66 2e 0f 1f 84 00 00 00 00 00 	cs nopw 0x0(%rax,%rax,1)
   127c4:	66 2e 0f 1f 84 00 00 00 00 00 	cs nopw 0x0(%rax,%rax,1)
   127ce:	66 2e 0f 1f 84 00 00 00 00 00 	cs nopw 0x0(%rax,%rax,1)
   127d8:	66 2e 0f 1f 84 00 00 00 00 00 	cs nopw 0x0(%rax,%rax,1)
   127e2:	66 2e 0f 1f 84 00 00 00 00 00 	cs nopw 0x0(%rax,%rax,1)
   127ec:	66 2e 0f 1f 84 00 00 00 00 00 	cs nopw 0x0(%rax,%rax,1)
   127f6:	66 2e 0f 1f 84 00 00 00 00 00 	cs nopw 0x0(%rax,%rax,1)
   12800:	66 2e 0f 1f 84 00 00 00 00 00 	cs nopw 0x0(%rax,%rax,1)
   1280a:	66 2e 0f 1f 84 00 00 00 00 00 	cs nopw 0x0(%rax,%rax,1)
   12814:	66 2e 0f 1f 84 00 00 00 00 00 	cs nopw 0x0(%rax,%rax,1)
   1281e:	66 2e 0f 1f 84 00 00 00 00 00 	cs nopw 0x0(%rax,%rax,1)
   12828:	66 2e 0f 1f 84 00 00 00 00 00 	cs nopw 0x0(%rax,%rax,1)
   12832:	66 2e 0f 1f 84 00 00 00 00 00 	cs nopw 0x0(%rax,%rax,1)
   1283c:	66 2e 0f 1f 84 00 00 00 00 00 	cs nopw 0x0(%rax,%rax,1)
   12846:	66 2e 0f 1f 84 00 00 00 00 00 	cs nopw 0x0(%rax,%rax,1)
   12850:	66 2e 0f 1f 84 00 00 00 00 00 	cs nopw 0x0(%rax,%rax,1)
   1285a:	66 2e 0f 1f 84 00 00 00 00 00 	cs nopw 0x0(%rax,%rax,1)
   12864:	66 2e 0f 1f 84 00 00 00 00 00 	cs nopw 0x0(%rax,%rax,1)
   1286e:	66 2e 0f 1f 84 00 00 00 00 00 	cs nopw 0x0(%rax,%rax,1)
   12878:	66 2e 0f 1f 84 00 00 00 00 00 	cs nopw 0x0(%rax,%rax,1)
   12882:	66 2e 0f 1f 84 00 00 00 00 00 	cs nopw 0x0(%rax,%rax,1)
   1288c:	66 2e 0f 1f 84 00 00 00 00 00 	cs nopw 0x0(%rax,%rax,1)
   12896:	66 2e 0f 1f 84 00 00 00 00 00 	cs nopw 0x0(%rax,%rax,1)
   128a0:	66 2e 0f 1f 84 00 00 00 00 00 	cs nopw 0x0(%rax,%rax,1)
   128aa:	66 2e 0f 1f 84 00 00 00 00 00 	cs nopw 0x0(%rax,%rax,1)
   128b4:	66 2e 0f 1f 84 00 00 00 00 00 	cs nopw 0x0(%rax,%rax,1)
   128be:	66 2e 0f 1f 84 00 00 00 00 00 	cs nopw 0x0(%rax,%rax,1)
   128c8:	66 2e 0f 1f 84 00 00 00 00 00 	cs nopw 0x0(%rax,%rax,1)
   128d2:	66 2e 0f 1f 84 00 00 00 00 00 	cs nopw 0x0(%rax,%rax,1)
   128dc:	66 2e 0f 1f 84 00 00 00 00 00 	cs nopw 0x0(%rax,%rax,1)
   128e6:	66 2e 0f 1f 84 00 00 00 00 00 	cs nopw 0x0(%rax,%rax,1)
   128f0:	66 2e 0f 1f 84 00 00 00 00 00 	cs nopw 0x0(%rax,%rax,1)
   128fa:	66 2e 0f 1f 84 00 00 00 00 00 	cs nopw 0x0(%rax,%rax,1)
   12904:	66 2e 0f 1f 84 00 00 00 00 00 	cs nopw 0x0(%rax,%rax,1)
   1290e:	66 2e 0f 1f 84 00 00 00 00 00 	cs nopw 0x0(%rax,%rax,1)
   12918:	66 2e 0f 1f 84 00 00 00 00 00 	cs nopw 0x0(%rax,%rax,1)
   12922:	66 2e 0f 1f 84 00 00 00 00 00 	cs nopw 0x0(%rax,%rax,1)
   1292c:	66 2e 0f 1f 84 00 00 00 00 00 	cs nopw 0x0(%rax,%rax,1)
   12936:	66 2e 0f 1f 84 00 00 00 00 00 	cs nopw 0x0(%rax,%rax,1)
   12940:	66 2e 0f 1f 84 00 00 00 00 00 	cs nopw 0x0(%rax,%rax,1)
   1294a:	66 2e 0f 1f 84 00 00 00 00 00 	cs nopw 0x0(%rax,%rax,1)
   12954:	66 2e 0f 1f 84 00 00 00 00 00 	cs nopw 0x0(%rax,%rax,1)
   1295e:	66 2e 0f 1f 84 00 00 00 00 00 	cs nopw 0x0(%rax,%rax,1)
   12968:	66 2e 0f 1f 84 00 00 00 00 00 	cs nopw 0x0(%rax,%rax,1)
   12972:	66 2e 0f 1f 84 00 00 00 00 00 	cs nopw 0x0(%rax,%rax,1)
   1297c:	66 2e 0f 1f 84 00 00 00 00 00 	cs nopw 0x0(%rax,%rax,1)
   12986:	66 2e 0f 1f 84 00 00 00 00 00 	cs nopw 0x0(%rax,%rax,1)
   12990:	66 2e 0f 1f 84 00 00 00 00 00 	cs nopw 0x0(%rax,%rax,1)
   1299a:	66 2e 0f 1f 84 00 00 00 00 00 	cs nopw 0x0(%rax,%rax,1)
   129a4:	66 2e 0f 1f 84 00 00 00 00 00 	cs nopw 0x0(%rax,%rax,1)
   129ae:	66 2e 0f 1f 84 00 00 00 00 00 	cs nopw 0x0(%rax,%rax,1)
   129b8:	66 2e 0f 1f 84 00 00 00 00 00 	cs nopw 0x0(%rax,%rax,1)
   129c2:	66 2e 0f 1f 84 00 00 00 00 00 	cs nopw 0x0(%rax,%rax,1)
   129cc:	66 2e 0f 1f 84 00 00 00 00 00 	cs nopw 0x0(%rax,%rax,1)
   129d6:	66 2e 0f 1f 84 00 00 00 00 00 	cs nopw 0x0(%rax,%rax,1)
   129e0:	66 2e 0f 1f 84 00 00 00 00 00 	cs nopw 0x0(%rax,%rax,1)
   129ea:	66 2e 0f 1f 84 00 00 00 00 00 	cs nopw 0x0(%rax,%rax,1)
   129f4:	66 2e 0f 1f 84 00 00 00 00 00 	cs nopw 0x0(%rax,%rax,1)
   129fe:	66 2e 0f 1f 84 00 00 00 00 00 	cs nopw 0x0(%rax,%rax,1)
   12a08:	66 2e 0f 1f 84 00 00 00 00 00 	cs nopw 0x0(%rax,%rax,1)
   12a12:	66 2e 0f 1f 84 00 00 00 00 00 	cs nopw 0x0(%rax,%rax,1)
   12a1c:	66 2e 0f 1f 84 00 00 00 00 00 	cs nopw 0x0(%rax,%rax,1)
   12a26:	66 2e 0f 1f 84 00 00 00 00 00 	cs nopw 0x0(%rax,%rax,1)
   12a30:	66 2e 0f 1f 84 00 00 00 00 00 	cs nopw 0x0(%rax,%rax,1)
   12a3a:	66 2e 0f 1f 84 00 00 00 00 00 	cs nopw 0x0(%rax,%rax,1)
   12a44:	66 2e 0f 1f 84 00 00 00 00 00 	cs nopw 0x0(%rax,%rax,1)
   12a4e:	66 2e 0f 1f 84 00 00 00 00 00 	cs nopw 0x0(%rax,%rax,1)
   12a58:	66 2e 0f 1f 84 00 00 00 00 00 	cs nopw 0x0(%rax,%rax,1)
   12a62:	66 2e 0f 1f 84 00 00 00 00 00 	cs nopw 0x0(%rax,%rax,1)
   12a6c:	66 2e 0f 1f 84 00 00 00 00 00 	cs nopw 0x0(%rax,%rax,1)
   12a76:	66 2e 0f 1f 84 00 00 00 00 00 	cs nopw 0x0(%rax,%rax,1)
   12a80:	66 2e 0f 1f 84 00 00 00 00 00 	cs nopw 0x0(%rax,%rax,1)
   12a8a:	66 2e 0f 1f 84 00 00 00 00 00 	cs nopw 0x0(%rax,%rax,1)
   12a94:	66 2e 0f 1f 84 00 00 00 00 00 	cs nopw 0x0(%rax,%rax,1)
   12a9e:	66 2e 0f 1f 84 00 00 00 00 00 	cs nopw 0x0(%rax,%rax,1)
   12aa8:	66 2e 0f 1f 84 00 00 00 00 00 	cs nopw 0x0(%rax,%rax,1)
   12ab2:	66 2e 0f 1f 84 00 00 00 00 00 	cs nopw 0x0(%rax,%rax,1)
   12abc:	66 2e 0f 1f 84 00 00 00 00 00 	cs nopw 0x0(%rax,%rax,1)
   12ac6:	66 2e 0f 1f 84 00 00 00 00 00 	cs nopw 0x0(%rax,%rax,1)
   12ad0:	66 2e 0f 1f 84 00 00 00 00 00 	cs nopw 0x0(%rax,%rax,1)
   12ada:	66 2e 0f 1f 84 00 00 00 00 00 	cs nopw 0x0(%rax,%rax,1)
   12ae4:	66 2e 0f 1f 84 00 00 00 00 00 	cs nopw 0x0(%rax,%rax,1)
   12aee:	66 2e 0f 1f 84 00 00 00 00 00 	cs nopw 0x0(%rax,%rax,1)
   12af8:	66 2e 0f 1f 84 00 00 00 00 00 	cs nopw 0x0(%rax,%rax,1)
   12b02:	66 2e 0f 1f 84 00 00 00 00 00 	cs nopw 0x0(%rax,%rax,1)
   12b0c:	66 2e 0f 1f 84 00 00 00 00 00 	cs nopw 0x0(%rax,%rax,1)
   12b16:	66 2e 0f 1f 84 00 00 00 00 00 	cs nopw 0x0(%rax,%rax,1)
   12b20:	66 2e 0f 1f 84 00 00 00 00 00 	cs nopw 0x0(%rax,%rax,1)
   12b2a:	66 2e 0f 1f 84 00 00 00 00 00 	cs nopw 0x0(%rax,%rax,1)
   12b34:	66 2e 0f 1f 84 00 00 00 00 00 	cs nopw 0x0(%rax,%rax,1)
   12b3e:	66 2e 0f 1f 84 00 00 00 00 00 	cs nopw 0x0(%rax,%rax,1)
   12b48:	66 2e 0f 1f 84 00 00 00 00 00 	cs nopw 0x0(%rax,%rax,1)
   12b52:	66 2e 0f 1f 84 00 00 00 00 00 	cs nopw 0x0(%rax,%rax,1)
   12b5c:	66 2e 0f 1f 84 00 00 00 00 00 	cs nopw 0x0(%rax,%rax,1)
   12b66:	66 2e 0f 1f 84 00 00 00 00 00 	cs nopw 0x0(%rax,%rax,1)
   12b70:	66 2e 0f 1f 84 00 00 00 00 00 	cs nopw 0x0(%rax,%rax,1)
   12b7a:	66 2e 0f 1f 84 00 00 00 00 00 	cs nopw 0x0(%rax,%rax,1)
   12b84:	66 2e 0f 1f 84 00 00 00 00 00 	cs nopw 0x0(%rax,%rax,1)
   12b8e:	66 2e 0f 1f 84 00 00 00 00 00 	cs nopw 0x0(%rax,%rax,1)
   12b98:	66 2e 0f 1f 84 00 00 00 00 00 	cs nopw 0x0(%rax,%rax,1)
   12ba2:	66 2e 0f 1f 84 00 00 00 00 00 	cs nopw 0x0(%rax,%rax,1)
   12bac:	66 2e 0f 1f 84 00 00 00 00 00 	cs nopw 0x0(%rax,%rax,1)
   12bb6:	66 2e 0f 1f 84 00 00 00 00 00 	cs nopw 0x0(%rax,%rax,1)
   12bc0:	66 2e 0f 1f 84 00 00 00 00 00 	cs nopw 0x0(%rax,%rax,1)
   12bca:	66 2e 0f 1f 84 00 00 00 00 00 	cs nopw 0x0(%rax,%rax,1)
   12bd4:	66 2e 0f 1f 84 00 00 00 00 00 	cs nopw 0x0(%rax,%rax,1)
   12bde:	66 2e 0f 1f 84 00 00 00 00 00 	cs nopw 0x0(%rax,%rax,1)
   12be8:	66 2e 0f 1f 84 00 00 00 00 00 	cs nopw 0x0(%rax,%rax,1)
   12bf2:	66 2e 0f 1f 84 00 00 00 00 00 	cs nopw 0x0(%rax,%rax,1)
   12bfc:	66 2e 0f 1f 84 00 00 00 00 00 	cs nopw 0x0(%rax,%rax,1)
   12c06:	66 2e 0f 1f 84 00 00 00 00 00 	cs nopw 0x0(%rax,%rax,1)
   12c10:	66 2e 0f 1f 84 00 00 00 00 00 	cs nopw 0x0(%rax,%rax,1)
   12c1a:	66 2e 0f 1f 84 00 00 00 00 00 	cs nopw 0x0(%rax,%rax,1)
   12c24:	66 2e 0f 1f 84 00 00 00 00 00 	cs nopw 0x0(%rax,%rax,1)
   12c2e:	66 2e 0f 1f 84 00 00 00 00 00 	cs nopw 0x0(%rax,%rax,1)
   12c38:	66 2e 0f 1f 84 00 00 00 00 00 	cs nopw 0x0(%rax,%rax,1)
   12c42:	66 2e 0f 1f 84 00 00 00 00 00 	cs nopw 0x0(%rax,%rax,1)
   12c4c:	66 2e 0f 1f 84 00 00 00 00 00 	cs nopw 0x0(%rax,%rax,1)
   12c56:	66 2e 0f 1f 84 00 00 00 00 00 	cs nopw 0x0(%rax,%rax,1)
   12c60:	66 2e 0f 1f 84 00 00 00 00 00 	cs nopw 0x0(%rax,%rax,1)
   12c6a:	66 2e 0f 1f 84 00 00 00 00 00 	cs nopw 0x0(%rax,%rax,1)
   12c74:	66 2e 0f 1f 84 00 00 00 00 00 	cs nopw 0x0(%rax,%rax,1)
   12c7e:	66 2e 0f 1f 84 00 00 00 00 00 	cs nopw 0x0(%rax,%rax,1)
   12c88:	66 2e 0f 1f 84 00 00 00 00 00 	cs nopw 0x0(%rax,%rax,1)
   12c92:	66 2e 0f 1f 84 00 00 00 00 00 	cs nopw 0x0(%rax,%rax,1)
   12c9c:	66 2e 0f 1f 84 00 00 00 00 00 	cs nopw 0x0(%rax,%rax,1)
   12ca6:	66 2e 0f 1f 84 00 00 00 00 00 	cs nopw 0x0(%rax,%rax,1)
   12cb0:	66 2e 0f 1f 84 00 00 00 00 00 	cs nopw 0x0(%rax,%rax,1)
   12cba:	66 2e 0f 1f 84 00 00 00 00 00 	cs nopw 0x0(%rax,%rax,1)
   12cc4:	66 2e 0f 1f 84 00 00 00 00 00 	cs nopw 0x0(%rax,%rax,1)
   12cce:	66 2e 0f 1f 84 00 00 00 00 00 	cs nopw 0x0(%rax,%rax,1)
   12cd8:	66 2e 0f 1f 84 00 00 00 00 00 	cs nopw 0x0(%rax,%rax,1)
   12ce2:	66 2e 0f 1f 84 00 00 00 00 00 	cs nopw 0x0(%rax,%rax,1)
   12cec:	66 2e 0f 1f 84 00 00 00 00 00 	cs nopw 0x0(%rax,%rax,1)
   12cf6:	66 2e 0f 1f 84 00 00 00 00 00 	cs nopw 0x0(%rax,%rax,1)
   12d00:	66 2e 0f 1f 84 00 00 00 00 00 	cs nopw 0x0(%rax,%rax,1)
   12d0a:	66 2e 0f 1f 84 00 00 00 00 00 	cs nopw 0x0(%rax,%rax,1)
   12d14:	66 2e 0f 1f 84 00 00 00 00 00 	cs nopw 0x0(%rax,%rax,1)
   12d1e:	66 2e 0f 1f 84 00 00 00 00 00 	cs nopw 0x0(%rax,%rax,1)
   12d28:	66 2e 0f 1f 84 00 00 00 00 00 	cs nopw 0x0(%rax,%rax,1)
   12d32:	66 2e 0f 1f 84 00 00 00 00 00 	cs nopw 0x0(%rax,%rax,1)
   12d3c:	66 2e 0f 1f 84 00 00 00 00 00 	cs nopw 0x0(%rax,%rax,1)
   12d46:	66 2e 0f 1f 84 00 00 00 00 00 	cs nopw 0x0(%rax,%rax,1)
   12d50:	66 2e 0f 1f 84 00 00 00 00 00 	cs nopw 0x0(%rax,%rax,1)
   12d5a:	66 2e 0f 1f 84 00 00 00 00 00 	cs nopw 0x0(%rax,%rax,1)
   12d64:	66 2e 0f 1f 84 00 00 00 00 00 	cs nopw 0x0(%rax,%rax,1)
   12d6e:	66 2e 0f 1f 84 00 00 00 00 00 	cs nopw 0x0(%rax,%rax,1)
   12d78:	66 2e 0f 1f 84 00 00 00 00 00 	cs nopw 0x0(%rax,%rax,1)
   12d82:	66 2e 0f 1f 84 00 00 00 00 00 	cs nopw 0x0(%rax,%rax,1)
   12d8c:	66 2e 0f 1f 84 00 00 00 00 00 	cs nopw 0x0(%rax,%rax,1)
   12d96:	66 2e 0f 1f 84 00 00 00 00 00 	cs nopw 0x0(%rax,%rax,1)
   12da0:	66 2e 0f 1f 84 00 00 00 00 00 	cs nopw 0x0(%rax,%rax,1)
   12daa:	66 2e 0f 1f 84 00 00 00 00 00 	cs nopw 0x0(%rax,%rax,1)
   12db4:	66 2e 0f 1f 84 00 00 00 00 00 	cs nopw 0x0(%rax,%rax,1)
   12dbe:	66 2e 0f 1f 84 00 00 00 00 00 	cs nopw 0x0(%rax,%rax,1)
   12dc8:	66 2e 0f 1f 84 00 00 00 00 00 	cs nopw 0x0(%rax,%rax,1)
   12dd2:	66 2e 0f 1f 84 00 00 00 00 00 	cs nopw 0x0(%rax,%rax,1)
   12ddc:	66 2e 0f 1f 84 00 00 00 00 00 	cs nopw 0x0(%rax,%rax,1)
   12de6:	66 2e 0f 1f 84 00 00 00 00 00 	cs nopw 0x0(%rax,%rax,1)
   12df0:	66 2e 0f 1f 84 00 00 00 00 00 	cs nopw 0x0(%rax,%rax,1)
   12dfa:	66 2e 0f 1f 84 00 00 00 00 00 	cs nopw 0x0(%rax,%rax,1)
   12e04:	66 2e 0f 1f 84 00 00 00 00 00 	cs nopw 0x0(%rax,%rax,1)
   12e0e:	66 2e 0f 1f 84 00 00 00 00 00 	cs nopw 0x0(%rax,%rax,1)
   12e18:	66 2e 0f 1f 84 00 00 00 00 00 	cs nopw 0x0(%rax,%rax,1)
   12e22:	66 2e 0f 1f 84 00 00 00 00 00 	cs nopw 0x0(%rax,%rax,1)
   12e2c:	66 2e 0f 1f 84 00 00 00 00 00 	cs nopw 0x0(%rax,%rax,1)
   12e36:	66 2e 0f 1f 84 00 00 00 00 00 	cs nopw 0x0(%rax,%rax,1)
   12e40:	66 2e 0f 1f 84 00 00 00 00 00 	cs nopw 0x0(%rax,%rax,1)
   12e4a:	66 2e 0f 1f 84 00 00 00 00 00 	cs nopw 0x0(%rax,%rax,1)
   12e54:	66 2e 0f 1f 84 00 00 00 00 00 	cs nopw 0x0(%rax,%rax,1)
   12e5e:	66 2e 0f 1f 84 00 00 00 00 00 	cs nopw 0x0(%rax,%rax,1)
   12e68:	66 2e 0f 1f 84 00 00 00 00 00 	cs nopw 0x0(%rax,%rax,1)
   12e72:	66 2e 0f 1f 84 00 00 00 00 00 	cs nopw 0x0(%rax,%rax,1)
   12e7c:	66 2e 0f 1f 84 00 00 00 00 00 	cs nopw 0x0(%rax,%rax,1)
   12e86:	66 2e 0f 1f 84 00 00 00 00 00 	cs nopw 0x0(%rax,%rax,1)
   12e90:	66 2e 0f 1f 84 00 00 00 00 00 	cs nopw 0x0(%rax,%rax,1)
   12e9a:	66 2e 0f 1f 84 00 00 00 00 00 	cs nopw 0x0(%rax,%rax,1)
   12ea4:	66 2e 0f 1f 84 00 00 00 00 00 	cs nopw 0x0(%rax,%rax,1)
   12eae:	66 2e 0f 1f 84 00 00 00 00 00 	cs nopw 0x0(%rax,%rax,1)
   12eb8:	66 2e 0f 1f 84 00 00 00 00 00 	cs nopw 0x0(%rax,%rax,1)
   12ec2:	66 2e 0f 1f 84 00 00 00 00 00 	cs nopw 0x0(%rax,%rax,1)
   12ecc:	66 2e 0f 1f 84 00 00 00 00 00 	cs nopw 0x0(%rax,%rax,1)
   12ed6:	66 2e 0f 1f 84 00 00 00 00 00 	cs nopw 0x0(%rax,%rax,1)
   12ee0:	66 2e 0f 1f 84 00 00 00 00 00 	cs nopw 0x0(%rax,%rax,1)
   12eea:	66 2e 0f 1f 84 00 00 00 00 00 	cs nopw 0x0(%rax,%rax,1)
   12ef4:	66 2e 0f 1f 84 00 00 00 00 00 	cs nopw 0x0(%rax,%rax,1)
   12efe:	66 2e 0f 1f 84 00 00 00 00 00 	cs nopw 0x0(%rax,%rax,1)
   12f08:	66 2e 0f 1f 84 00 00 00 00 00 	cs nopw 0x0(%rax,%rax,1)
   12f12:	66 2e 0f 1f 84 00 00 00 00 00 	cs nopw 0x0(%rax,%rax,1)
   12f1c:	66 2e 0f 1f 84 00 00 00 00 00 	cs nopw 0x0(%rax,%rax,1)
   12f26:	66 2e 0f 1f 84 00 00 00 00 00 	cs nopw 0x0(%rax,%rax,1)
   12f30:	66 2e 0f 1f 84 00 00 00 00 00 	cs nopw 0x0(%rax,%rax,1)
   12f3a:	66 2e 0f 1f 84 00 00 00 00 00 	cs nopw 0x0(%rax,%rax,1)
   12f44:	66 2e 0f 1f 84 00 00 00 00 00 	cs nopw 0x0(%rax,%rax,1)
   12f4e:	66 2e 0f 1f 84 00 00 00 00 00 	cs nopw 0x0(%rax,%rax,1)
   12f58:	66 2e 0f 1f 84 00 00 00 00 00 	cs nopw 0x0(%rax,%rax,1)
   12f62:	66 2e 0f 1f 84 00 00 00 00 00 	cs nopw 0x0(%rax,%rax,1)
   12f6c:	66 2e 0f 1f 84 00 00 00 00 00 	cs nopw 0x0(%rax,%rax,1)
   12f76:	66 2e 0f 1f 84 00 00 00 00 00 	cs nopw 0x0(%rax,%rax,1)
   12f80:	66 2e 0f 1f 84 00 00 00 00 00 	cs nopw 0x0(%rax,%rax,1)
   12f8a:	66 2e 0f 1f 84 00 00 00 00 00 	cs nopw 0x0(%rax,%rax,1)
   12f94:	66 2e 0f 1f 84 00 00 00 00 00 	cs nopw 0x0(%rax,%rax,1)
   12f9e:	66 2e 0f 1f 84 00 00 00 00 00 	cs nopw 0x0(%rax,%rax,1)
   12fa8:	66 2e 0f 1f 84 00 00 00 00 00 	cs nopw 0x0(%rax,%rax,1)
   12fb2:	66 2e 0f 1f 84 00 00 00 00 00 	cs nopw 0x0(%rax,%rax,1)
   12fbc:	66 2e 0f 1f 84 00 00 00 00 00 	cs nopw 0x0(%rax,%rax,1)
   12fc6:	66 2e 0f 1f 84 00 00 00 00 00 	cs nopw 0x0(%rax,%rax,1)
   12fd0:	66 2e 0f 1f 84 00 00 00 00 00 	cs nopw 0x0(%rax,%rax,1)
   12fda:	66 2e 0f 1f 84 00 00 00 00 00 	cs nopw 0x0(%rax,%rax,1)
   12fe4:	66 2e 0f 1f 84 00 00 00 00 00 	cs nopw 0x0(%rax,%rax,1)
   12fee:	66 2e 0f 1f 84 00 00 00 00 00 	cs nopw 0x0(%rax,%rax,1)
   12ff8:	66 2e 0f 1f 84 00 00 00 00 00 	cs nopw 0x0(%rax,%rax,1)
   13002:	66 2e 0f 1f 84 00 00 00 00 00 	cs nopw 0x0(%rax,%rax,1)
   1300c:	66 2e 0f 1f 84 00 00 00 00 00 	cs nopw 0x0(%rax,%rax,1)
   13016:	66 2e 0f 1f 84 00 00 00 00 00 	cs nopw 0x0(%rax,%rax,1)
   13020:	66 2e 0f 1f 84 00 00 00 00 00 	cs nopw 0x0(%rax,%rax,1)
   1302a:	66 2e 0f 1f 84 00 00 00 00 00 	cs nopw 0x0(%rax,%rax,1)
   13034:	66 2e 0f 1f 84 00 00 00 00 00 	cs nopw 0x0(%rax,%rax,1)
   1303e:	66 2e 0f 1f 84 00 00 00 00 00 	cs nopw 0x0(%rax,%rax,1)
   13048:	66 2e 0f 1f 84 00 00 00 00 00 	cs nopw 0x0(%rax,%rax,1)
   13052:	66 2e 0f 1f 84 00 00 00 00 00 	cs nopw 0x0(%rax,%rax,1)
   1305c:	66 2e 0f 1f 84 00 00 00 00 00 	cs nopw 0x0(%rax,%rax,1)
   13066:	66 2e 0f 1f 84 00 00 00 00 00 	cs nopw 0x0(%rax,%rax,1)
   13070:	66 2e 0f 1f 84 00 00 00 00 00 	cs nopw 0x0(%rax,%rax,1)
   1307a:	66 2e 0f 1f 84 00 00 00 00 00 	cs nopw 0x0(%rax,%rax,1)
   13084:	66 2e 0f 1f 84 00 00 00 00 00 	cs nopw 0x0(%rax,%rax,1)
   1308e:	66 2e 0f 1f 84 00 00 00 00 00 	cs nopw 0x0(%rax,%rax,1)
   13098:	66 2e 0f 1f 84 00 00 00 00 00 	cs nopw 0x0(%rax,%rax,1)
   130a2:	66 2e 0f 1f 84 00 00 00 00 00 	cs nopw 0x0(%rax,%rax,1)
   130ac:	66 2e 0f 1f 84 00 00 00 00 00 	cs nopw 0x0(%rax,%rax,1)
   130b6:	66 2e 0f 1f 84 00 00 00 00 00 	cs nopw 0x0(%rax,%rax,1)
   130c0:	66 2e 0f 1f 84 00 00 00 00 00 	cs nopw 0x0(%rax,%rax,1)
   130ca:	66 2e 0f 1f 84 00 00 00 00 00 	cs nopw 0x0(%rax,%rax,1)
   130d4:	66 2e 0f 1f 84 00 00 00 00 00 	cs nopw 0x0(%rax,%rax,1)
   130de:	66 2e 0f 1f 84 00 00 00 00 00 	cs nopw 0x0(%rax,%rax,1)
   130e8:	66 2e 0f 1f 84 00 00 00 00 00 	cs nopw 0x0(%rax,%rax,1)
   130f2:	66 2e 0f 1f 84 00 00 00 00 00 	cs nopw 0x0(%rax,%rax,1)
   130fc:	66 2e 0f 1f 84 00 00 00 00 00 	cs nopw 0x0(%rax,%rax,1)
   13106:	66 2e 0f 1f 84 00 00 00 00 00 	cs nopw 0x0(%rax,%rax,1)
   13110:	66 2e 0f 1f 84 00 00 00 00 00 	cs nopw 0x0(%rax,%rax,1)
   1311a:	66 2e 0f 1f 84 00 00 00 00 00 	cs nopw 0x0(%rax,%rax,1)
   13124:	66 2e 0f 1f 84 00 00 00 00 00 	cs nopw 0x0(%rax,%rax,1)
   1312e:	66 2e 0f 1f 84 00 00 00 00 00 	cs nopw 0x0(%rax,%rax,1)
   13138:	66 2e 0f 1f 84 00 00 00 00 00 	cs nopw 0x0(%rax,%rax,1)
   13142:	66 2e 0f 1f 84 00 00 00 00 00 	cs nopw 0x0(%rax,%rax,1)
   1314c:	66 2e 0f 1f 84 00 00 00 00 00 	cs nopw 0x0(%rax,%rax,1)
   13156:	66 2e 0f 1f 84 00 00 00 00 00 	cs nopw 0x0(%rax,%rax,1)
   13160:	66 2e 0f 1f 84 00 00 00 00 00 	cs nopw 0x0(%rax,%rax,1)
   1316a:	66 2e 0f 1f 84 00 00 00 00 00 	cs nopw 0x0(%rax,%rax,1)
   13174:	66 2e 0f 1f 84 00 00 00 00 00 	cs nopw 0x0(%rax,%rax,1)
   1317e:	66 2e 0f 1f 84 00 00 00 00 00 	cs nopw 0x0(%rax,%rax,1)
   13188:	66 2e 0f 1f 84 00 00 00 00 00 	cs nopw 0x0(%rax,%rax,1)
   13192:	66 2e 0f 1f 84 00 00 00 00 00 	cs nopw 0x0(%rax,%rax,1)
   1319c:	66 2e 0f 1f 84 00 00 00 00 00 	cs nopw 0x0(%rax,%rax,1)
   131a6:	66 2e 0f 1f 84 00 00 00 00 00 	cs nopw 0x0(%rax,%rax,1)
   131b0:	66 2e 0f 1f 84 00 00 00 00 00 	cs nopw 0x0(%rax,%rax,1)
   131ba:	66 2e 0f 1f 84 00 00 00 00 00 	cs nopw 0x0(%rax,%rax,1)
   131c4:	66 2e 0f 1f 84 00 00 00 00 00 	cs nopw 0x0(%rax,%rax,1)
   131ce:	66 2e 0f 1f 84 00 00 00 00 00 	cs nopw 0x0(%rax,%rax,1)
   131d8:	66 2e 0f 1f 84 00 00 00 00 00 	cs nopw 0x0(%rax,%rax,1)
   131e2:	66 2e 0f 1f 84 00 00 00 00 00 	cs nopw 0x0(%rax,%rax,1)
   131ec:	66 2e 0f 1f 84 00 00 00 00 00 	cs nopw 0x0(%rax,%rax,1)
   131f6:	66 2e 0f 1f 84 00 00 00 00 00 	cs nopw 0x0(%rax,%rax,1)
   13200:	66 2e 0f 1f 84 00 00 00 00 00 	cs nopw 0x0(%rax,%rax,1)
   1320a:	66 2e 0f 1f 84 00 00 00 00 00 	cs nopw 0x0(%rax,%rax,1)
   13214:	66 2e 0f 1f 84 00 00 00 00 00 	cs nopw 0x0(%rax,%rax,1)
   1321e:	66 2e 0f 1f 84 00 00 00 00 00 	cs nopw 0x0(%rax,%rax,1)
   13228:	66 2e 0f 1f 84 00 00 00 00 00 	cs nopw 0x0(%rax,%rax,1)
   13232:	66 2e 0f 1f 84 00 00 00 00 00 	cs nopw 0x0(%rax,%rax,1)
   1323c:	66 2e 0f 1f 84 00 00 00 00 00 	cs nopw 0x0(%rax,%rax,1)
   13246:	66 2e 0f 1f 84 00 00 00 00 00 	cs nopw 0x0(%rax,%rax,1)
   13250:	66 2e 0f 1f 84 00 00 00 00 00 	cs nopw 0x0(%rax,%rax,1)
   1325a:	66 2e 0f 1f 84 00 00 00 00 00 	cs nopw 0x0(%rax,%rax,1)
   13264:	66 2e 0f 1f 84 00 00 00 00 00 	cs nopw 0x0(%rax,%rax,1)
   1326e:	66 2e 0f 1f 84 00 00 00 00 00 	cs nopw 0x0(%rax,%rax,1)
   13278:	66 2e 0f 1f 84 00 00 00 00 00 	cs nopw 0x0(%rax,%rax,1)
   13282:	66 2e 0f 1f 84 00 00 00 00 00 	cs nopw 0x0(%rax,%rax,1)
   1328c:	66 2e 0f 1f 84 00 00 00 00 00 	cs nopw 0x0(%rax,%rax,1)
   13296:	66 2e 0f 1f 84 00 00 00 00 00 	cs nopw 0x0(%rax,%rax,1)
   132a0:	66 2e 0f 1f 84 00 00 00 00 00 	cs nopw 0x0(%rax,%rax,1)
   132aa:	66 2e 0f 1f 84 00 00 00 00 00 	cs nopw 0x0(%rax,%rax,1)
   132b4:	66 2e 0f 1f 84 00 00 00 00 00 	cs nopw 0x0(%rax,%rax,1)
   132be:	66 2e 0f 1f 84 00 00 00 00 00 	cs nopw 0x0(%rax,%rax,1)
   132c8:	66 2e 0f 1f 84 00 00 00 00 00 	cs nopw 0x0(%rax,%rax,1)
   132d2:	66 2e 0f 1f 84 00 00 00 00 00 	cs nopw 0x0(%rax,%rax,1)
   132dc:	66 2e 0f 1f 84 00 00 00 00 00 	cs nopw 0x0(%rax,%rax,1)
   132e6:	66 2e 0f 1f 84 00 00 00 00 00 	cs nopw 0x0(%rax,%rax,1)
   132f0:	66 2e 0f 1f 84 00 00 00 00 00 	cs nopw 0x0(%rax,%rax,1)
   132fa:	66 2e 0f 1f 84 00 00 00 00 00 	cs nopw 0x0(%rax,%rax,1)
   13304:	66 2e 0f 1f 84 00 00 00 00 00 	cs nopw 0x0(%rax,%rax,1)
   1330e:	66 2e 0f 1f 84 00 00 00 00 00 	cs nopw 0x0(%rax,%rax,1)
   13318:	66 2e 0f 1f 84 00 00 00 00 00 	cs nopw 0x0(%rax,%rax,1)
   13322:	66 2e 0f 1f 84 00 00 00 00 00 	cs nopw 0x0(%rax,%rax,1)
   1332c:	66 2e 0f 1f 84 00 00 00 00 00 	cs nopw 0x0(%rax,%rax,1)
   13336:	66 2e 0f 1f 84 00 00 00 00 00 	cs nopw 0x0(%rax,%rax,1)
   13340:	66 2e 0f 1f 84 00 00 00 00 00 	cs nopw 0x0(%rax,%rax,1)
   1334a:	66 2e 0f 1f 84 00 00 00 00 00 	cs nopw 0x0(%rax,%rax,1)
   13354:	66 2e 0f 1f 84 00 00 00 00 00 	cs nopw 0x0(%rax,%rax,1)
   1335e:	66 2e 0f 1f 84 00 00 00 00 00 	cs nopw 0x0(%rax,%rax,1)
   13368:	66 2e 0f 1f 84 00 00 00 00 00 	cs nopw 0x0(%rax,%rax,1)
   13372:	66 2e 0f 1f 84 00 00 00 00 00 	cs nopw 0x0(%rax,%rax,1)
   1337c:	66 2e 0f 1f 84 00 00 00 00 00 	cs nopw 0x0(%rax,%rax,1)
   13386:	66 2e 0f 1f 84 00 00 00 00 00 	cs nopw 0x0(%rax,%rax,1)
   13390:	66 2e 0f 1f 84 00 00 00 00 00 	cs nopw 0x0(%rax,%rax,1)
   1339a:	66 2e 0f 1f 84 00 00 00 00 00 	cs nopw 0x0(%rax,%rax,1)
   133a4:	66 2e 0f 1f 84 00 00 00 00 00 	cs nopw 0x0(%rax,%rax,1)
   133ae:	66 2e 0f 1f 84 00 00 00 00 00 	cs nopw 0x0(%rax,%rax,1)
   133b8:	66 2e 0f 1f 84 00 00 00 00 00 	cs nopw 0x0(%rax,%rax,1)
   133c2:	66 2e 0f 1f 84 00 00 00 00 00 	cs nopw 0x0(%rax,%rax,1)
   133cc:	66 2e 0f 1f 84 00 00 00 00 00 	cs nopw 0x0(%rax,%rax,1)
   133d6:	66 2e 0f 1f 84 00 00 00 00 00 	cs nopw 0x0(%rax,%rax,1)
   133e0:	66 2e 0f 1f 84 00 00 00 00 00 	cs nopw 0x0(%rax,%rax,1)
   133ea:	66 2e 0f 1f 84 00 00 00 00 00 	cs nopw 0x0(%rax,%rax,1)
   133f4:	66 2e 0f 1f 84 00 00 00 00 00 	cs nopw 0x0(%rax,%rax,1)
   133fe:	66 2e 0f 1f 84 00 00 00 00 00 	cs nopw 0x0(%rax,%rax,1)
   13408:	66 2e 0f 1f 84 00 00 00 00 00 	cs nopw 0x0(%rax,%rax,1)
   13412:	66 2e 0f 1f 84 00 00 00 00 00 	cs nopw 0x0(%rax,%rax,1)
   1341c:	66 2e 0f 1f 84 00 00 00 00 00 	cs nopw 0x0(%rax,%rax,1)
   13426:	66 2e 0f 1f 84 00 00 00 00 00 	cs nopw 0x0(%rax,%rax,1)
   13430:	66 2e 0f 1f 84 00 00 00 00 00 	cs nopw 0x0(%rax,%rax,1)
   1343a:	66 2e 0f 1f 84 00 00 00 00 00 	cs nopw 0x0(%rax,%rax,1)
   13444:	66 2e 0f 1f 84 00 00 00 00 00 	cs nopw 0x0(%rax,%rax,1)
   1344e:	66 2e 0f 1f 84 00 00 00 00 00 	cs nopw 0x0(%rax,%rax,1)
   13458:	66 2e 0f 1f 84 00 00 00 00 00 	cs nopw 0x0(%rax,%rax,1)
   13462:	66 2e 0f 1f 84 00 00 00 00 00 	cs nopw 0x0(%rax,%rax,1)
   1346c:	66 2e 0f 1f 84 00 00 00 00 00 	cs nopw 0x0(%rax,%rax,1)
   13476:	66 2e 0f 1f 84 00 00 00 00 00 	cs nopw 0x0(%rax,%rax,1)
   13480:	66 2e 0f 1f 84 00 00 00 00 00 	cs nopw 0x0(%rax,%rax,1)
   1348a:	66 2e 0f 1f 84 00 00 00 00 00 	cs nopw 0x0(%rax,%rax,1)
   13494:	66 2e 0f 1f 84 00 00 00 00 00 	cs nopw 0x0(%rax,%rax,1)
   1349e:	66 2e 0f 1f 84 00 00 00 00 00 	cs nopw 0x0(%rax,%rax,1)
   134a8:	66 2e 0f 1f 84 00 00 00 00 00 	cs nopw 0x0(%rax,%rax,1)
   134b2:	66 2e 0f 1f 84 00 00 00 00 00 	cs nopw 0x0(%rax,%rax,1)
   134bc:	66 2e 0f 1f 84 00 00 00 00 00 	cs nopw 0x0(%rax,%rax,1)
   134c6:	66 2e 0f 1f 84 00 00 00 00 00 	cs nopw 0x0(%rax,%rax,1)
   134d0:	66 2e 0f 1f 84 00 00 00 00 00 	cs nopw 0x0(%rax,%rax,1)
   134da:	66 2e 0f 1f 84 00 00 00 00 00 	cs nopw 0x0(%rax,%rax,1)
   134e4:	66 2e 0f 1f 84 00 00 00 00 00 	cs nopw 0x0(%rax,%rax,1)
   134ee:	66 2e 0f 1f 84 00 00 00 00 00 	cs nopw 0x0(%rax,%rax,1)
   134f8:	66 2e 0f 1f 84 00 00 00 00 00 	cs nopw 0x0(%rax,%rax,1)
   13502:	66 2e 0f 1f 84 00 00 00 00 00 	cs nopw 0x0(%rax,%rax,1)
   1350c:	66 2e 0f 1f 84 00 00 00 00 00 	cs nopw 0x0(%rax,%rax,1)
   13516:	66 2e 0f 1f 84 00 00 00 00 00 	cs nopw 0x0(%rax,%rax,1)
   13520:	66 2e 0f 1f 84 00 00 00 00 00 	cs nopw 0x0(%rax,%rax,1)
   1352a:	66 2e 0f 1f 84 00 00 00 00 00 	cs nopw 0x0(%rax,%rax,1)
   13534:	66 2e 0f 1f 84 00 00 00 00 00 	cs nopw 0x0(%rax,%rax,1)
   1353e:	66 2e 0f 1f 84 00 00 00 00 00 	cs nopw 0x0(%rax,%rax,1)
   13548:	66 2e 0f 1f 84 00 00 00 00 00 	cs nopw 0x0(%rax,%rax,1)
   13552:	66 2e 0f 1f 84 00 00 00 00 00 	cs nopw 0x0(%rax,%rax,1)
   1355c:	66 2e 0f 1f 84 00 00 00 00 00 	cs nopw 0x0(%rax,%rax,1)
   13566:	66 2e 0f 1f 84 00 00 00 00 00 	cs nopw 0x0(%rax,%rax,1)
   13570:	66 2e 0f 1f 84 00 00 00 00 00 	cs nopw 0x0(%rax,%rax,1)
   1357a:	66 2e 0f 1f 84 00 00 00 00 00 	cs nopw 0x0(%rax,%rax,1)
   13584:	66 2e 0f 1f 84 00 00 00 00 00 	cs nopw 0x0(%rax,%rax,1)
   1358e:	66 2e 0f 1f 84 00 00 00 00 00 	cs nopw 0x0(%rax,%rax,1)
   13598:	66 2e 0f 1f 84 00 00 00 00 00 	cs nopw 0x0(%rax,%rax,1)
   135a2:	66 2e 0f 1f 84 00 00 00 00 00 	cs nopw 0x0(%rax,%rax,1)
   135ac:	66 2e 0f 1f 84 00 00 00 00 00 	cs nopw 0x0(%rax,%rax,1)
   135b6:	66 2e 0f 1f 84 00 00 00 00 00 	cs nopw 0x0(%rax,%rax,1)
   135c0:	66 2e 0f 1f 84 00 00 00 00 00 	cs nopw 0x0(%rax,%rax,1)
   135ca:	66 2e 0f 1f 84 00 00 00 00 00 	cs nopw 0x0(%rax,%rax,1)
   135d4:	66 2e 0f 1f 84 00 00 00 00 00 	cs nopw 0x0(%rax,%rax,1)
   135de:	66 2e 0f 1f 84 00 00 00 00 00 	cs nopw 0x0(%rax,%rax,1)
   135e8:	66 2e 0f 1f 84 00 00 00 00 00 	cs nopw 0x0(%rax,%rax,1)
   135f2:	66 2e 0f 1f 84 00 00 00 00 00 	cs nopw 0x0(%rax,%rax,1)
   135fc:	66 2e 0f 1f 84 00 00 00 00 00 	cs nopw 0x0(%rax,%rax,1)
   13606:	66 2e 0f 1f 84 00 00 00 00 00 	cs nopw 0x0(%rax,%rax,1)
   13610:	66 2e 0f 1f 84 00 00 00 00 00 	cs nopw 0x0(%rax,%rax,1)
   1361a:	66 2e 0f 1f 84 00 00 00 00 00 	cs nopw 0x0(%rax,%rax,1)
   13624:	66 2e 0f 1f 84 00 00 00 00 00 	cs nopw 0x0(%rax,%rax,1)
   1362e:	66 2e 0f 1f 84 00 00 00 00 00 	cs nopw 0x0(%rax,%rax,1)
   13638:	66 2e 0f 1f 84 00 00 00 00 00 	cs nopw 0x0(%rax,%rax,1)
   13642:	66 2e 0f 1f 84 00 00 00 00 00 	cs nopw 0x0(%rax,%rax,1)
   1364c:	66 2e 0f 1f 84 00 00 00 00 00 	cs nopw 0x0(%rax,%rax,1)
   13656:	66 2e 0f 1f 84 00 00 00 00 00 	cs nopw 0x0(%rax,%rax,1)
   13660:	66 2e 0f 1f 84 00 00 00 00 00 	cs nopw 0x0(%rax,%rax,1)
   1366a:	66 2e 0f 1f 84 00 00 00 00 00 	cs nopw 0x0(%rax,%rax,1)
   13674:	66 2e 0f 1f 84 00 00 00 00 00 	cs nopw 0x0(%rax,%rax,1)
   1367e:	66 2e 0f 1f 84 00 00 00 00 00 	cs nopw 0x0(%rax,%rax,1)
   13688:	66 2e 0f 1f 84 00 00 00 00 00 	cs nopw 0x0(%rax,%rax,1)
   13692:	66 2e 0f 1f 84 00 00 00 00 00 	cs nopw 0x0(%rax,%rax,1)
   1369c:	66 2e 0f 1f 84 00 00 00 00 00 	cs nopw 0x0(%rax,%rax,1)
   136a6:	66 2e 0f 1f 84 00 00 00 00 00 	cs nopw 0x0(%rax,%rax,1)
   136b0:	66 2e 0f 1f 84 00 00 00 00 00 	cs nopw 0x0(%rax,%rax,1)
   136ba:	66 2e 0f 1f 84 00 00 00 00 00 	cs nopw 0x0(%rax,%rax,1)
   136c4:	66 2e 0f 1f 84 00 00 00 00 00 	cs nopw 0x0(%rax,%rax,1)
   136ce:	66 2e 0f 1f 84 00 00 00 00 00 	cs nopw 0x0(%rax,%rax,1)
   136d8:	66 2e 0f 1f 84 00 00 00 00 00 	cs nopw 0x0(%rax,%rax,1)
   136e2:	66 2e 0f 1f 84 00 00 00 00 00 	cs nopw 0x0(%rax,%rax,1)
   136ec:	66 2e 0f 1f 84 00 00 00 00 00 	cs nopw 0x0(%rax,%rax,1)
   136f6:	66 2e 0f 1f 84 00 00 00 00 00 	cs nopw 0x0(%rax,%rax,1)
   13700:	66 2e 0f 1f 84 00 00 00 00 00 	cs nopw 0x0(%rax,%rax,1)
   1370a:	66 2e 0f 1f 84 00 00 00 00 00 	cs nopw 0x0(%rax,%rax,1)
   13714:	66 2e 0f 1f 84 00 00 00 00 00 	cs nopw 0x0(%rax,%rax,1)
   1371e:	66 2e 0f 1f 84 00 00 00 00 00 	cs nopw 0x0(%rax,%rax,1)
   13728:	66 2e 0f 1f 84 00 00 00 00 00 	cs nopw 0x0(%rax,%rax,1)
   13732:	66 2e 0f 1f 84 00 00 00 00 00 	cs nopw 0x0(%rax,%rax,1)
   1373c:	66 2e 0f 1f 84 00 00 00 00 00 	cs nopw 0x0(%rax,%rax,1)
   13746:	66 2e 0f 1f 84 00 00 00 00 00 	cs nopw 0x0(%rax,%rax,1)
   13750:	66 2e 0f 1f 84 00 00 00 00 00 	cs nopw 0x0(%rax,%rax,1)
   1375a:	66 2e 0f 1f 84 00 00 00 00 00 	cs nopw 0x0(%rax,%rax,1)
   13764:	66 2e 0f 1f 84 00 00 00 00 00 	cs nopw 0x0(%rax,%rax,1)
   1376e:	66 2e 0f 1f 84 00 00 00 00 00 	cs nopw 0x0(%rax,%rax,1)
   13778:	66 2e 0f 1f 84 00 00 00 00 00 	cs nopw 0x0(%rax,%rax,1)
   13782:	66 2e 0f 1f 84 00 00 00 00 00 	cs nopw 0x0(%rax,%rax,1)
   1378c:	66 2e 0f 1f 84 00 00 00 00 00 	cs nopw 0x0(%rax,%rax,1)
   13796:	66 2e 0f 1f 84 00 00 00 00 00 	cs nopw 0x0(%rax,%rax,1)
   137a0:	66 2e 0f 1f 84 00 00 00 00 00 	cs nopw 0x0(%rax,%rax,1)
   137aa:	66 2e 0f 1f 84 00 00 00 00 00 	cs nopw 0x0(%rax,%rax,1)
   137b4:	66 2e 0f 1f 84 00 00 00 00 00 	cs nopw 0x0(%rax,%rax,1)
   137be:	66 2e 0f 1f 84 00 00 00 00 00 	cs nopw 0x0(%rax,%rax,1)
   137c8:	66 2e 0f 1f 84 00 00 00 00 00 	cs nopw 0x0(%rax,%rax,1)
   137d2:	66 2e 0f 1f 84 00 00 00 00 00 	cs nopw 0x0(%rax,%rax,1)
   137dc:	66 2e 0f 1f 84 00 00 00 00 00 	cs nopw 0x0(%rax,%rax,1)
   137e6:	66 2e 0f 1f 84 00 00 00 00 00 	cs nopw 0x0(%rax,%rax,1)
   137f0:	66 2e 0f 1f 84 00 00 00 00 00 	cs nopw 0x0(%rax,%rax,1)
   137fa:	66 2e 0f 1f 84 00 00 00 00 00 	cs nopw 0x0(%rax,%rax,1)
   13804:	66 2e 0f 1f 84 00 00 00 00 00 	cs nopw 0x0(%rax,%rax,1)
   1380e:	66 2e 0f 1f 84 00 00 00 00 00 	cs nopw 0x0(%rax,%rax,1)
   13818:	66 2e 0f 1f 84 00 00 00 00 00 	cs nopw 0x0(%rax,%rax,1)
   13822:	66 2e 0f 1f 84 00 00 00 00 00 	cs nopw 0x0(%rax,%rax,1)
   1382c:	66 2e 0f 1f 84 00 00 00 00 00 	cs nopw 0x0(%rax,%rax,1)
   13836:	66 2e 0f 1f 84 00 00 00 00 00 	cs nopw 0x0(%rax,%rax,1)
   13840:	66 2e 0f 1f 84 00 00 00 00 00 	cs nopw 0x0(%rax,%rax,1)
   1384a:	66 2e 0f 1f 84 00 00 00 00 00 	cs nopw 0x0(%rax,%rax,1)
   13854:	66 2e 0f 1f 84 00 00 00 00 00 	cs nopw 0x0(%rax,%rax,1)
   1385e:	66 2e 0f 1f 84 00 00 00 00 00 	cs nopw 0x0(%rax,%rax,1)
   13868:	66 2e 0f 1f 84 00 00 00 00 00 	cs nopw 0x0(%rax,%rax,1)
   13872:	66 2e 0f 1f 84 00 00 00 00 00 	cs nopw 0x0(%rax,%rax,1)
   1387c:	66 2e 0f 1f 84 00 00 00 00 00 	cs nopw 0x0(%rax,%rax,1)
   13886:	66 2e 0f 1f 84 00 00 00 00 00 	cs nopw 0x0(%rax,%rax,1)
   13890:	66 2e 0f 1f 84 00 00 00 00 00 	cs nopw 0x0(%rax,%rax,1)
   1389a:	66 2e 0f 1f 84 00 00 00 00 00 	cs nopw 0x0(%rax,%rax,1)
   138a4:	66 2e 0f 1f 84 00 00 00 00 00 	cs nopw 0x0(%rax,%rax,1)
   138ae:	66 2e 0f 1f 84 00 00 00 00 00 	cs nopw 0x0(%rax,%rax,1)
   138b8:	66 2e 0f 1f 84 00 00 00 00 00 	cs nopw 0x0(%rax,%rax,1)
   138c2:	66 2e 0f 1f 84 00 00 00 00 00 	cs nopw 0x0(%rax,%rax,1)
   138cc:	66 2e 0f 1f 84 00 00 00 00 00 	cs nopw 0x0(%rax,%rax,1)
   138d6:	66 2e 0f 1f 84 00 00 00 00 00 	cs nopw 0x0(%rax,%rax,1)
   138e0:	66 2e 0f 1f 84 00 00 00 00 00 	cs nopw 0x0(%rax,%rax,1)
   138ea:	66 2e 0f 1f 84 00 00 00 00 00 	cs nopw 0x0(%rax,%rax,1)
   138f4:	66 2e 0f 1f 84 00 00 00 00 00 	cs nopw 0x0(%rax,%rax,1)
   138fe:	66 2e 0f 1f 84 00 00 00 00 00 	cs nopw 0x0(%rax,%rax,1)
   13908:	66 2e 0f 1f 84 00 00 00 00 00 	cs nopw 0x0(%rax,%rax,1)
   13912:	66 2e 0f 1f 84 00 00 00 00 00 	cs nopw 0x0(%rax,%rax,1)
   1391c:	66 2e 0f 1f 84 00 00 00 00 00 	cs nopw 0x0(%rax,%rax,1)
   13926:	66 2e 0f 1f 84 00 00 00 00 00 	cs nopw 0x0(%rax,%rax,1)
   13930:	66 2e 0f 1f 84 00 00 00 00 00 	cs nopw 0x0(%rax,%rax,1)
   1393a:	66 2e 0f 1f 84 00 00 00 00 00 	cs nopw 0x0(%rax,%rax,1)
   13944:	66 2e 0f 1f 84 00 00 00 00 00 	cs nopw 0x0(%rax,%rax,1)
   1394e:	66 2e 0f 1f 84 00 00 00 00 00 	cs nopw 0x0(%rax,%rax,1)
   13958:	66 2e 0f 1f 84 00 00 00 00 00 	cs nopw 0x0(%rax,%rax,1)
   13962:	66 2e 0f 1f 84 00 00 00 00 00 	cs nopw 0x0(%rax,%rax,1)
   1396c:	66 2e 0f 1f 84 00 00 00 00 00 	cs nopw 0x0(%rax,%rax,1)
   13976:	66 2e 0f 1f 84 00 00 00 00 00 	cs nopw 0x0(%rax,%rax,1)
   13980:	66 2e 0f 1f 84 00 00 00 00 00 	cs nopw 0x0(%rax,%rax,1)
   1398a:	66 2e 0f 1f 84 00 00 00 00 00 	cs nopw 0x0(%rax,%rax,1)
   13994:	66 2e 0f 1f 84 00 00 00 00 00 	cs nopw 0x0(%rax,%rax,1)
   1399e:	66 2e 0f 1f 84 00 00 00 00 00 	cs nopw 0x0(%rax,%rax,1)
   139a8:	66 2e 0f 1f 84 00 00 00 00 00 	cs nopw 0x0(%rax,%rax,1)
   139b2:	66 2e 0f 1f 84 00 00 00 00 00 	cs nopw 0x0(%rax,%rax,1)
   139bc:	66 2e 0f 1f 84 00 00 00 00 00 	cs nopw 0x0(%rax,%rax,1)
   139c6:	66 2e 0f 1f 84 00 00 00 00 00 	cs nopw 0x0(%rax,%rax,1)
   139d0:	66 2e 0f 1f 84 00 00 00 00 00 	cs nopw 0x0(%rax,%rax,1)
   139da:	66 2e 0f 1f 84 00 00 00 00 00 	cs nopw 0x0(%rax,%rax,1)
   139e4:	66 2e 0f 1f 84 00 00 00 00 00 	cs nopw 0x0(%rax,%rax,1)
   139ee:	66 2e 0f 1f 84 00 00 00 00 00 	cs nopw 0x0(%rax,%rax,1)
   139f8:	66 2e 0f 1f 84 00 00 00 00 00 	cs nopw 0x0(%rax,%rax,1)
   13a02:	66 2e 0f 1f 84 00 00 00 00 00 	cs nopw 0x0(%rax,%rax,1)
   13a0c:	66 2e 0f 1f 84 00 00 00 00 00 	cs nopw 0x0(%rax,%rax,1)
   13a16:	66 2e 0f 1f 84 00 00 00 00 00 	cs nopw 0x0(%rax,%rax,1)
   13a20:	66 2e 0f 1f 84 00 00 00 00 00 	cs nopw 0x0(%rax,%rax,1)
   13a2a:	66 2e 0f 1f 84 00 00 00 00 00 	cs nopw 0x0(%rax,%rax,1)
   13a34:	66 2e 0f 1f 84 00 00 00 00 00 	cs nopw 0x0(%rax,%rax,1)
   13a3e:	66 2e 0f 1f 84 00 00 00 00 00 	cs nopw 0x0(%rax,%rax,1)
   13a48:	66 2e 0f 1f 84 00 00 00 00 00 	cs nopw 0x0(%rax,%rax,1)
   13a52:	66 2e 0f 1f 84 00 00 00 00 00 	cs nopw 0x0(%rax,%rax,1)
   13a5c:	66 2e 0f 1f 84 00 00 00 00 00 	cs nopw 0x0(%rax,%rax,1)
   13a66:	66 2e 0f 1f 84 00 00 00 00 00 	cs nopw 0x0(%rax,%rax,1)
   13a70:	66 2e 0f 1f 84 00 00 00 00 00 	cs nopw 0x0(%rax,%rax,1)
   13a7a:	66 2e 0f 1f 84 00 00 00 00 00 	cs nopw 0x0(%rax,%rax,1)
   13a84:	66 2e 0f 1f 84 00 00 00 00 00 	cs nopw 0x0(%rax,%rax,1)
   13a8e:	66 2e 0f 1f 84 00 00 00 00 00 	cs nopw 0x0(%rax,%rax,1)
   13a98:	66 2e 0f 1f 84 00 00 00 00 00 	cs nopw 0x0(%rax,%rax,1)
   13aa2:	66 2e 0f 1f 84 00 00 00 00 00 	cs nopw 0x0(%rax,%rax,1)
   13aac:	66 2e 0f 1f 84 00 00 00 00 00 	cs nopw 0x0(%rax,%rax,1)
   13ab6:	66 2e 0f 1f 84 00 00 00 00 00 	cs nopw 0x0(%rax,%rax,1)
   13ac0:	66 2e 0f 1f 84 00 00 00 00 00 	cs nopw 0x0(%rax,%rax,1)
   13aca:	66 2e 0f 1f 84 00 00 00 00 00 	cs nopw 0x0(%rax,%rax,1)
   13ad4:	66 2e 0f 1f 84 00 00 00 00 00 	cs nopw 0x0(%rax,%rax,1)
   13ade:	66 2e 0f 1f 84 00 00 00 00 00 	cs nopw 0x0(%rax,%rax,1)
   13ae8:	66 2e 0f 1f 84 00 00 00 00 00 	cs nopw 0x0(%rax,%rax,1)
   13af2:	66 2e 0f 1f 84 00 00 00 00 00 	cs nopw 0x0(%rax,%rax,1)
   13afc:	66 2e 0f 1f 84 00 00 00 00 00 	cs nopw 0x0(%rax,%rax,1)
   13b06:	66 2e 0f 1f 84 00 00 00 00 00 	cs nopw 0x0(%rax,%rax,1)
   13b10:	66 2e 0f 1f 84 00 00 00 00 00 	cs nopw 0x0(%rax,%rax,1)
   13b1a:	66 2e 0f 1f 84 00 00 00 00 00 	cs nopw 0x0(%rax,%rax,1)
   13b24:	66 2e 0f 1f 84 00 00 00 00 00 	cs nopw 0x0(%rax,%rax,1)
   13b2e:	66 2e 0f 1f 84 00 00 00 00 00 	cs nopw 0x0(%rax,%rax,1)
   13b38:	66 2e 0f 1f 84 00 00 00 00 00 	cs nopw 0x0(%rax,%rax,1)
   13b42:	66 2e 0f 1f 84 00 00 00 00 00 	cs nopw 0x0(%rax,%rax,1)
   13b4c:	66 2e 0f 1f 84 00 00 00 00 00 	cs nopw 0x0(%rax,%rax,1)
   13b56:	66 2e 0f 1f 84 00 00 00 00 00 	cs nopw 0x0(%rax,%rax,1)
   13b60:	66 2e 0f 1f 84 00 00 00 00 00 	cs nopw 0x0(%rax,%rax,1)
   13b6a:	66 2e 0f 1f 84 00 00 00 00 00 	cs nopw 0x0(%rax,%rax,1)
   13b74:	66 2e 0f 1f 84 00 00 00 00 00 	cs nopw 0x0(%rax,%rax,1)
   13b7e:	66 2e 0f 1f 84 00 00 00 00 00 	cs nopw 0x0(%rax,%rax,1)
   13b88:	66 2e 0f 1f 84 00 00 00 00 00 	cs nopw 0x0(%rax,%rax,1)
   13b92:	66 2e 0f 1f 84 00 00 00 00 00 	cs nopw 0x0(%rax,%rax,1)
   13b9c:	66 2e 0f 1f 84 00 00 00 00 00 	cs nopw 0x0(%rax,%rax,1)
   13ba6:	66 2e 0f 1f 84 00 00 00 00 00 	cs nopw 0x0(%rax,%rax,1)
   13bb0:	66 2e 0f 1f 84 00 00 00 00 00 	cs nopw 0x0(%rax,%rax,1)
   13bba:	66 2e 0f 1f 84 00 00 00 00 00 	cs nopw 0x0(%rax,%rax,1)
   13bc4:	66 2e 0f 1f 84 00 00 00 00 00 	cs nopw 0x0(%rax,%rax,1)
   13bce:	66 2e 0f 1f 84 00 00 00 00 00 	cs nopw 0x0(%rax,%rax,1)
   13bd8:	66 2e 0f 1f 84 00 00 00 00 00 	cs nopw 0x0(%rax,%rax,1)
   13be2:	66 2e 0f 1f 84 00 00 00 00 00 	cs nopw 0x0(%rax,%rax,1)
   13bec:	66 2e 0f 1f 84 00 00 00 00 00 	cs nopw 0x0(%rax,%rax,1)
   13bf6:	66 2e 0f 1f 84 00 00 00 00 00 	cs nopw 0x0(%rax,%rax,1)
   13c00:	66 2e 0f 1f 84 00 00 00 00 00 	cs nopw 0x0(%rax,%rax,1)
   13c0a:	66 2e 0f 1f 84 00 00 00 00 00 	cs nopw 0x0(%rax,%rax,1)
   13c14:	66 2e 0f 1f 84 00 00 00 00 00 	cs nopw 0x0(%rax,%rax,1)
   13c1e:	66 2e 0f 1f 84 00 00 00 00 00 	cs nopw 0x0(%rax,%rax,1)
   13c28:	66 2e 0f 1f 84 00 00 00 00 00 	cs nopw 0x0(%rax,%rax,1)
   13c32:	66 2e 0f 1f 84 00 00 00 00 00 	cs nopw 0x0(%rax,%rax,1)
   13c3c:	66 2e 0f 1f 84 00 00 00 00 00 	cs nopw 0x0(%rax,%rax,1)
   13c46:	66 2e 0f 1f 84 00 00 00 00 00 	cs nopw 0x0(%rax,%rax,1)
   13c50:	66 2e 0f 1f 84 00 00 00 00 00 	cs nopw 0x0(%rax,%rax,1)
   13c5a:	66 2e 0f 1f 84 00 00 00 00 00 	cs nopw 0x0(%rax,%rax,1)
   13c64:	66 2e 0f 1f 84 00 00 00 00 00 	cs nopw 0x0(%rax,%rax,1)
   13c6e:	66 2e 0f 1f 84 00 00 00 00 00 	cs nopw 0x0(%rax,%rax,1)
   13c78:	66 2e 0f 1f 84 00 00 00 00 00 	cs nopw 0x0(%rax,%rax,1)
   13c82:	66 2e 0f 1f 84 00 00 00 00 00 	cs nopw 0x0(%rax,%rax,1)
   13c8c:	66 2e 0f 1f 84 00 00 00 00 00 	cs nopw 0x0(%rax,%rax,1)
   13c96:	66 2e 0f 1f 84 00 00 00 00 00 	cs nopw 0x0(%rax,%rax,1)
   13ca0:	66 2e 0f 1f 84 00 00 00 00 00 	cs nopw 0x0(%rax,%rax,1)
   13caa:	66 2e 0f 1f 84 00 00 00 00 00 	cs nopw 0x0(%rax,%rax,1)
   13cb4:	66 2e 0f 1f 84 00 00 00 00 00 	cs nopw 0x0(%rax,%rax,1)
   13cbe:	66 2e 0f 1f 84 00 00 00 00 00 	cs nopw 0x0(%rax,%rax,1)
   13cc8:	66 2e 0f 1f 84 00 00 00 00 00 	cs nopw 0x0(%rax,%rax,1)
   13cd2:	66 2e 0f 1f 84 00 00 00 00 00 	cs nopw 0x0(%rax,%rax,1)
   13cdc:	66 2e 0f 1f 84 00 00 00 00 00 	cs nopw 0x0(%rax,%rax,1)
   13ce6:	66 2e 0f 1f 84 00 00 00 00 00 	cs nopw 0x0(%rax,%rax,1)
   13cf0:	66 2e 0f 1f 84 00 00 00 00 00 	cs nopw 0x0(%rax,%rax,1)
   13cfa:	66 2e 0f 1f 84 00 00 00 00 00 	cs nopw 0x0(%rax,%rax,1)
   13d04:	66 2e 0f 1f 84 00 00 00 00 00 	cs nopw 0x0(%rax,%rax,1)
   13d0e:	66 2e 0f 1f 84 00 00 00 00 00 	cs nopw 0x0(%rax,%rax,1)
   13d18:	66 2e 0f 1f 84 00 00 00 00 00 	cs nopw 0x0(%rax,%rax,1)
   13d22:	66 2e 0f 1f 84 00 00 00 00 00 	cs nopw 0x0(%rax,%rax,1)
   13d2c:	66 2e 0f 1f 84 00 00 00 00 00 	cs nopw 0x0(%rax,%rax,1)
   13d36:	66 2e 0f 1f 84 00 00 00 00 00 	cs nopw 0x0(%rax,%rax,1)
   13d40:	66 2e 0f 1f 84 00 00 00 00 00 	cs nopw 0x0(%rax,%rax,1)
   13d4a:	66 2e 0f 1f 84 00 00 00 00 00 	cs nopw 0x0(%rax,%rax,1)
   13d54:	66 2e 0f 1f 84 00 00 00 00 00 	cs nopw 0x0(%rax,%rax,1)
   13d5e:	66 2e 0f 1f 84 00 00 00 00 00 	cs nopw 0x0(%rax,%rax,1)
   13d68:	66 2e 0f 1f 84 00 00 00 00 00 	cs nopw 0x0(%rax,%rax,1)
   13d72:	66 2e 0f 1f 84 00 00 00 00 00 	cs nopw 0x0(%rax,%rax,1)
   13d7c:	66 2e 0f 1f 84 00 00 00 00 00 	cs nopw 0x0(%rax,%rax,1)
   13d86:	66 2e 0f 1f 84 00 00 00 00 00 	cs nopw 0x0(%rax,%rax,1)
   13d90:	66 2e 0f 1f 84 00 00 00 00 00 	cs nopw 0x0(%rax,%rax,1)
   13d9a:	66 2e 0f 1f 84 00 00 00 00 00 	cs nopw 0x0(%rax,%rax,1)
   13da4:	66 2e 0f 1f 84 00 00 00 00 00 	cs nopw 0x0(%rax,%rax,1)
   13dae:	66 2e 0f 1f 84 00 00 00 00 00 	cs nopw 0x0(%rax,%rax,1)
   13db8:	66 2e 0f 1f 84 00 00 00 00 00 	cs nopw 0x0(%rax,%rax,1)
   13dc2:	66 2e 0f 1f 84 00 00 00 00 00 	cs nopw 0x0(%rax,%rax,1)
   13dcc:	66 2e 0f 1f 84 00 00 00 00 00 	cs nopw 0x0(%rax,%rax,1)
   13dd6:	66 2e 0f 1f 84 00 00 00 00 00 	cs nopw 0x0(%rax,%rax,1)
   13de0:	66 2e 0f 1f 84 00 00 00 00 00 	cs nopw 0x0(%rax,%rax,1)
   13dea:	66 2e 0f 1f 84 00 00 00 00 00 	cs nopw 0x0(%rax,%rax,1)
   13df4:	66 2e 0f 1f 84 00 00 00 00 00 	cs nopw 0x0(%rax,%rax,1)
   13dfe:	66 2e 0f 1f 84 00 00 00 00 00 	cs nopw 0x0(%rax,%rax,1)
   13e08:	66 2e 0f 1f 84 00 00 00 00 00 	cs nopw 0x0(%rax,%rax,1)
   13e12:	66 2e 0f 1f 84 00 00 00 00 00 	cs nopw 0x0(%rax,%rax,1)
   13e1c:	66 2e 0f 1f 84 00 00 00 00 00 	cs nopw 0x0(%rax,%rax,1)
   13e26:	66 2e 0f 1f 84 00 00 00 00 00 	cs nopw 0x0(%rax,%rax,1)
   13e30:	66 2e 0f 1f 84 00 00 00 00 00 	cs nopw 0x0(%rax,%rax,1)
   13e3a:	66 2e 0f 1f 84 00 00 00 00 00 	cs nopw 0x0(%rax,%rax,1)
   13e44:	66 2e 0f 1f 84 00 00 00 00 00 	cs nopw 0x0(%rax,%rax,1)
   13e4e:	66 2e 0f 1f 84 00 00 00 00 00 	cs nopw 0x0(%rax,%rax,1)
   13e58:	66 2e 0f 1f 84 00 00 00 00 00 	cs nopw 0x0(%rax,%rax,1)
   13e62:	66 2e 0f 1f 84 00 00 00 00 00 	cs nopw 0x0(%rax,%rax,1)
   13e6c:	66 2e 0f 1f 84 00 00 00 00 00 	cs nopw 0x0(%rax,%rax,1)
   13e76:	66 2e 0f 1f 84 00 00 00 00 00 	cs nopw 0x0(%rax,%rax,1)
   13e80:	66 2e 0f 1f 84 00 00 00 00 00 	cs nopw 0x0(%rax,%rax,1)
   13e8a:	66 2e 0f 1f 84 00 00 00 00 00 	cs nopw 0x0(%rax,%rax,1)
   13e94:	66 2e 0f 1f 84 00 00 00 00 00 	cs nopw 0x0(%rax,%rax,1)
   13e9e:	66 2e 0f 1f 84 00 00 00 00 00 	cs nopw 0x0(%rax,%rax,1)
   13ea8:	66 2e 0f 1f 84 00 00 00 00 00 	cs nopw 0x0(%rax,%rax,1)
   13eb2:	66 2e 0f 1f 84 00 00 00 00 00 	cs nopw 0x0(%rax,%rax,1)
   13ebc:	66 2e 0f 1f 84 00 00 00 00 00 	cs nopw 0x0(%rax,%rax,1)
   13ec6:	66 2e 0f 1f 84 00 00 00 00 00 	cs nopw 0x0(%rax,%rax,1)
   13ed0:	66 2e 0f 1f 84 00 00 00 00 00 	cs nopw 0x0(%rax,%rax,1)
   13eda:	66 2e 0f 1f 84 00 00 00 00 00 	cs nopw 0x0(%rax,%rax,1)
   13ee4:	66 2e 0f 1f 84 00 00 00 00 00 	cs nopw 0x0(%rax,%rax,1)
   13eee:	66 2e 0f 1f 84 00 00 00 00 00 	cs nopw 0x0(%rax,%rax,1)
   13ef8:	66 2e 0f 1f 84 00 00 00 00 00 	cs nopw 0x0(%rax,%rax,1)
   13f02:	66 2e 0f 1f 84 00 00 00 00 00 	cs nopw 0x0(%rax,%rax,1)
   13f0c:	66 2e 0f 1f 84 00 00 00 00 00 	cs nopw 0x0(%rax,%rax,1)
   13f16:	66 2e 0f 1f 84 00 00 00 00 00 	cs nopw 0x0(%rax,%rax,1)
   13f20:	66 2e 0f 1f 84 00 00 00 00 00 	cs nopw 0x0(%rax,%rax,1)
   13f2a:	66 2e 0f 1f 84 00 00 00 00 00 	cs nopw 0x0(%rax,%rax,1)
   13f34:	66 2e 0f 1f 84 00 00 00 00 00 	cs nopw 0x0(%rax,%rax,1)
   13f3e:	66 2e 0f 1f 84 00 00 00 00 00 	cs nopw 0x0(%rax,%rax,1)
   13f48:	66 2e 0f 1f 84 00 00 00 00 00 	cs nopw 0x0(%rax,%rax,1)
   13f52:	66 2e 0f 1f 84 00 00 00 00 00 	cs nopw 0x0(%rax,%rax,1)
   13f5c:	66 2e 0f 1f 84 00 00 00 00 00 	cs nopw 0x0(%rax,%rax,1)
   13f66:	66 2e 0f 1f 84 00 00 00 00 00 	cs nopw 0x0(%rax,%rax,1)
   13f70:	66 2e 0f 1f 84 00 00 00 00 00 	cs nopw 0x0(%rax,%rax,1)
   13f7a:	66 2e 0f 1f 84 00 00 00 00 00 	cs nopw 0x0(%rax,%rax,1)
   13f84:	66 2e 0f 1f 84 00 00 00 00 00 	cs nopw 0x0(%rax,%rax,1)
   13f8e:	66 2e 0f 1f 84 00 00 00 00 00 	cs nopw 0x0(%rax,%rax,1)
   13f98:	66 2e 0f 1f 84 00 00 00 00 00 	cs nopw 0x0(%rax,%rax,1)
   13fa2:	66 2e 0f 1f 84 00 00 00 00 00 	cs nopw 0x0(%rax,%rax,1)
   13fac:	66 2e 0f 1f 84 00 00 00 00 00 	cs nopw 0x0(%rax,%rax,1)
   13fb6:	66 2e 0f 1f 84 00 00 00 00 00 	cs nopw 0x0(%rax,%rax,1)
   13fc0:	66 2e 0f 1f 84 00 00 00 00 00 	cs nopw 0x0(%rax,%rax,1)
   13fca:	66 2e 0f 1f 84 00 00 00 00 00 	cs nopw 0x0(%rax,%rax,1)
   13fd4:	66 2e 0f 1f 84 00 00 00 00 00 	cs nopw 0x0(%rax,%rax,1)
   13fde:	66 2e 0f 1f 84 00 00 00 00 00 	cs nopw 0x0(%rax,%rax,1)
   13fe8:	66 2e 0f 1f 84 00 00 00 00 00 	cs nopw 0x0(%rax,%rax,1)
   13ff2:	66 2e 0f 1f 84 00 00 00 00 00 	cs nopw 0x0(%rax,%rax,1)
   13ffc:	66 2e 0f 1f 84 00 00 00 00 00 	cs nopw 0x0(%rax,%rax,1)
   14006:	66 2e 0f 1f 84 00 00 00 00 00 	cs nopw 0x0(%rax,%rax,1)
   14010:	66 2e 0f 1f 84 00 00 00 00 00 	cs nopw 0x0(%rax,%rax,1)
   1401a:	66 2e 0f 1f 84 00 00 00 00 00 	cs nopw 0x0(%rax,%rax,1)
   14024:	66 2e 0f 1f 84 00 00 00 00 00 	cs nopw 0x0(%rax,%rax,1)
   1402e:	66 2e 0f 1f 84 00 00 00 00 00 	cs nopw 0x0(%rax,%rax,1)
   14038:	66 2e 0f 1f 84 00 00 00 00 00 	cs nopw 0x0(%rax,%rax,1)
   14042:	66 2e 0f 1f 84 00 00 00 00 00 	cs nopw 0x0(%rax,%rax,1)
   1404c:	66 2e 0f 1f 84 00 00 00 00 00 	cs nopw 0x0(%rax,%rax,1)
   14056:	66 2e 0f 1f 84 00 00 00 00 00 	cs nopw 0x0(%rax,%rax,1)
   14060:	66 2e 0f 1f 84 00 00 00 00 00 	cs nopw 0x0(%rax,%rax,1)
   1406a:	66 2e 0f 1f 84 00 00 00 00 00 	cs nopw 0x0(%rax,%rax,1)
   14074:	66 2e 0f 1f 84 00 00 00 00 00 	cs nopw 0x0(%rax,%rax,1)
   1407e:	66 2e 0f 1f 84 00 00 00 00 00 	cs nopw 0x0(%rax,%rax,1)
   14088:	66 2e 0f 1f 84 00 00 00 00 00 	cs nopw 0x0(%rax,%rax,1)
   14092:	66 2e 0f 1f 84 00 00 00 00 00 	cs nopw 0x0(%rax,%rax,1)
   1409c:	66 2e 0f 1f 84 00 00 00 00 00 	cs nopw 0x0(%rax,%rax,1)
   140a6:	66 2e 0f 1f 84 00 00 00 00 00 	cs nopw 0x0(%rax,%rax,1)
   140b0:	66 2e 0f 1f 84 00 00 00 00 00 	cs nopw 0x0(%rax,%rax,1)
   140ba:	66 2e 0f 1f 84 00 00 00 00 00 	cs nopw 0x0(%rax,%rax,1)
   140c4:	66 2e 0f 1f 84 00 00 00 00 00 	cs nopw 0x0(%rax,%rax,1)
   140ce:	66 2e 0f 1f 84 00 00 00 00 00 	cs nopw 0x0(%rax,%rax,1)
   140d8:	66 2e 0f 1f 84 00 00 00 00 00 	cs nopw 0x0(%rax,%rax,1)
   140e2:	66 2e 0f 1f 84 00 00 00 00 00 	cs nopw 0x0(%rax,%rax,1)
   140ec:	66 2e 0f 1f 84 00 00 00 00 00 	cs nopw 0x0(%rax,%rax,1)
   140f6:	66 2e 0f 1f 84 00 00 00 00 00 	cs nopw 0x0(%rax,%rax,1)
   14100:	66 2e 0f 1f 84 00 00 00 00 00 	cs nopw 0x0(%rax,%rax,1)
   1410a:	66 2e 0f 1f 84 00 00 00 00 00 	cs nopw 0x0(%rax,%rax,1)
   14114:	66 2e 0f 1f 84 00 00 00 00 00 	cs nopw 0x0(%rax,%rax,1)
   1411e:	66 2e 0f 1f 84 00 00 00 00 00 	cs nopw 0x0(%rax,%rax,1)
   14128:	66 2e 0f 1f 84 00 00 00 00 00 	cs nopw 0x0(%rax,%rax,1)
   14132:	66 2e 0f 1f 84 00 00 00 00 00 	cs nopw 0x0(%rax,%rax,1)
   1413c:	66 2e 0f 1f 84 00 00 00 00 00 	cs nopw 0x0(%rax,%rax,1)
   14146:	66 2e 0f 1f 84 00 00 00 00 00 	cs nopw 0x0(%rax,%rax,1)
   14150:	66 2e 0f 1f 84 00 00 00 00 00 	cs nopw 0x0(%rax,%rax,1)
   1415a:	66 2e 0f 1f 84 00 00 00 00 00 	cs nopw 0x0(%rax,%rax,1)
   14164:	66 2e 0f 1f 84 00 00 00 00 00 	cs nopw 0x0(%rax,%rax,1)
   1416e:	66 2e 0f 1f 84 00 00 00 00 00 	cs nopw 0x0(%rax,%rax,1)
   14178:	66 2e 0f 1f 84 00 00 00 00 00 	cs nopw 0x0(%rax,%rax,1)
   14182:	66 2e 0f 1f 84 00 00 00 00 00 	cs nopw 0x0(%rax,%rax,1)
   1418c:	66 2e 0f 1f 84 00 00 00 00 00 	cs nopw 0x0(%rax,%rax,1)
   14196:	66 2e 0f 1f 84 00 00 00 00 00 	cs nopw 0x0(%rax,%rax,1)
   141a0:	66 2e 0f 1f 84 00 00 00 00 00 	cs nopw 0x0(%rax,%rax,1)
   141aa:	66 2e 0f 1f 84 00 00 00 00 00 	cs nopw 0x0(%rax,%rax,1)
   141b4:	66 2e 0f 1f 84 00 00 00 00 00 	cs nopw 0x0(%rax,%rax,1)
   141be:	66 2e 0f 1f 84 00 00 00 00 00 	cs nopw 0x0(%rax,%rax,1)
   141c8:	66 2e 0f 1f 84 00 00 00 00 00 	cs nopw 0x0(%rax,%rax,1)
   141d2:	66 2e 0f 1f 84 00 00 00 00 00 	cs nopw 0x0(%rax,%rax,1)
   141dc:	66 2e 0f 1f 84 00 00 00 00 00 	cs nopw 0x0(%rax,%rax,1)
   141e6:	66 2e 0f 1f 84 00 00 00 00 00 	cs nopw 0x0(%rax,%rax,1)
   141f0:	66 2e 0f 1f 84 00 00 00 00 00 	cs nopw 0x0(%rax,%rax,1)
   141fa:	66 2e 0f 1f 84 00 00 00 00 00 	cs nopw 0x0(%rax,%rax,1)
   14204:	66 2e 0f 1f 84 00 00 00 00 00 	cs nopw 0x0(%rax,%rax,1)
   1420e:	66 2e 0f 1f 84 00 00 00 00 00 	cs nopw 0x0(%rax,%rax,1)
   14218:	66 2e 0f 1f 84 00 00 00 00 00 	cs nopw 0x0(%rax,%rax,1)
   14222:	66 2e 0f 1f 84 00 00 00 00 00 	cs nopw 0x0(%rax,%rax,1)
   1422c:	66 2e 0f 1f 84 00 00 00 00 00 	cs nopw 0x0(%rax,%rax,1)
   14236:	66 2e 0f 1f 84 00 00 00 00 00 	cs nopw 0x0(%rax,%rax,1)
   14240:	66 2e 0f 1f 84 00 00 00 00 00 	cs nopw 0x0(%rax,%rax,1)
   1424a:	66 2e 0f 1f 84 00 00 00 00 00 	cs nopw 0x0(%rax,%rax,1)
   14254:	66 2e 0f 1f 84 00 00 00 00 00 	cs nopw 0x0(%rax,%rax,1)
   1425e:	66 2e 0f 1f 84 00 00 00 00 00 	cs nopw 0x0(%rax,%rax,1)
   14268:	66 2e 0f 1f 84 00 00 00 00 00 	cs nopw 0x0(%rax,%rax,1)
   14272:	66 2e 0f 1f 84 00 00 00 00 00 	cs nopw 0x0(%rax,%rax,1)
   1427c:	66 2e 0f 1f 84 00 00 00 00 00 	cs nopw 0x0(%rax,%rax,1)
   14286:	66 2e 0f 1f 84 00 00 00 00 00 	cs nopw 0x0(%rax,%rax,1)
   14290:	66 2e 0f 1f 84 00 00 00 00 00 	cs nopw 0x0(%rax,%rax,1)
   1429a:	66 2e 0f 1f 84 00 00 00 00 00 	cs nopw 0x0(%rax,%rax,1)
   142a4:	66 2e 0f 1f 84 00 00 00 00 00 	cs nopw 0x0(%rax,%rax,1)
   142ae:	66 2e 0f 1f 84 00 00 00 00 00 	cs nopw 0x0(%rax,%rax,1)
   142b8:	66 2e 0f 1f 84 00 00 00 00 00 	cs nopw 0x0(%rax,%rax,1)
   142c2:	66 2e 0f 1f 84 00 00 00 00 00 	cs nopw 0x0(%rax,%rax,1)
   142cc:	66 2e 0f 1f 84 00 00 00 00 00 	cs nopw 0x0(%rax,%rax,1)
   142d6:	66 2e 0f 1f 84 00 00 00 00 00 	cs nopw 0x0(%rax,%rax,1)
   142e0:	66 2e 0f 1f 84 00 00 00 00 00 	cs nopw 0x0(%rax,%rax,1)
   142ea:	66 2e 0f 1f 84 00 00 00 00 00 	cs nopw 0x0(%rax,%rax,1)
   142f4:	66 2e 0f 1f 84 00 00 00 00 00 	cs nopw 0x0(%rax,%rax,1)
   142fe:	66 2e 0f 1f 84 00 00 00 00 00 	cs nopw 0x0(%rax,%rax,1)
   14308:	66 2e 0f 1f 84 00 00 00 00 00 	cs nopw 0x0(%rax,%rax,1)
   14312:	66 2e 0f 1f 84 00 00 00 00 00 	cs nopw 0x0(%rax,%rax,1)
   1431c:	66 2e 0f 1f 84 00 00 00 00 00 	cs nopw 0x0(%rax,%rax,1)
   14326:	66 2e 0f 1f 84 00 00 00 00 00 	cs nopw 0x0(%rax,%rax,1)
   14330:	66 2e 0f 1f 84 00 00 00 00 00 	cs nopw 0x0(%rax,%rax,1)
   1433a:	66 2e 0f 1f 84 00 00 00 00 00 	cs nopw 0x0(%rax,%rax,1)
   14344:	66 2e 0f 1f 84 00 00 00 00 00 	cs nopw 0x0(%rax,%rax,1)
   1434e:	66 2e 0f 1f 84 00 00 00 00 00 	cs nopw 0x0(%rax,%rax,1)
   14358:	66 2e 0f 1f 84 00 00 00 00 00 	cs nopw 0x0(%rax,%rax,1)
   14362:	66 2e 0f 1f 84 00 00 00 00 00 	cs nopw 0x0(%rax,%rax,1)
   1436c:	66 2e 0f 1f 84 00 00 00 00 00 	cs nopw 0x0(%rax,%rax,1)
   14376:	66 2e 0f 1f 84 00 00 00 00 00 	cs nopw 0x0(%rax,%rax,1)
   14380:	66 2e 0f 1f 84 00 00 00 00 00 	cs nopw 0x0(%rax,%rax,1)
   1438a:	66 2e 0f 1f 84 00 00 00 00 00 	cs nopw 0x0(%rax,%rax,1)
   14394:	66 2e 0f 1f 84 00 00 00 00 00 	cs nopw 0x0(%rax,%rax,1)
   1439e:	66 2e 0f 1f 84 00 00 00 00 00 	cs nopw 0x0(%rax,%rax,1)
   143a8:	66 2e 0f 1f 84 00 00 00 00 00 	cs nopw 0x0(%rax,%rax,1)
   143b2:	66 2e 0f 1f 84 00 00 00 00 00 	cs nopw 0x0(%rax,%rax,1)
   143bc:	66 2e 0f 1f 84 00 00 00 00 00 	cs nopw 0x0(%rax,%rax,1)
   143c6:	66 2e 0f 1f 84 00 00 00 00 00 	cs nopw 0x0(%rax,%rax,1)
   143d0:	66 2e 0f 1f 84 00 00 00 00 00 	cs nopw 0x0(%rax,%rax,1)
   143da:	66 2e 0f 1f 84 00 00 00 00 00 	cs nopw 0x0(%rax,%rax,1)
   143e4:	66 2e 0f 1f 84 00 00 00 00 00 	cs nopw 0x0(%rax,%rax,1)
   143ee:	66 2e 0f 1f 84 00 00 00 00 00 	cs nopw 0x0(%rax,%rax,1)
   143f8:	66 2e 0f 1f 84 00 00 00 00 00 	cs nopw 0x0(%rax,%rax,1)
   14402:	66 2e 0f 1f 84 00 00 00 00 00 	cs nopw 0x0(%rax,%rax,1)
   1440c:	66 2e 0f 1f 84 00 00 00 00 00 	cs nopw 0x0(%rax,%rax,1)
   14416:	66 2e 0f 1f 84 00 00 00 00 00 	cs nopw 0x0(%rax,%rax,1)
   14420:	66 2e 0f 1f 84 00 00 00 00 00 	cs nopw 0x0(%rax,%rax,1)
   1442a:	66 2e 0f 1f 84 00 00 00 00 00 	cs nopw 0x0(%rax,%rax,1)
   14434:	66 2e 0f 1f 84 00 00 00 00 00 	cs nopw 0x0(%rax,%rax,1)
   1443e:	66 2e 0f 1f 84 00 00 00 00 00 	cs nopw 0x0(%rax,%rax,1)
   14448:	66 2e 0f 1f 84 00 00 00 00 00 	cs nopw 0x0(%rax,%rax,1)
   14452:	66 2e 0f 1f 84 00 00 00 00 00 	cs nopw 0x0(%rax,%rax,1)
   1445c:	66 2e 0f 1f 84 00 00 00 00 00 	cs nopw 0x0(%rax,%rax,1)
   14466:	66 2e 0f 1f 84 00 00 00 00 00 	cs nopw 0x0(%rax,%rax,1)
   14470:	66 2e 0f 1f 84 00 00 00 00 00 	cs nopw 0x0(%rax,%rax,1)
   1447a:	66 2e 0f 1f 84 00 00 00 00 00 	cs nopw 0x0(%rax,%rax,1)
   14484:	66 2e 0f 1f 84 00 00 00 00 00 	cs nopw 0x0(%rax,%rax,1)
   1448e:	66 2e 0f 1f 84 00 00 00 00 00 	cs nopw 0x0(%rax,%rax,1)
   14498:	66 2e 0f 1f 84 00 00 00 00 00 	cs nopw 0x0(%rax,%rax,1)
   144a2:	66 2e 0f 1f 84 00 00 00 00 00 	cs nopw 0x0(%rax,%rax,1)
   144ac:	66 2e 0f 1f 84 00 00 00 00 00 	cs nopw 0x0(%rax,%rax,1)
   144b6:	66 2e 0f 1f 84 00 00 00 00 00 	cs nopw 0x0(%rax,%rax,1)
   144c0:	66 2e 0f 1f 84 00 00 00 00 00 	cs nopw 0x0(%rax,%rax,1)
   144ca:	66 2e 0f 1f 84 00 00 00 00 00 	cs nopw 0x0(%rax,%rax,1)
   144d4:	66 2e 0f 1f 84 00 00 00 00 00 	cs nopw 0x0(%rax,%rax,1)
   144de:	66 2e 0f 1f 84 00 00 00 00 00 	cs nopw 0x0(%rax,%rax,1)
   144e8:	66 2e 0f 1f 84 00 00 00 00 00 	cs nopw 0x0(%rax,%rax,1)
   144f2:	66 2e 0f 1f 84 00 00 00 00 00 	cs nopw 0x0(%rax,%rax,1)
   144fc:	66 2e 0f 1f 84 00 00 00 00 00 	cs nopw 0x0(%rax,%rax,1)
   14506:	66 2e 0f 1f 84 00 00 00 00 00 	cs nopw 0x0(%rax,%rax,1)
   14510:	66 2e 0f 1f 84 00 00 00 00 00 	cs nopw 0x0(%rax,%rax,1)
   1451a:	66 2e 0f 1f 84 00 00 00 00 00 	cs nopw 0x0(%rax,%rax,1)
   14524:	66 2e 0f 1f 84 00 00 00 00 00 	cs nopw 0x0(%rax,%rax,1)
   1452e:	66 2e 0f 1f 84 00 00 00 00 00 	cs nopw 0x0(%rax,%rax,1)
   14538:	66 2e 0f 1f 84 00 00 00 00 00 	cs nopw 0x0(%rax,%rax,1)
   14542:	66 2e 0f 1f 84 00 00 00 00 00 	cs nopw 0x0(%rax,%rax,1)
   1454c:	66 2e 0f 1f 84 00 00 00 00 00 	cs nopw 0x0(%rax,%rax,1)
   14556:	66 2e 0f 1f 84 00 00 00 00 00 	cs nopw 0x0(%rax,%rax,1)
   14560:	66 2e 0f 1f 84 00 00 00 00 00 	cs nopw 0x0(%rax,%rax,1)
   1456a:	66 2e 0f 1f 84 00 00 00 00 00 	cs nopw 0x0(%rax,%rax,1)
   14574:	66 2e 0f 1f 84 00 00 00 00 00 	cs nopw 0x0(%rax,%rax,1)
   1457e:	66 2e 0f 1f 84 00 00 00 00 00 	cs nopw 0x0(%rax,%rax,1)
   14588:	66 2e 0f 1f 84 00 00 00 00 00 	cs nopw 0x0(%rax,%rax,1)
   14592:	66 2e 0f 1f 84 00 00 00 00 00 	cs nopw 0x0(%rax,%rax,1)
   1459c:	66 2e 0f 1f 84 00 00 00 00 00 	cs nopw 0x0(%rax,%rax,1)
   145a6:	66 2e 0f 1f 84 00 00 00 00 00 	cs nopw 0x0(%rax,%rax,1)
   145b0:	66 2e 0f 1f 84 00 00 00 00 00 	cs nopw 0x0(%rax,%rax,1)
   145ba:	66 2e 0f 1f 84 00 00 00 00 00 	cs nopw 0x0(%rax,%rax,1)
   145c4:	66 2e 0f 1f 84 00 00 00 00 00 	cs nopw 0x0(%rax,%rax,1)
   145ce:	66 2e 0f 1f 84 00 00 00 00 00 	cs nopw 0x0(%rax,%rax,1)
   145d8:	66 2e 0f 1f 84 00 00 00 00 00 	cs nopw 0x0(%rax,%rax,1)
   145e2:	66 2e 0f 1f 84 00 00 00 00 00 	cs nopw 0x0(%rax,%rax,1)
   145ec:	66 2e 0f 1f 84 00 00 00 00 00 	cs nopw 0x0(%rax,%rax,1)
   145f6:	66 2e 0f 1f 84 00 00 00 00 00 	cs nopw 0x0(%rax,%rax,1)
   14600:	66 2e 0f 1f 84 00 00 00 00 00 	cs nopw 0x0(%rax,%rax,1)
   1460a:	66 2e 0f 1f 84 00 00 00 00 00 	cs nopw 0x0(%rax,%rax,1)
   14614:	66 2e 0f 1f 84 00 00 00 00 00 	cs nopw 0x0(%rax,%rax,1)
   1461e:	66 2e 0f 1f 84 00 00 00 00 00 	cs nopw 0x0(%rax,%rax,1)
   14628:	66 2e 0f 1f 84 00 00 00 00 00 	cs nopw 0x0(%rax,%rax,1)
   14632:	66 2e 0f 1f 84 00 00 00 00 00 	cs nopw 0x0(%rax,%rax,1)
   1463c:	66 2e 0f 1f 84 00 00 00 00 00 	cs nopw 0x0(%rax,%rax,1)
   14646:	66 2e 0f 1f 84 00 00 00 00 00 	cs nopw 0x0(%rax,%rax,1)
   14650:	66 2e 0f 1f 84 00 00 00 00 00 	cs nopw 0x0(%rax,%rax,1)
   1465a:	66 2e 0f 1f 84 00 00 00 00 00 	cs nopw 0x0(%rax,%rax,1)
   14664:	66 2e 0f 1f 84 00 00 00 00 00 	cs nopw 0x0(%rax,%rax,1)
   1466e:	66 2e 0f 1f 84 00 00 00 00 00 	cs nopw 0x0(%rax,%rax,1)
   14678:	66 2e 0f 1f 84 00 00 00 00 00 	cs nopw 0x0(%rax,%rax,1)
   14682:	66 2e 0f 1f 84 00 00 00 00 00 	cs nopw 0x0(%rax,%rax,1)
   1468c:	66 2e 0f 1f 84 00 00 00 00 00 	cs nopw 0x0(%rax,%rax,1)
   14696:	66 2e 0f 1f 84 00 00 00 00 00 	cs nopw 0x0(%rax,%rax,1)
   146a0:	66 2e 0f 1f 84 00 00 00 00 00 	cs nopw 0x0(%rax,%rax,1)
   146aa:	66 2e 0f 1f 84 00 00 00 00 00 	cs nopw 0x0(%rax,%rax,1)
   146b4:	66 2e 0f 1f 84 00 00 00 00 00 	cs nopw 0x0(%rax,%rax,1)
   146be:	66 2e 0f 1f 84 00 00 00 00 00 	cs nopw 0x0(%rax,%rax,1)
   146c8:	66 2e 0f 1f 84 00 00 00 00 00 	cs nopw 0x0(%rax,%rax,1)
   146d2:	66 2e 0f 1f 84 00 00 00 00 00 	cs nopw 0x0(%rax,%rax,1)
   146dc:	66 2e 0f 1f 84 00 00 00 00 00 	cs nopw 0x0(%rax,%rax,1)
   146e6:	66 2e 0f 1f 84 00 00 00 00 00 	cs nopw 0x0(%rax,%rax,1)
   146f0:	66 2e 0f 1f 84 00 00 00 00 00 	cs nopw 0x0(%rax,%rax,1)
   146fa:	66 2e 0f 1f 84 00 00 00 00 00 	cs nopw 0x0(%rax,%rax,1)
   14704:	66 2e 0f 1f 84 00 00 00 00 00 	cs nopw 0x0(%rax,%rax,1)
   1470e:	66 2e 0f 1f 84 00 00 00 00 00 	cs nopw 0x0(%rax,%rax,1)
   14718:	66 2e 0f 1f 84 00 00 00 00 00 	cs nopw 0x0(%rax,%rax,1)
   14722:	66 2e 0f 1f 84 00 00 00 00 00 	cs nopw 0x0(%rax,%rax,1)
   1472c:	66 2e 0f 1f 84 00 00 00 00 00 	cs nopw 0x0(%rax,%rax,1)
   14736:	66 2e 0f 1f 84 00 00 00 00 00 	cs nopw 0x0(%rax,%rax,1)
   14740:	66 2e 0f 1f 84 00 00 00 00 00 	cs nopw 0x0(%rax,%rax,1)
   1474a:	66 2e 0f 1f 84 00 00 00 00 00 	cs nopw 0x0(%rax,%rax,1)
   14754:	66 2e 0f 1f 84 00 00 00 00 00 	cs nopw 0x0(%rax,%rax,1)
   1475e:	66 2e 0f 1f 84 00 00 00 00 00 	cs nopw 0x0(%rax,%rax,1)
   14768:	66 2e 0f 1f 84 00 00 00 00 00 	cs nopw 0x0(%rax,%rax,1)
   14772:	66 2e 0f 1f 84 00 00 00 00 00 	cs nopw 0x0(%rax,%rax,1)
   1477c:	66 2e 0f 1f 84 00 00 00 00 00 	cs nopw 0x0(%rax,%rax,1)
   14786:	66 2e 0f 1f 84 00 00 00 00 00 	cs nopw 0x0(%rax,%rax,1)
   14790:	66 2e 0f 1f 84 00 00 00 00 00 	cs nopw 0x0(%rax,%rax,1)
   1479a:	66 2e 0f 1f 84 00 00 00 00 00 	cs nopw 0x0(%rax,%rax,1)
   147a4:	66 2e 0f 1f 84 00 00 00 00 00 	cs nopw 0x0(%rax,%rax,1)
   147ae:	66 2e 0f 1f 84 00 00 00 00 00 	cs nopw 0x0(%rax,%rax,1)
   147b8:	66 2e 0f 1f 84 00 00 00 00 00 	cs nopw 0x0(%rax,%rax,1)
   147c2:	66 2e 0f 1f 84 00 00 00 00 00 	cs nopw 0x0(%rax,%rax,1)
   147cc:	66 2e 0f 1f 84 00 00 00 00 00 	cs nopw 0x0(%rax,%rax,1)
   147d6:	66 2e 0f 1f 84 00 00 00 00 00 	cs nopw 0x0(%rax,%rax,1)
   147e0:	66 2e 0f 1f 84 00 00 00 00 00 	cs nopw 0x0(%rax,%rax,1)
   147ea:	66 2e 0f 1f 84 00 00 00 00 00 	cs nopw 0x0(%rax,%rax,1)
   147f4:	66 2e 0f 1f 84 00 00 00 00 00 	cs nopw 0x0(%rax,%rax,1)
   147fe:	66 2e 0f 1f 84 00 00 00 00 00 	cs nopw 0x0(%rax,%rax,1)
   14808:	66 2e 0f 1f 84 00 00 00 00 00 	cs nopw 0x0(%rax,%rax,1)
   14812:	66 2e 0f 1f 84 00 00 00 00 00 	cs nopw 0x0(%rax,%rax,1)
   1481c:	66 2e 0f 1f 84 00 00 00 00 00 	cs nopw 0x0(%rax,%rax,1)
   14826:	66 2e 0f 1f 84 00 00 00 00 00 	cs nopw 0x0(%rax,%rax,1)
   14830:	66 2e 0f 1f 84 00 00 00 00 00 	cs nopw 0x0(%rax,%rax,1)
   1483a:	66 2e 0f 1f 84 00 00 00 00 00 	cs nopw 0x0(%rax,%rax,1)
   14844:	66 2e 0f 1f 84 00 00 00 00 00 	cs nopw 0x0(%rax,%rax,1)
   1484e:	66 2e 0f 1f 84 00 00 00 00 00 	cs nopw 0x0(%rax,%rax,1)
   14858:	66 2e 0f 1f 84 00 00 00 00 00 	cs nopw 0x0(%rax,%rax,1)
   14862:	66 2e 0f 1f 84 00 00 00 00 00 	cs nopw 0x0(%rax,%rax,1)
   1486c:	66 2e 0f 1f 84 00 00 00 00 00 	cs nopw 0x0(%rax,%rax,1)
   14876:	66 2e 0f 1f 84 00 00 00 00 00 	cs nopw 0x0(%rax,%rax,1)
   14880:	66 2e 0f 1f 84 00 00 00 00 00 	cs nopw 0x0(%rax,%rax,1)
   1488a:	66 2e 0f 1f 84 00 00 00 00 00 	cs nopw 0x0(%rax,%rax,1)
   14894:	66 2e 0f 1f 84 00 00 00 00 00 	cs nopw 0x0(%rax,%rax,1)
   1489e:	66 2e 0f 1f 84 00 00 00 00 00 	cs nopw 0x0(%rax,%rax,1)
   148a8:	66 2e 0f 1f 84 00 00 00 00 00 	cs nopw 0x0(%rax,%rax,1)
   148b2:	66 2e 0f 1f 84 00 00 00 00 00 	cs nopw 0x0(%rax,%rax,1)
   148bc:	66 2e 0f 1f 84 00 00 00 00 00 	cs nopw 0x0(%rax,%rax,1)
   148c6:	66 2e 0f 1f 84 00 00 00 00 00 	cs nopw 0x0(%rax,%rax,1)
   148d0:	66 2e 0f 1f 84 00 00 00 00 00 	cs nopw 0x0(%rax,%rax,1)
   148da:	66 2e 0f 1f 84 00 00 00 00 00 	cs nopw 0x0(%rax,%rax,1)
   148e4:	66 2e 0f 1f 84 00 00 00 00 00 	cs nopw 0x0(%rax,%rax,1)
   148ee:	66 2e 0f 1f 84 00 00 00 00 00 	cs nopw 0x0(%rax,%rax,1)
   148f8:	66 2e 0f 1f 84 00 00 00 00 00 	cs nopw 0x0(%rax,%rax,1)
   14902:	66 2e 0f 1f 84 00 00 00 00 00 	cs nopw 0x0(%rax,%rax,1)
   1490c:	66 2e 0f 1f 84 00 00 00 00 00 	cs nopw 0x0(%rax,%rax,1)
   14916:	66 2e 0f 1f 84 00 00 00 00 00 	cs nopw 0x0(%rax,%rax,1)
   14920:	66 2e 0f 1f 84 00 00 00 00 00 	cs nopw 0x0(%rax,%rax,1)
   1492a:	66 2e 0f 1f 84 00 00 00 00 00 	cs nopw 0x0(%rax,%rax,1)
   14934:	66 2e 0f 1f 84 00 00 00 00 00 	cs nopw 0x0(%rax,%rax,1)
   1493e:	66 2e 0f 1f 84 00 00 00 00 00 	cs nopw 0x0(%rax,%rax,1)
   14948:	66 2e 0f 1f 84 00 00 00 00 00 	cs nopw 0x0(%rax,%rax,1)
   14952:	66 2e 0f 1f 84 00 00 00 00 00 	cs nopw 0x0(%rax,%rax,1)
   1495c:	66 2e 0f 1f 84 00 00 00 00 00 	cs nopw 0x0(%rax,%rax,1)
   14966:	66 2e 0f 1f 84 00 00 00 00 00 	cs nopw 0x0(%rax,%rax,1)
   14970:	66 2e 0f 1f 84 00 00 00 00 00 	cs nopw 0x0(%rax,%rax,1)
   1497a:	66 2e 0f 1f 84 00 00 00 00 00 	cs nopw 0x0(%rax,%rax,1)
   14984:	66 2e 0f 1f 84 00 00 00 00 00 	cs nopw 0x0(%rax,%rax,1)
   1498e:	66 2e 0f 1f 84 00 00 00 00 00 	cs nopw 0x0(%rax,%rax,1)
   14998:	66 2e 0f 1f 84 00 00 00 00 00 	cs nopw 0x0(%rax,%rax,1)
   149a2:	66 2e 0f 1f 84 00 00 00 00 00 	cs nopw 0x0(%rax,%rax,1)
   149ac:	66 2e 0f 1f 84 00 00 00 00 00 	cs nopw 0x0(%rax,%rax,1)
   149b6:	66 2e 0f 1f 84 00 00 00 00 00 	cs nopw 0x0(%rax,%rax,1)
   149c0:	66 2e 0f 1f 84 00 00 00 00 00 	cs nopw 0x0(%rax,%rax,1)
   149ca:	66 2e 0f 1f 84 00 00 00 00 00 	cs nopw 0x0(%rax,%rax,1)
   149d4:	66 2e 0f 1f 84 00 00 00 00 00 	cs nopw 0x0(%rax,%rax,1)
   149de:	66 2e 0f 1f 84 00 00 00 00 00 	cs nopw 0x0(%rax,%rax,1)
   149e8:	66 2e 0f 1f 84 00 00 00 00 00 	cs nopw 0x0(%rax,%rax,1)
   149f2:	66 2e 0f 1f 84 00 00 00 00 00 	cs nopw 0x0(%rax,%rax,1)
   149fc:	66 2e 0f 1f 84 00 00 00 00 00 	cs nopw 0x0(%rax,%rax,1)
   14a06:	66 2e 0f 1f 84 00 00 00 00 00 	cs nopw 0x0(%rax,%rax,1)
   14a10:	66 2e 0f 1f 84 00 00 00 00 00 	cs nopw 0x0(%rax,%rax,1)
   14a1a:	66 2e 0f 1f 84 00 00 00 00 00 	cs nopw 0x0(%rax,%rax,1)
   14a24:	66 2e 0f 1f 84 00 00 00 00 00 	cs nopw 0x0(%rax,%rax,1)
   14a2e:	66 2e 0f 1f 84 00 00 00 00 00 	cs nopw 0x0(%rax,%rax,1)
   14a38:	66 2e 0f 1f 84 00 00 00 00 00 	cs nopw 0x0(%rax,%rax,1)
   14a42:	66 2e 0f 1f 84 00 00 00 00 00 	cs nopw 0x0(%rax,%rax,1)
   14a4c:	66 2e 0f 1f 84 00 00 00 00 00 	cs nopw 0x0(%rax,%rax,1)
   14a56:	66 2e 0f 1f 84 00 00 00 00 00 	cs nopw 0x0(%rax,%rax,1)
   14a60:	66 2e 0f 1f 84 00 00 00 00 00 	cs nopw 0x0(%rax,%rax,1)
   14a6a:	66 2e 0f 1f 84 00 00 00 00 00 	cs nopw 0x0(%rax,%rax,1)
   14a74:	66 2e 0f 1f 84 00 00 00 00 00 	cs nopw 0x0(%rax,%rax,1)
   14a7e:	66 2e 0f 1f 84 00 00 00 00 00 	cs nopw 0x0(%rax,%rax,1)
   14a88:	66 2e 0f 1f 84 00 00 00 00 00 	cs nopw 0x0(%rax,%rax,1)
   14a92:	66 2e 0f 1f 84 00 00 00 00 00 	cs nopw 0x0(%rax,%rax,1)
   14a9c:	66 2e 0f 1f 84 00 00 00 00 00 	cs nopw 0x0(%rax,%rax,1)
   14aa6:	66 2e 0f 1f 84 00 00 00 00 00 	cs nopw 0x0(%rax,%rax,1)
   14ab0:	66 2e 0f 1f 84 00 00 00 00 00 	cs nopw 0x0(%rax,%rax,1)
   14aba:	66 2e 0f 1f 84 00 00 00 00 00 	cs nopw 0x0(%rax,%rax,1)
   14ac4:	66 2e 0f 1f 84 00 00 00 00 00 	cs nopw 0x0(%rax,%rax,1)
   14ace:	66 2e 0f 1f 84 00 00 00 00 00 	cs nopw 0x0(%rax,%rax,1)
   14ad8:	66 2e 0f 1f 84 00 00 00 00 00 	cs nopw 0x0(%rax,%rax,1)
   14ae2:	66 2e 0f 1f 84 00 00 00 00 00 	cs nopw 0x0(%rax,%rax,1)
   14aec:	66 2e 0f 1f 84 00 00 00 00 00 	cs nopw 0x0(%rax,%rax,1)
   14af6:	66 2e 0f 1f 84 00 00 00 00 00 	cs nopw 0x0(%rax,%rax,1)
   14b00:	66 2e 0f 1f 84 00 00 00 00 00 	cs nopw 0x0(%rax,%rax,1)
   14b0a:	66 2e 0f 1f 84 00 00 00 00 00 	cs nopw 0x0(%rax,%rax,1)
   14b14:	66 2e 0f 1f 84 00 00 00 00 00 	cs nopw 0x0(%rax,%rax,1)
   14b1e:	66 2e 0f 1f 84 00 00 00 00 00 	cs nopw 0x0(%rax,%rax,1)
   14b28:	66 2e 0f 1f 84 00 00 00 00 00 	cs nopw 0x0(%rax,%rax,1)
   14b32:	66 2e 0f 1f 84 00 00 00 00 00 	cs nopw 0x0(%rax,%rax,1)
   14b3c:	66 2e 0f 1f 84 00 00 00 00 00 	cs nopw 0x0(%rax,%rax,1)
   14b46:	66 2e 0f 1f 84 00 00 00 00 00 	cs nopw 0x0(%rax,%rax,1)
   14b50:	66 2e 0f 1f 84 00 00 00 00 00 	cs nopw 0x0(%rax,%rax,1)
   14b5a:	66 2e 0f 1f 84 00 00 00 00 00 	cs nopw 0x0(%rax,%rax,1)
   14b64:	66 2e 0f 1f 84 00 00 00 00 00 	cs nopw 0x0(%rax,%rax,1)
   14b6e:	66 2e 0f 1f 84 00 00 00 00 00 	cs nopw 0x0(%rax,%rax,1)
   14b78:	66 2e 0f 1f 84 00 00 00 00 00 	cs nopw 0x0(%rax,%rax,1)
   14b82:	66 2e 0f 1f 84 00 00 00 00 00 	cs nopw 0x0(%rax,%rax,1)
   14b8c:	66 2e 0f 1f 84 00 00 00 00 00 	cs nopw 0x0(%rax,%rax,1)
   14b96:	66 2e 0f 1f 84 00 00 00 00 00 	cs nopw 0x0(%rax,%rax,1)
   14ba0:	66 2e 0f 1f 84 00 00 00 00 00 	cs nopw 0x0(%rax,%rax,1)
   14baa:	66 2e 0f 1f 84 00 00 00 00 00 	cs nopw 0x0(%rax,%rax,1)
   14bb4:	66 2e 0f 1f 84 00 00 00 00 00 	cs nopw 0x0(%rax,%rax,1)
   14bbe:	66 2e 0f 1f 84 00 00 00 00 00 	cs nopw 0x0(%rax,%rax,1)
   14bc8:	66 2e 0f 1f 84 00 00 00 00 00 	cs nopw 0x0(%rax,%rax,1)
   14bd2:	66 2e 0f 1f 84 00 00 00 00 00 	cs nopw 0x0(%rax,%rax,1)
   14bdc:	66 2e 0f 1f 84 00 00 00 00 00 	cs nopw 0x0(%rax,%rax,1)
   14be6:	66 2e 0f 1f 84 00 00 00 00 00 	cs nopw 0x0(%rax,%rax,1)
   14bf0:	66 2e 0f 1f 84 00 00 00 00 00 	cs nopw 0x0(%rax,%rax,1)
   14bfa:	66 2e 0f 1f 84 00 00 00 00 00 	cs nopw 0x0(%rax,%rax,1)
   14c04:	66 2e 0f 1f 84 00 00 00 00 00 	cs nopw 0x0(%rax,%rax,1)
   14c0e:	66 2e 0f 1f 84 00 00 00 00 00 	cs nopw 0x0(%rax,%rax,1)
   14c18:	66 2e 0f 1f 84 00 00 00 00 00 	cs nopw 0x0(%rax,%rax,1)
   14c22:	66 2e 0f 1f 84 00 00 00 00 00 	cs nopw 0x0(%rax,%rax,1)
   14c2c:	66 2e 0f 1f 84 00 00 00 00 00 	cs nopw 0x0(%rax,%rax,1)
   14c36:	66 2e 0f 1f 84 00 00 00 00 00 	cs nopw 0x0(%rax,%rax,1)
   14c40:	66 2e 0f 1f 84 00 00 00 00 00 	cs nopw 0x0(%rax,%rax,1)
   14c4a:	66 2e 0f 1f 84 00 00 00 00 00 	cs nopw 0x0(%rax,%rax,1)
   14c54:	66 2e 0f 1f 84 00 00 00 00 00 	cs nopw 0x0(%rax,%rax,1)
   14c5e:	66 2e 0f 1f 84 00 00 00 00 00 	cs nopw 0x0(%rax,%rax,1)
   14c68:	66 2e 0f 1f 84 00 00 00 00 00 	cs nopw 0x0(%rax,%rax,1)
   14c72:	66 2e 0f 1f 84 00 00 00 00 00 	cs nopw 0x0(%rax,%rax,1)
   14c7c:	66 2e 0f 1f 84 00 00 00 00 00 	cs nopw 0x0(%rax,%rax,1)
   14c86:	66 2e 0f 1f 84 00 00 00 00 00 	cs nopw 0x0(%rax,%rax,1)
   14c90:	66 2e 0f 1f 84 00 00 00 00 00 	cs nopw 0x0(%rax,%rax,1)
   14c9a:	66 2e 0f 1f 84 00 00 00 00 00 	cs nopw 0x0(%rax,%rax,1)
   14ca4:	66 2e 0f 1f 84 00 00 00 00 00 	cs nopw 0x0(%rax,%rax,1)
   14cae:	66 2e 0f 1f 84 00 00 00 00 00 	cs nopw 0x0(%rax,%rax,1)
   14cb8:	66 2e 0f 1f 84 00 00 00 00 00 	cs nopw 0x0(%rax,%rax,1)
   14cc2:	66 2e 0f 1f 84 00 00 00 00 00 	cs nopw 0x0(%rax,%rax,1)
   14ccc:	66 2e 0f 1f 84 00 00 00 00 00 	cs nopw 0x0(%rax,%rax,1)
   14cd6:	66 2e 0f 1f 84 00 00 00 00 00 	cs nopw 0x0(%rax,%rax,1)
   14ce0:	66 2e 0f 1f 84 00 00 00 00 00 	cs nopw 0x0(%rax,%rax,1)
   14cea:	66 2e 0f 1f 84 00 00 00 00 00 	cs nopw 0x0(%rax,%rax,1)
   14cf4:	66 2e 0f 1f 84 00 00 00 00 00 	cs nopw 0x0(%rax,%rax,1)
   14cfe:	66 2e 0f 1f 84 00 00 00 00 00 	cs nopw 0x0(%rax,%rax,1)
   14d08:	66 2e 0f 1f 84 00 00 00 00 00 	cs nopw 0x0(%rax,%rax,1)
   14d12:	66 2e 0f 1f 84 00 00 00 00 00 	cs nopw 0x0(%rax,%rax,1)
   14d1c:	66 2e 0f 1f 84 00 00 00 00 00 	cs nopw 0x0(%rax,%rax,1)
   14d26:	66 2e 0f 1f 84 00 00 00 00 00 	cs nopw 0x0(%rax,%rax,1)
   14d30:	66 2e 0f 1f 84 00 00 00 00 00 	cs nopw 0x0(%rax,%rax,1)
   14d3a:	66 2e 0f 1f 84 00 00 00 00 00 	cs nopw 0x0(%rax,%rax,1)
   14d44:	66 2e 0f 1f 84 00 00 00 00 00 	cs nopw 0x0(%rax,%rax,1)
   14d4e:	66 2e 0f 1f 84 00 00 00 00 00 	cs nopw 0x0(%rax,%rax,1)
   14d58:	66 2e 0f 1f 84 00 00 00 00 00 	cs nopw 0x0(%rax,%rax,1)
   14d62:	66 2e 0f 1f 84 00 00 00 00 00 	cs nopw 0x0(%rax,%rax,1)
   14d6c:	66 2e 0f 1f 84 00 00 00 00 00 	cs nopw 0x0(%rax,%rax,1)
   14d76:	66 2e 0f 1f 84 00 00 00 00 00 	cs nopw 0x0(%rax,%rax,1)
   14d80:	66 2e 0f 1f 84 00 00 00 00 00 	cs nopw 0x0(%rax,%rax,1)
   14d8a:	66 2e 0f 1f 84 00 00 00 00 00 	cs nopw 0x0(%rax,%rax,1)
   14d94:	66 2e 0f 1f 84 00 00 00 00 00 	cs nopw 0x0(%rax,%rax,1)
   14d9e:	66 2e 0f 1f 84 00 00 00 00 00 	cs nopw 0x0(%rax,%rax,1)
   14da8:	66 2e 0f 1f 84 00 00 00 00 00 	cs nopw 0x0(%rax,%rax,1)
   14db2:	66 2e 0f 1f 84 00 00 00 00 00 	cs nopw 0x0(%rax,%rax,1)
   14dbc:	66 2e 0f 1f 84 00 00 00 00 00 	cs nopw 0x0(%rax,%rax,1)
   14dc6:	66 2e 0f 1f 84 00 00 00 00 00 	cs nopw 0x0(%rax,%rax,1)
   14dd0:	66 2e 0f 1f 84 00 00 00 00 00 	cs nopw 0x0(%rax,%rax,1)
   14dda:	66 2e 0f 1f 84 00 00 00 00 00 	cs nopw 0x0(%rax,%rax,1)
   14de4:	66 2e 0f 1f 84 00 00 00 00 00 	cs nopw 0x0(%rax,%rax,1)
   14dee:	66 2e 0f 1f 84 00 00 00 00 00 	cs nopw 0x0(%rax,%rax,1)
   14df8:	66 2e 0f 1f 84 00 00 00 00 00 	cs nopw 0x0(%rax,%rax,1)
   14e02:	66 2e 0f 1f 84 00 00 00 00 00 	cs nopw 0x0(%rax,%rax,1)
   14e0c:	66 2e 0f 1f 84 00 00 00 00 00 	cs nopw 0x0(%rax,%rax,1)
   14e16:	66 2e 0f 1f 84 00 00 00 00 00 	cs nopw 0x0(%rax,%rax,1)
   14e20:	66 2e 0f 1f 84 00 00 00 00 00 	cs nopw 0x0(%rax,%rax,1)
   14e2a:	66 2e 0f 1f 84 00 00 00 00 00 	cs nopw 0x0(%rax,%rax,1)
   14e34:	66 2e 0f 1f 84 00 00 00 00 00 	cs nopw 0x0(%rax,%rax,1)
   14e3e:	66 2e 0f 1f 84 00 00 00 00 00 	cs nopw 0x0(%rax,%rax,1)
   14e48:	66 2e 0f 1f 84 00 00 00 00 00 	cs nopw 0x0(%rax,%rax,1)
   14e52:	66 2e 0f 1f 84 00 00 00 00 00 	cs nopw 0x0(%rax,%rax,1)
   14e5c:	66 2e 0f 1f 84 00 00 00 00 00 	cs nopw 0x0(%rax,%rax,1)
   14e66:	66 2e 0f 1f 84 00 00 00 00 00 	cs nopw 0x0(%rax,%rax,1)
   14e70:	66 2e 0f 1f 84 00 00 00 00 00 	cs nopw 0x0(%rax,%rax,1)
   14e7a:	66 2e 0f 1f 84 00 00 00 00 00 	cs nopw 0x0(%rax,%rax,1)
   14e84:	66 2e 0f 1f 84 00 00 00 00 00 	cs nopw 0x0(%rax,%rax,1)
   14e8e:	66 2e 0f 1f 84 00 00 00 00 00 	cs nopw 0x0(%rax,%rax,1)
   14e98:	66 2e 0f 1f 84 00 00 00 00 00 	cs nopw 0x0(%rax,%rax,1)
   14ea2:	66 2e 0f 1f 84 00 00 00 00 00 	cs nopw 0x0(%rax,%rax,1)
   14eac:	66 2e 0f 1f 84 00 00 00 00 00 	cs nopw 0x0(%rax,%rax,1)
   14eb6:	66 2e 0f 1f 84 00 00 00 00 00 	cs nopw 0x0(%rax,%rax,1)
   14ec0:	66 2e 0f 1f 84 00 00 00 00 00 	cs nopw 0x0(%rax,%rax,1)
   14eca:	66 2e 0f 1f 84 00 00 00 00 00 	cs nopw 0x0(%rax,%rax,1)
   14ed4:	66 2e 0f 1f 84 00 00 00 00 00 	cs nopw 0x0(%rax,%rax,1)
   14ede:	66 2e 0f 1f 84 00 00 00 00 00 	cs nopw 0x0(%rax,%rax,1)
   14ee8:	66 2e 0f 1f 84 00 00 00 00 00 	cs nopw 0x0(%rax,%rax,1)
   14ef2:	66 2e 0f 1f 84 00 00 00 00 00 	cs nopw 0x0(%rax,%rax,1)
   14efc:	66 2e 0f 1f 84 00 00 00 00 00 	cs nopw 0x0(%rax,%rax,1)
   14f06:	66 2e 0f 1f 84 00 00 00 00 00 	cs nopw 0x0(%rax,%rax,1)
   14f10:	66 2e 0f 1f 84 00 00 00 00 00 	cs nopw 0x0(%rax,%rax,1)
   14f1a:	66 2e 0f 1f 84 00 00 00 00 00 	cs nopw 0x0(%rax,%rax,1)
   14f24:	66 2e 0f 1f 84 00 00 00 00 00 	cs nopw 0x0(%rax,%rax,1)
   14f2e:	66 2e 0f 1f 84 00 00 00 00 00 	cs nopw 0x0(%rax,%rax,1)
   14f38:	66 2e 0f 1f 84 00 00 00 00 00 	cs nopw 0x0(%rax,%rax,1)
   14f42:	66 2e 0f 1f 84 00 00 00 00 00 	cs nopw 0x0(%rax,%rax,1)
   14f4c:	66 2e 0f 1f 84 00 00 00 00 00 	cs nopw 0x0(%rax,%rax,1)
   14f56:	66 2e 0f 1f 84 00 00 00 00 00 	cs nopw 0x0(%rax,%rax,1)
   14f60:	66 2e 0f 1f 84 00 00 00 00 00 	cs nopw 0x0(%rax,%rax,1)
   14f6a:	66 2e 0f 1f 84 00 00 00 00 00 	cs nopw 0x0(%rax,%rax,1)
   14f74:	66 2e 0f 1f 84 00 00 00 00 00 	cs nopw 0x0(%rax,%rax,1)
   14f7e:	66 2e 0f 1f 84 00 00 00 00 00 	cs nopw 0x0(%rax,%rax,1)
   14f88:	66 2e 0f 1f 84 00 00 00 00 00 	cs nopw 0x0(%rax,%rax,1)
   14f92:	66 2e 0f 1f 84 00 00 00 00 00 	cs nopw 0x0(%rax,%rax,1)
   14f9c:	66 2e 0f 1f 84 00 00 00 00 00 	cs nopw 0x0(%rax,%rax,1)
   14fa6:	66 2e 0f 1f 84 00 00 00 00 00 	cs nopw 0x0(%rax,%rax,1)
   14fb0:	66 2e 0f 1f 84 00 00 00 00 00 	cs nopw 0x0(%rax,%rax,1)
   14fba:	66 2e 0f 1f 84 00 00 00 00 00 	cs nopw 0x0(%rax,%rax,1)
   14fc4:	66 2e 0f 1f 84 00 00 00 00 00 	cs nopw 0x0(%rax,%rax,1)
   14fce:	66 2e 0f 1f 84 00 00 00 00 00 	cs nopw 0x0(%rax,%rax,1)
   14fd8:	66 2e 0f 1f 84 00 00 00 00 00 	cs nopw 0x0(%rax,%rax,1)
   14fe2:	66 2e 0f 1f 84 00 00 00 00 00 	cs nopw 0x0(%rax,%rax,1)
   14fec:	66 2e 0f 1f 84 00 00 00 00 00 	cs nopw 0x0(%rax,%rax,1)
   14ff6:	66 2e 0f 1f 84 00 00 00 00 00 	cs nopw 0x0(%rax,%rax,1)
   15000:	66 2e 0f 1f 84 00 00 00 00 00 	cs nopw 0x0(%rax,%rax,1)
   1500a:	66 2e 0f 1f 84 00 00 00 00 00 	cs nopw 0x0(%rax,%rax,1)
   15014:	66 2e 0f 1f 84 00 00 00 00 00 	cs nopw 0x0(%rax,%rax,1)
   1501e:	66 2e 0f 1f 84 00 00 00 00 00 	cs nopw 0x0(%rax,%rax,1)
   15028:	66 2e 0f 1f 84 00 00 00 00 00 	cs nopw 0x0(%rax,%rax,1)
   15032:	66 2e 0f 1f 84 00 00 00 00 00 	cs nopw 0x0(%rax,%rax,1)
   1503c:	66 2e 0f 1f 84 00 00 00 00 00 	cs nopw 0x0(%rax,%rax,1)
   15046:	66 2e 0f 1f 84 00 00 00 00 00 	cs nopw 0x0(%rax,%rax,1)
   15050:	66 2e 0f 1f 84 00 00 00 00 00 	cs nopw 0x0(%rax,%rax,1)
   1505a:	66 2e 0f 1f 84 00 00 00 00 00 	cs nopw 0x0(%rax,%rax,1)
   15064:	66 2e 0f 1f 84 00 00 00 00 00 	cs nopw 0x0(%rax,%rax,1)
   1506e:	66 2e 0f 1f 84 00 00 00 00 00 	cs nopw 0x0(%rax,%rax,1)
   15078:	66 2e 0f 1f 84 00 00 00 00 00 	cs nopw 0x0(%rax,%rax,1)
   15082:	66 2e 0f 1f 84 00 00 00 00 00 	cs nopw 0x0(%rax,%rax,1)
   1508c:	66 2e 0f 1f 84 00 00 00 00 00 	cs nopw 0x0(%rax,%rax,1)
   15096:	66 2e 0f 1f 84 00 00 00 00 00 	cs nopw 0x0(%rax,%rax,1)
   150a0:	66 2e 0f 1f 84 00 00 00 00 00 	cs nopw 0x0(%rax,%rax,1)
   150aa:	66 2e 0f 1f 84 00 00 00 00 00 	cs nopw 0x0(%rax,%rax,1)
   150b4:	66 2e 0f 1f 84 00 00 00 00 00 	cs nopw 0x0(%rax,%rax,1)
   150be:	66 2e 0f 1f 84 00 00 00 00 00 	cs nopw 0x0(%rax,%rax,1)
   150c8:	66 2e 0f 1f 84 00 00 00 00 00 	cs nopw 0x0(%rax,%rax,1)
   150d2:	66 2e 0f 1f 84 00 00 00 00 00 	cs nopw 0x0(%rax,%rax,1)
   150dc:	66 2e 0f 1f 84 00 00 00 00 00 	cs nopw 0x0(%rax,%rax,1)
   150e6:	66 2e 0f 1f 84 00 00 00 00 00 	cs nopw 0x0(%rax,%rax,1)
   150f0:	66 2e 0f 1f 84 00 00 00 00 00 	cs nopw 0x0(%rax,%rax,1)
   150fa:	66 2e 0f 1f 84 00 00 00 00 00 	cs nopw 0x0(%rax,%rax,1)
   15104:	66 2e 0f 1f 84 00 00 00 00 00 	cs nopw 0x0(%rax,%rax,1)
   1510e:	66 2e 0f 1f 84 00 00 00 00 00 	cs nopw 0x0(%rax,%rax,1)
   15118:	66 2e 0f 1f 84 00 00 00 00 00 	cs nopw 0x0(%rax,%rax,1)
   15122:	66 2e 0f 1f 84 00 00 00 00 00 	cs nopw 0x0(%rax,%rax,1)
   1512c:	66 2e 0f 1f 84 00 00 00 00 00 	cs nopw 0x0(%rax,%rax,1)
   15136:	66 2e 0f 1f 84 00 00 00 00 00 	cs nopw 0x0(%rax,%rax,1)
   15140:	66 2e 0f 1f 84 00 00 00 00 00 	cs nopw 0x0(%rax,%rax,1)
   1514a:	66 2e 0f 1f 84 00 00 00 00 00 	cs nopw 0x0(%rax,%rax,1)
   15154:	66 2e 0f 1f 84 00 00 00 00 00 	cs nopw 0x0(%rax,%rax,1)
   1515e:	66 2e 0f 1f 84 00 00 00 00 00 	cs nopw 0x0(%rax,%rax,1)
   15168:	66 2e 0f 1f 84 00 00 00 00 00 	cs nopw 0x0(%rax,%rax,1)
   15172:	66 2e 0f 1f 84 00 00 00 00 00 	cs nopw 0x0(%rax,%rax,1)
   1517c:	66 2e 0f 1f 84 00 00 00 00 00 	cs nopw 0x0(%rax,%rax,1)
   15186:	66 2e 0f 1f 84 00 00 00 00 00 	cs nopw 0x0(%rax,%rax,1)
   15190:	66 2e 0f 1f 84 00 00 00 00 00 	cs nopw 0x0(%rax,%rax,1)
   1519a:	66 2e 0f 1f 84 00 00 00 00 00 	cs nopw 0x0(%rax,%rax,1)
   151a4:	66 2e 0f 1f 84 00 00 00 00 00 	cs nopw 0x0(%rax,%rax,1)
   151ae:	66 2e 0f 1f 84 00 00 00 00 00 	cs nopw 0x0(%rax,%rax,1)
   151b8:	66 2e 0f 1f 84 00 00 00 00 00 	cs nopw 0x0(%rax,%rax,1)
   151c2:	66 2e 0f 1f 84 00 00 00 00 00 	cs nopw 0x0(%rax,%rax,1)
   151cc:	66 2e 0f 1f 84 00 00 00 00 00 	cs nopw 0x0(%rax,%rax,1)
   151d6:	66 2e 0f 1f 84 00 00 00 00 00 	cs nopw 0x0(%rax,%rax,1)
   151e0:	66 2e 0f 1f 84 00 00 00 00 00 	cs nopw 0x0(%rax,%rax,1)
   151ea:	66 2e 0f 1f 84 00 00 00 00 00 	cs nopw 0x0(%rax,%rax,1)
   151f4:	66 2e 0f 1f 84 00 00 00 00 00 	cs nopw 0x0(%rax,%rax,1)
   151fe:	66 2e 0f 1f 84 00 00 00 00 00 	cs nopw 0x0(%rax,%rax,1)
   15208:	66 2e 0f 1f 84 00 00 00 00 00 	cs nopw 0x0(%rax,%rax,1)
   15212:	66 2e 0f 1f 84 00 00 00 00 00 	cs nopw 0x0(%rax,%rax,1)
   1521c:	66 2e 0f 1f 84 00 00 00 00 00 	cs nopw 0x0(%rax,%rax,1)
   15226:	66 2e 0f 1f 84 00 00 00 00 00 	cs nopw 0x0(%rax,%rax,1)
   15230:	66 2e 0f 1f 84 00 00 00 00 00 	cs nopw 0x0(%rax,%rax,1)
   1523a:	66 2e 0f 1f 84 00 00 00 00 00 	cs nopw 0x0(%rax,%rax,1)
   15244:	66 2e 0f 1f 84 00 00 00 00 00 	cs nopw 0x0(%rax,%rax,1)
   1524e:	66 2e 0f 1f 84 00 00 00 00 00 	cs nopw 0x0(%rax,%rax,1)
   15258:	66 2e 0f 1f 84 00 00 00 00 00 	cs nopw 0x0(%rax,%rax,1)
   15262:	66 2e 0f 1f 84 00 00 00 00 00 	cs nopw 0x0(%rax,%rax,1)
   1526c:	66 2e 0f 1f 84 00 00 00 00 00 	cs nopw 0x0(%rax,%rax,1)
   15276:	66 2e 0f 1f 84 00 00 00 00 00 	cs nopw 0x0(%rax,%rax,1)
   15280:	66 2e 0f 1f 84 00 00 00 00 00 	cs nopw 0x0(%rax,%rax,1)
   1528a:	66 2e 0f 1f 84 00 00 00 00 00 	cs nopw 0x0(%rax,%rax,1)
   15294:	66 2e 0f 1f 84 00 00 00 00 00 	cs nopw 0x0(%rax,%rax,1)
   1529e:	66 2e 0f 1f 84 00 00 00 00 00 	cs nopw 0x0(%rax,%rax,1)
   152a8:	66 2e 0f 1f 84 00 00 00 00 00 	cs nopw 0x0(%rax,%rax,1)
   152b2:	66 2e 0f 1f 84 00 00 00 00 00 	cs nopw 0x0(%rax,%rax,1)
   152bc:	66 2e 0f 1f 84 00 00 00 00 00 	cs nopw 0x0(%rax,%rax,1)
   152c6:	66 2e 0f 1f 84 00 00 00 00 00 	cs nopw 0x0(%rax,%rax,1)
   152d0:	66 2e 0f 1f 84 00 00 00 00 00 	cs nopw 0x0(%rax,%rax,1)
   152da:	66 2e 0f 1f 84 00 00 00 00 00 	cs nopw 0x0(%rax,%rax,1)
   152e4:	66 2e 0f 1f 84 00 00 00 00 00 	cs nopw 0x0(%rax,%rax,1)
   152ee:	66 2e 0f 1f 84 00 00 00 00 00 	cs nopw 0x0(%rax,%rax,1)
   152f8:	66 2e 0f 1f 84 00 00 00 00 00 	cs nopw 0x0(%rax,%rax,1)
   15302:	66 2e 0f 1f 84 00 00 00 00 00 	cs nopw 0x0(%rax,%rax,1)
   1530c:	66 2e 0f 1f 84 00 00 00 00 00 	cs nopw 0x0(%rax,%rax,1)
   15316:	66 2e 0f 1f 84 00 00 00 00 00 	cs nopw 0x0(%rax,%rax,1)
   15320:	66 2e 0f 1f 84 00 00 00 00 00 	cs nopw 0x0(%rax,%rax,1)
   1532a:	66 2e 0f 1f 84 00 00 00 00 00 	cs nopw 0x0(%rax,%rax,1)
   15334:	66 2e 0f 1f 84 00 00 00 00 00 	cs nopw 0x0(%rax,%rax,1)
   1533e:	66 2e 0f 1f 84 00 00 00 00 00 	cs nopw 0x0(%rax,%rax,1)
   15348:	66 2e 0f 1f 84 00 00 00 00 00 	cs nopw 0x0(%rax,%rax,1)
   15352:	66 2e 0f 1f 84 00 00 00 00 00 	cs nopw 0x0(%rax,%rax,1)
   1535c:	66 2e 0f 1f 84 00 00 00 00 00 	cs nopw 0x0(%rax,%rax,1)
   15366:	66 2e 0f 1f 84 00 00 00 00 00 	cs nopw 0x0(%rax,%rax,1)
   15370:	66 2e 0f 1f 84 00 00 00 00 00 	cs nopw 0x0(%rax,%rax,1)
   1537a:	66 2e 0f 1f 84 00 00 00 00 00 	cs nopw 0x0(%rax,%rax,1)
   15384:	66 2e 0f 1f 84 00 00 00 00 00 	cs nopw 0x0(%rax,%rax,1)
   1538e:	66 2e 0f 1f 84 00 00 00 00 00 	cs nopw 0x0(%rax,%rax,1)
   15398:	66 2e 0f 1f 84 00 00 00 00 00 	cs nopw 0x0(%rax,%rax,1)
   153a2:	66 2e 0f 1f 84 00 00 00 00 00 	cs nopw 0x0(%rax,%rax,1)
   153ac:	66 2e 0f 1f 84 00 00 00 00 00 	cs nopw 0x0(%rax,%rax,1)
   153b6:	66 2e 0f 1f 84 00 00 00 00 00 	cs nopw 0x0(%rax,%rax,1)
   153c0:	66 2e 0f 1f 84 00 00 00 00 00 	cs nopw 0x0(%rax,%rax,1)
   153ca:	66 2e 0f 1f 84 00 00 00 00 00 	cs nopw 0x0(%rax,%rax,1)
   153d4:	66 2e 0f 1f 84 00 00 00 00 00 	cs nopw 0x0(%rax,%rax,1)
   153de:	66 2e 0f 1f 84 00 00 00 00 00 	cs nopw 0x0(%rax,%rax,1)
   153e8:	66 2e 0f 1f 84 00 00 00 00 00 	cs nopw 0x0(%rax,%rax,1)
   153f2:	66 2e 0f 1f 84 00 00 00 00 00 	cs nopw 0x0(%rax,%rax,1)
   153fc:	66 2e 0f 1f 84 00 00 00 00 00 	cs nopw 0x0(%rax,%rax,1)
   15406:	66 2e 0f 1f 84 00 00 00 00 00 	cs nopw 0x0(%rax,%rax,1)
   15410:	66 2e 0f 1f 84 00 00 00 00 00 	cs nopw 0x0(%rax,%rax,1)
   1541a:	66 2e 0f 1f 84 00 00 00 00 00 	cs nopw 0x0(%rax,%rax,1)
   15424:	66 2e 0f 1f 84 00 00 00 00 00 	cs nopw 0x0(%rax,%rax,1)
   1542e:	66 2e 0f 1f 84 00 00 00 00 00 	cs nopw 0x0(%rax,%rax,1)
   15438:	66 2e 0f 1f 84 00 00 00 00 00 	cs nopw 0x0(%rax,%rax,1)
   15442:	66 2e 0f 1f 84 00 00 00 00 00 	cs nopw 0x0(%rax,%rax,1)
   1544c:	66 2e 0f 1f 84 00 00 00 00 00 	cs nopw 0x0(%rax,%rax,1)
   15456:	66 2e 0f 1f 84 00 00 00 00 00 	cs nopw 0x0(%rax,%rax,1)
   15460:	66 2e 0f 1f 84 00 00 00 00 00 	cs nopw 0x0(%rax,%rax,1)
   1546a:	66 2e 0f 1f 84 00 00 00 00 00 	cs nopw 0x0(%rax,%rax,1)
   15474:	66 2e 0f 1f 84 00 00 00 00 00 	cs nopw 0x0(%rax,%rax,1)
   1547e:	66 2e 0f 1f 84 00 00 00 00 00 	cs nopw 0x0(%rax,%rax,1)
   15488:	66 2e 0f 1f 84 00 00 00 00 00 	cs nopw 0x0(%rax,%rax,1)
   15492:	66 2e 0f 1f 84 00 00 00 00 00 	cs nopw 0x0(%rax,%rax,1)
   1549c:	66 2e 0f 1f 84 00 00 00 00 00 	cs nopw 0x0(%rax,%rax,1)
   154a6:	66 2e 0f 1f 84 00 00 00 00 00 	cs nopw 0x0(%rax,%rax,1)
   154b0:	66 2e 0f 1f 84 00 00 00 00 00 	cs nopw 0x0(%rax,%rax,1)
   154ba:	66 2e 0f 1f 84 00 00 00 00 00 	cs nopw 0x0(%rax,%rax,1)
   154c4:	66 2e 0f 1f 84 00 00 00 00 00 	cs nopw 0x0(%rax,%rax,1)
   154ce:	66 2e 0f 1f 84 00 00 00 00 00 	cs nopw 0x0(%rax,%rax,1)
   154d8:	66 2e 0f 1f 84 00 00 00 00 00 	cs nopw 0x0(%rax,%rax,1)
   154e2:	66 2e 0f 1f 84 00 00 00 00 00 	cs nopw 0x0(%rax,%rax,1)
   154ec:	66 2e 0f 1f 84 00 00 00 00 00 	cs nopw 0x0(%rax,%rax,1)
   154f6:	66 2e 0f 1f 84 00 00 00 00 00 	cs nopw 0x0(%rax,%rax,1)
   15500:	66 2e 0f 1f 84 00 00 00 00 00 	cs nopw 0x0(%rax,%rax,1)
   1550a:	66 2e 0f 1f 84 00 00 00 00 00 	cs nopw 0x0(%rax,%rax,1)
   15514:	66 2e 0f 1f 84 00 00 00 00 00 	cs nopw 0x0(%rax,%rax,1)
   1551e:	66 2e 0f 1f 84 00 00 00 00 00 	cs nopw 0x0(%rax,%rax,1)
   15528:	66 2e 0f 1f 84 00 00 00 00 00 	cs nopw 0x0(%rax,%rax,1)
   15532:	66 2e 0f 1f 84 00 00 00 00 00 	cs nopw 0x0(%rax,%rax,1)
   1553c:	66 2e 0f 1f 84 00 00 00 00 00 	cs nopw 0x0(%rax,%rax,1)
   15546:	66 2e 0f 1f 84 00 00 00 00 00 	cs nopw 0x0(%rax,%rax,1)
   15550:	66 2e 0f 1f 84 00 00 00 00 00 	cs nopw 0x0(%rax,%rax,1)
   1555a:	66 2e 0f 1f 84 00 00 00 00 00 	cs nopw 0x0(%rax,%rax,1)
   15564:	66 2e 0f 1f 84 00 00 00 00 00 	cs nopw 0x0(%rax,%rax,1)
   1556e:	66 2e 0f 1f 84 00 00 00 00 00 	cs nopw 0x0(%rax,%rax,1)
   15578:	66 2e 0f 1f 84 00 00 00 00 00 	cs nopw 0x0(%rax,%rax,1)
   15582:	66 2e 0f 1f 84 00 00 00 00 00 	cs nopw 0x0(%rax,%rax,1)
   1558c:	66 2e 0f 1f 84 00 00 00 00 00 	cs nopw 0x0(%rax,%rax,1)
   15596:	66 2e 0f 1f 84 00 00 00 00 00 	cs nopw 0x0(%rax,%rax,1)
   155a0:	66 2e 0f 1f 84 00 00 00 00 00 	cs nopw 0x0(%rax,%rax,1)
   155aa:	66 2e 0f 1f 84 00 00 00 00 00 	cs nopw 0x0(%rax,%rax,1)
   155b4:	66 2e 0f 1f 84 00 00 00 00 00 	cs nopw 0x0(%rax,%rax,1)
   155be:	66 2e 0f 1f 84 00 00 00 00 00 	cs nopw 0x0(%rax,%rax,1)
   155c8:	66 2e 0f 1f 84 00 00 00 00 00 	cs nopw 0x0(%rax,%rax,1)
   155d2:	66 2e 0f 1f 84 00 00 00 00 00 	cs nopw 0x0(%rax,%rax,1)
   155dc:	66 2e 0f 1f 84 00 00 00 00 00 	cs nopw 0x0(%rax,%rax,1)
   155e6:	66 2e 0f 1f 84 00 00 00 00 00 	cs nopw 0x0(%rax,%rax,1)
   155f0:	66 2e 0f 1f 84 00 00 00 00 00 	cs nopw 0x0(%rax,%rax,1)
   155fa:	66 2e 0f 1f 84 00 00 00 00 00 	cs nopw 0x0(%rax,%rax,1)
   15604:	66 2e 0f 1f 84 00 00 00 00 00 	cs nopw 0x0(%rax,%rax,1)
   1560e:	66 2e 0f 1f 84 00 00 00 00 00 	cs nopw 0x0(%rax,%rax,1)
   15618:	66 2e 0f 1f 84 00 00 00 00 00 	cs nopw 0x0(%rax,%rax,1)
   15622:	66 2e 0f 1f 84 00 00 00 00 00 	cs nopw 0x0(%rax,%rax,1)
   1562c:	66 2e 0f 1f 84 00 00 00 00 00 	cs nopw 0x0(%rax,%rax,1)
   15636:	66 2e 0f 1f 84 00 00 00 00 00 	cs nopw 0x0(%rax,%rax,1)
   15640:	66 2e 0f 1f 84 00 00 00 00 00 	cs nopw 0x0(%rax,%rax,1)
   1564a:	66 2e 0f 1f 84 00 00 00 00 00 	cs nopw 0x0(%rax,%rax,1)
   15654:	66 2e 0f 1f 84 00 00 00 00 00 	cs nopw 0x0(%rax,%rax,1)
   1565e:	66 2e 0f 1f 84 00 00 00 00 00 	cs nopw 0x0(%rax,%rax,1)
   15668:	66 2e 0f 1f 84 00 00 00 00 00 	cs nopw 0x0(%rax,%rax,1)
   15672:	66 2e 0f 1f 84 00 00 00 00 00 	cs nopw 0x0(%rax,%rax,1)
   1567c:	66 2e 0f 1f 84 00 00 00 00 00 	cs nopw 0x0(%rax,%rax,1)
   15686:	66 2e 0f 1f 84 00 00 00 00 00 	cs nopw 0x0(%rax,%rax,1)
   15690:	66 2e 0f 1f 84 00 00 00 00 00 	cs nopw 0x0(%rax,%rax,1)
   1569a:	66 2e 0f 1f 84 00 00 00 00 00 	cs nopw 0x0(%rax,%rax,1)
   156a4:	66 2e 0f 1f 84 00 00 00 00 00 	cs nopw 0x0(%rax,%rax,1)
   156ae:	66 2e 0f 1f 84 00 00 00 00 00 	cs nopw 0x0(%rax,%rax,1)
   156b8:	66 2e 0f 1f 84 00 00 00 00 00 	cs nopw 0x0(%rax,%rax,1)
   156c2:	66 2e 0f 1f 84 00 00 00 00 00 	cs nopw 0x0(%rax,%rax,1)
   156cc:	66 2e 0f 1f 84 00 00 00 00 00 	cs nopw 0x0(%rax,%rax,1)
   156d6:	66 2e 0f 1f 84 00 00 00 00 00 	cs nopw 0x0(%rax,%rax,1)
   156e0:	66 2e 0f 1f 84 00 00 00 00 00 	cs nopw 0x0(%rax,%rax,1)
   156ea:	66 2e 0f 1f 84 00 00 00 00 00 	cs nopw 0x0(%rax,%rax,1)
   156f4:	66 2e 0f 1f 84 00 00 00 00 00 	cs nopw 0x0(%rax,%rax,1)
   156fe:	66 2e 0f 1f 84 00 00 00 00 00 	cs nopw 0x0(%rax,%rax,1)
   15708:	66 2e 0f 1f 84 00 00 00 00 00 	cs nopw 0x0(%rax,%rax,1)
   15712:	66 2e 0f 1f 84 00 00 00 00 00 	cs nopw 0x0(%rax,%rax,1)
   1571c:	66 2e 0f 1f 84 00 00 00 00 00 	cs nopw 0x0(%rax,%rax,1)
   15726:	66 2e 0f 1f 84 00 00 00 00 00 	cs nopw 0x0(%rax,%rax,1)
   15730:	66 2e 0f 1f 84 00 00 00 00 00 	cs nopw 0x0(%rax,%rax,1)
   1573a:	66 2e 0f 1f 84 00 00 00 00 00 	cs nopw 0x0(%rax,%rax,1)
   15744:	66 2e 0f 1f 84 00 00 00 00 00 	cs nopw 0x0(%rax,%rax,1)
   1574e:	66 2e 0f 1f 84 00 00 00 00 00 	cs nopw 0x0(%rax,%rax,1)
   15758:	66 2e 0f 1f 84 00 00 00 00 00 	cs nopw 0x0(%rax,%rax,1)
   15762:	66 2e 0f 1f 84 00 00 00 00 00 	cs nopw 0x0(%rax,%rax,1)
   1576c:	66 2e 0f 1f 84 00 00 00 00 00 	cs nopw 0x0(%rax,%rax,1)
   15776:	66 2e 0f 1f 84 00 00 00 00 00 	cs nopw 0x0(%rax,%rax,1)
   15780:	66 2e 0f 1f 84 00 00 00 00 00 	cs nopw 0x0(%rax,%rax,1)
   1578a:	66 2e 0f 1f 84 00 00 00 00 00 	cs nopw 0x0(%rax,%rax,1)
   15794:	66 2e 0f 1f 84 00 00 00 00 00 	cs nopw 0x0(%rax,%rax,1)
   1579e:	66 2e 0f 1f 84 00 00 00 00 00 	cs nopw 0x0(%rax,%rax,1)
   157a8:	66 2e 0f 1f 84 00 00 00 00 00 	cs nopw 0x0(%rax,%rax,1)
   157b2:	66 2e 0f 1f 84 00 00 00 00 00 	cs nopw 0x0(%rax,%rax,1)
   157bc:	66 2e 0f 1f 84 00 00 00 00 00 	cs nopw 0x0(%rax,%rax,1)
   157c6:	66 2e 0f 1f 84 00 00 00 00 00 	cs nopw 0x0(%rax,%rax,1)
   157d0:	66 2e 0f 1f 84 00 00 00 00 00 	cs nopw 0x0(%rax,%rax,1)
   157da:	66 2e 0f 1f 84 00 00 00 00 00 	cs nopw 0x0(%rax,%rax,1)
   157e4:	66 2e 0f 1f 84 00 00 00 00 00 	cs nopw 0x0(%rax,%rax,1)
   157ee:	66 2e 0f 1f 84 00 00 00 00 00 	cs nopw 0x0(%rax,%rax,1)
   157f8:	66 2e 0f 1f 84 00 00 00 00 00 	cs nopw 0x0(%rax,%rax,1)
   15802:	66 2e 0f 1f 84 00 00 00 00 00 	cs nopw 0x0(%rax,%rax,1)
   1580c:	66 2e 0f 1f 84 00 00 00 00 00 	cs nopw 0x0(%rax,%rax,1)
   15816:	66 2e 0f 1f 84 00 00 00 00 00 	cs nopw 0x0(%rax,%rax,1)
   15820:	66 2e 0f 1f 84 00 00 00 00 00 	cs nopw 0x0(%rax,%rax,1)
   1582a:	66 2e 0f 1f 84 00 00 00 00 00 	cs nopw 0x0(%rax,%rax,1)
   15834:	66 2e 0f 1f 84 00 00 00 00 00 	cs nopw 0x0(%rax,%rax,1)
   1583e:	66 2e 0f 1f 84 00 00 00 00 00 	cs nopw 0x0(%rax,%rax,1)
   15848:	66 2e 0f 1f 84 00 00 00 00 00 	cs nopw 0x0(%rax,%rax,1)
   15852:	66 2e 0f 1f 84 00 00 00 00 00 	cs nopw 0x0(%rax,%rax,1)
   1585c:	66 2e 0f 1f 84 00 00 00 00 00 	cs nopw 0x0(%rax,%rax,1)
   15866:	66 2e 0f 1f 84 00 00 00 00 00 	cs nopw 0x0(%rax,%rax,1)
   15870:	66 2e 0f 1f 84 00 00 00 00 00 	cs nopw 0x0(%rax,%rax,1)
   1587a:	66 2e 0f 1f 84 00 00 00 00 00 	cs nopw 0x0(%rax,%rax,1)
   15884:	66 2e 0f 1f 84 00 00 00 00 00 	cs nopw 0x0(%rax,%rax,1)
   1588e:	66 2e 0f 1f 84 00 00 00 00 00 	cs nopw 0x0(%rax,%rax,1)
   15898:	66 2e 0f 1f 84 00 00 00 00 00 	cs nopw 0x0(%rax,%rax,1)
   158a2:	66 2e 0f 1f 84 00 00 00 00 00 	cs nopw 0x0(%rax,%rax,1)
   158ac:	66 2e 0f 1f 84 00 00 00 00 00 	cs nopw 0x0(%rax,%rax,1)
   158b6:	66 2e 0f 1f 84 00 00 00 00 00 	cs nopw 0x0(%rax,%rax,1)
   158c0:	66 2e 0f 1f 84 00 00 00 00 00 	cs nopw 0x0(%rax,%rax,1)
   158ca:	66 2e 0f 1f 84 00 00 00 00 00 	cs nopw 0x0(%rax,%rax,1)
   158d4:	66 2e 0f 1f 84 00 00 00 00 00 	cs nopw 0x0(%rax,%rax,1)
   158de:	66 2e 0f 1f 84 00 00 00 00 00 	cs nopw 0x0(%rax,%rax,1)
   158e8:	66 2e 0f 1f 84 00 00 00 00 00 	cs nopw 0x0(%rax,%rax,1)
   158f2:	66 2e 0f 1f 84 00 00 00 00 00 	cs nopw 0x0(%rax,%rax,1)
   158fc:	66 2e 0f 1f 84 00 00 00 00 00 	cs nopw 0x0(%rax,%rax,1)
   15906:	66 2e 0f 1f 84 00 00 00 00 00 	cs nopw 0x0(%rax,%rax,1)
   15910:	66 2e 0f 1f 84 00 00 00 00 00 	cs nopw 0x0(%rax,%rax,1)
   1591a:	66 2e 0f 1f 84 00 00 00 00 00 	cs nopw 0x0(%rax,%rax,1)
   15924:	66 2e 0f 1f 84 00 00 00 00 00 	cs nopw 0x0(%rax,%rax,1)
   1592e:	66 2e 0f 1f 84 00 00 00 00 00 	cs nopw 0x0(%rax,%rax,1)
   15938:	66 2e 0f 1f 84 00 00 00 00 00 	cs nopw 0x0(%rax,%rax,1)
   15942:	66 2e 0f 1f 84 00 00 00 00 00 	cs nopw 0x0(%rax,%rax,1)
   1594c:	66 2e 0f 1f 84 00 00 00 00 00 	cs nopw 0x0(%rax,%rax,1)
   15956:	66 2e 0f 1f 84 00 00 00 00 00 	cs nopw 0x0(%rax,%rax,1)
   15960:	66 2e 0f 1f 84 00 00 00 00 00 	cs nopw 0x0(%rax,%rax,1)
   1596a:	66 2e 0f 1f 84 00 00 00 00 00 	cs nopw 0x0(%rax,%rax,1)
   15974:	66 2e 0f 1f 84 00 00 00 00 00 	cs nopw 0x0(%rax,%rax,1)
   1597e:	66 2e 0f 1f 84 00 00 00 00 00 	cs nopw 0x0(%rax,%rax,1)
   15988:	66 2e 0f 1f 84 00 00 00 00 00 	cs nopw 0x0(%rax,%rax,1)
   15992:	66 2e 0f 1f 84 00 00 00 00 00 	cs nopw 0x0(%rax,%rax,1)
   1599c:	66 2e 0f 1f 84 00 00 00 00 00 	cs nopw 0x0(%rax,%rax,1)
   159a6:	66 2e 0f 1f 84 00 00 00 00 00 	cs nopw 0x0(%rax,%rax,1)
   159b0:	66 2e 0f 1f 84 00 00 00 00 00 	cs nopw 0x0(%rax,%rax,1)
   159ba:	66 2e 0f 1f 84 00 00 00 00 00 	cs nopw 0x0(%rax,%rax,1)
   159c4:	66 2e 0f 1f 84 00 00 00 00 00 	cs nopw 0x0(%rax,%rax,1)
   159ce:	66 2e 0f 1f 84 00 00 00 00 00 	cs nopw 0x0(%rax,%rax,1)
   159d8:	66 2e 0f 1f 84 00 00 00 00 00 	cs nopw 0x0(%rax,%rax,1)
   159e2:	66 2e 0f 1f 84 00 00 00 00 00 	cs nopw 0x0(%rax,%rax,1)
   159ec:	66 2e 0f 1f 84 00 00 00 00 00 	cs nopw 0x0(%rax,%rax,1)
   159f6:	66 2e 0f 1f 84 00 00 00 00 00 	cs nopw 0x0(%rax,%rax,1)
   15a00:	66 2e 0f 1f 84 00 00 00 00 00 	cs nopw 0x0(%rax,%rax,1)
   15a0a:	66 2e 0f 1f 84 00 00 00 00 00 	cs nopw 0x0(%rax,%rax,1)
   15a14:	66 2e 0f 1f 84 00 00 00 00 00 	cs nopw 0x0(%rax,%rax,1)
   15a1e:	66 2e 0f 1f 84 00 00 00 00 00 	cs nopw 0x0(%rax,%rax,1)
   15a28:	66 2e 0f 1f 84 00 00 00 00 00 	cs nopw 0x0(%rax,%rax,1)
   15a32:	66 2e 0f 1f 84 00 00 00 00 00 	cs nopw 0x0(%rax,%rax,1)
   15a3c:	66 2e 0f 1f 84 00 00 00 00 00 	cs nopw 0x0(%rax,%rax,1)
   15a46:	66 2e 0f 1f 84 00 00 00 00 00 	cs nopw 0x0(%rax,%rax,1)
   15a50:	66 2e 0f 1f 84 00 00 00 00 00 	cs nopw 0x0(%rax,%rax,1)
   15a5a:	66 2e 0f 1f 84 00 00 00 00 00 	cs nopw 0x0(%rax,%rax,1)
   15a64:	66 2e 0f 1f 84 00 00 00 00 00 	cs nopw 0x0(%rax,%rax,1)
   15a6e:	66 2e 0f 1f 84 00 00 00 00 00 	cs nopw 0x0(%rax,%rax,1)
   15a78:	66 2e 0f 1f 84 00 00 00 00 00 	cs nopw 0x0(%rax,%rax,1)
   15a82:	66 2e 0f 1f 84 00 00 00 00 00 	cs nopw 0x0(%rax,%rax,1)
   15a8c:	66 2e 0f 1f 84 00 00 00 00 00 	cs nopw 0x0(%rax,%rax,1)
   15a96:	66 2e 0f 1f 84 00 00 00 00 00 	cs nopw 0x0(%rax,%rax,1)
   15aa0:	66 2e 0f 1f 84 00 00 00 00 00 	cs nopw 0x0(%rax,%rax,1)
