
/home/zyler/ThesisProjects/Checkpoint/MVM_CKPT/application/prog:     file format elf64-x86-64


Disassembly of section .init:

0000000000001000 <_init>:
    1000:	f3 0f 1e fa          	endbr64
    1004:	48 83 ec 08          	sub    $0x8,%rsp
    1008:	48 8b 05 c1 2f 05 00 	mov    0x52fc1(%rip),%rax        # 53fd0 <__gmon_start__@Base>
    100f:	48 85 c0             	test   %rax,%rax
    1012:	74 02                	je     1016 <_init+0x16>
    1014:	ff d0                	call   *%rax
    1016:	48 83 c4 08          	add    $0x8,%rsp
    101a:	c3                   	ret

Disassembly of section .plt:

0000000000001020 <__isoc23_strtoul@plt-0x10>:
    1020:	ff 35 ca 2f 05 00    	push   0x52fca(%rip)        # 53ff0 <_GLOBAL_OFFSET_TABLE_+0x8>
    1026:	ff 25 cc 2f 05 00    	jmp    *0x52fcc(%rip)        # 53ff8 <_GLOBAL_OFFSET_TABLE_+0x10>
    102c:	0f 1f 40 00          	nopl   0x0(%rax)

0000000000001030 <__isoc23_strtoul@plt>:
    1030:	ff 25 ca 2f 05 00    	jmp    *0x52fca(%rip)        # 54000 <__isoc23_strtoul@GLIBC_2.38>
    1036:	68 00 00 00 00       	push   $0x0
    103b:	e9 e0 ff ff ff       	jmp    1020 <_init+0x20>

0000000000001040 <strcpy@plt>:
    1040:	ff 25 c2 2f 05 00    	jmp    *0x52fc2(%rip)        # 54008 <strcpy@GLIBC_2.2.5>
    1046:	68 01 00 00 00       	push   $0x1
    104b:	e9 d0 ff ff ff       	jmp    1020 <_init+0x20>

0000000000001050 <puts@plt>:
    1050:	ff 25 ba 2f 05 00    	jmp    *0x52fba(%rip)        # 54010 <puts@GLIBC_2.2.5>
    1056:	68 02 00 00 00       	push   $0x2
    105b:	e9 c0 ff ff ff       	jmp    1020 <_init+0x20>

0000000000001060 <write@plt>:
    1060:	ff 25 b2 2f 05 00    	jmp    *0x52fb2(%rip)        # 54018 <write@GLIBC_2.2.5>
    1066:	68 03 00 00 00       	push   $0x3
    106b:	e9 b0 ff ff ff       	jmp    1020 <_init+0x20>

0000000000001070 <clock@plt>:
    1070:	ff 25 aa 2f 05 00    	jmp    *0x52faa(%rip)        # 54020 <clock@GLIBC_2.2.5>
    1076:	68 04 00 00 00       	push   $0x4
    107b:	e9 a0 ff ff ff       	jmp    1020 <_init+0x20>

0000000000001080 <fclose@plt>:
    1080:	ff 25 a2 2f 05 00    	jmp    *0x52fa2(%rip)        # 54028 <fclose@GLIBC_2.2.5>
    1086:	68 05 00 00 00       	push   $0x5
    108b:	e9 90 ff ff ff       	jmp    1020 <_init+0x20>

0000000000001090 <strlen@plt>:
    1090:	ff 25 9a 2f 05 00    	jmp    *0x52f9a(%rip)        # 54030 <strlen@GLIBC_2.2.5>
    1096:	68 06 00 00 00       	push   $0x6
    109b:	e9 80 ff ff ff       	jmp    1020 <_init+0x20>

00000000000010a0 <__stack_chk_fail@plt>:
    10a0:	ff 25 92 2f 05 00    	jmp    *0x52f92(%rip)        # 54038 <__stack_chk_fail@GLIBC_2.4>
    10a6:	68 07 00 00 00       	push   $0x7
    10ab:	e9 70 ff ff ff       	jmp    1020 <_init+0x20>

00000000000010b0 <mmap@plt>:
    10b0:	ff 25 8a 2f 05 00    	jmp    *0x52f8a(%rip)        # 54040 <mmap@GLIBC_2.2.5>
    10b6:	68 08 00 00 00       	push   $0x8
    10bb:	e9 60 ff ff ff       	jmp    1020 <_init+0x20>

00000000000010c0 <system@plt>:
    10c0:	ff 25 82 2f 05 00    	jmp    *0x52f82(%rip)        # 54048 <system@GLIBC_2.2.5>
    10c6:	68 09 00 00 00       	push   $0x9
    10cb:	e9 50 ff ff ff       	jmp    1020 <_init+0x20>

00000000000010d0 <strchr@plt>:
    10d0:	ff 25 7a 2f 05 00    	jmp    *0x52f7a(%rip)        # 54050 <strchr@GLIBC_2.2.5>
    10d6:	68 0a 00 00 00       	push   $0xa
    10db:	e9 40 ff ff ff       	jmp    1020 <_init+0x20>

00000000000010e0 <printf@plt>:
    10e0:	ff 25 72 2f 05 00    	jmp    *0x52f72(%rip)        # 54058 <printf@GLIBC_2.2.5>
    10e6:	68 0b 00 00 00       	push   $0xb
    10eb:	e9 30 ff ff ff       	jmp    1020 <_init+0x20>

00000000000010f0 <fputs@plt>:
    10f0:	ff 25 6a 2f 05 00    	jmp    *0x52f6a(%rip)        # 54060 <fputs@GLIBC_2.2.5>
    10f6:	68 0c 00 00 00       	push   $0xc
    10fb:	e9 20 ff ff ff       	jmp    1020 <_init+0x20>

0000000000001100 <memset@plt>:
    1100:	ff 25 62 2f 05 00    	jmp    *0x52f62(%rip)        # 54068 <memset@GLIBC_2.2.5>
    1106:	68 0d 00 00 00       	push   $0xd
    110b:	e9 10 ff ff ff       	jmp    1020 <_init+0x20>

0000000000001110 <close@plt>:
    1110:	ff 25 5a 2f 05 00    	jmp    *0x52f5a(%rip)        # 54070 <close@GLIBC_2.2.5>
    1116:	68 0e 00 00 00       	push   $0xe
    111b:	e9 00 ff ff ff       	jmp    1020 <_init+0x20>

0000000000001120 <arch_prctl@plt>:
    1120:	ff 25 52 2f 05 00    	jmp    *0x52f52(%rip)        # 54078 <arch_prctl@GLIBC_2.2.5>
    1126:	68 0f 00 00 00       	push   $0xf
    112b:	e9 f0 fe ff ff       	jmp    1020 <_init+0x20>

0000000000001130 <read@plt>:
    1130:	ff 25 4a 2f 05 00    	jmp    *0x52f4a(%rip)        # 54080 <read@GLIBC_2.2.5>
    1136:	68 10 00 00 00       	push   $0x10
    113b:	e9 e0 fe ff ff       	jmp    1020 <_init+0x20>

0000000000001140 <srand@plt>:
    1140:	ff 25 42 2f 05 00    	jmp    *0x52f42(%rip)        # 54088 <srand@GLIBC_2.2.5>
    1146:	68 11 00 00 00       	push   $0x11
    114b:	e9 d0 fe ff ff       	jmp    1020 <_init+0x20>

0000000000001150 <fgets@plt>:
    1150:	ff 25 3a 2f 05 00    	jmp    *0x52f3a(%rip)        # 54090 <fgets@GLIBC_2.2.5>
    1156:	68 12 00 00 00       	push   $0x12
    115b:	e9 c0 fe ff ff       	jmp    1020 <_init+0x20>

0000000000001160 <strcmp@plt>:
    1160:	ff 25 32 2f 05 00    	jmp    *0x52f32(%rip)        # 54098 <strcmp@GLIBC_2.2.5>
    1166:	68 13 00 00 00       	push   $0x13
    116b:	e9 b0 fe ff ff       	jmp    1020 <_init+0x20>

0000000000001170 <syscall@plt>:
    1170:	ff 25 2a 2f 05 00    	jmp    *0x52f2a(%rip)        # 540a0 <syscall@GLIBC_2.2.5>
    1176:	68 14 00 00 00       	push   $0x14
    117b:	e9 a0 fe ff ff       	jmp    1020 <_init+0x20>

0000000000001180 <memcpy@plt>:
    1180:	ff 25 22 2f 05 00    	jmp    *0x52f22(%rip)        # 540a8 <memcpy@GLIBC_2.14>
    1186:	68 15 00 00 00       	push   $0x15
    118b:	e9 90 fe ff ff       	jmp    1020 <_init+0x20>

0000000000001190 <__isoc23_strtol@plt>:
    1190:	ff 25 1a 2f 05 00    	jmp    *0x52f1a(%rip)        # 540b0 <__isoc23_strtol@GLIBC_2.38>
    1196:	68 16 00 00 00       	push   $0x16
    119b:	e9 80 fe ff ff       	jmp    1020 <_init+0x20>

00000000000011a0 <fflush@plt>:
    11a0:	ff 25 12 2f 05 00    	jmp    *0x52f12(%rip)        # 540b8 <fflush@GLIBC_2.2.5>
    11a6:	68 17 00 00 00       	push   $0x17
    11ab:	e9 70 fe ff ff       	jmp    1020 <_init+0x20>

00000000000011b0 <fseek@plt>:
    11b0:	ff 25 0a 2f 05 00    	jmp    *0x52f0a(%rip)        # 540c0 <fseek@GLIBC_2.2.5>
    11b6:	68 18 00 00 00       	push   $0x18
    11bb:	e9 60 fe ff ff       	jmp    1020 <_init+0x20>

00000000000011c0 <open@plt>:
    11c0:	ff 25 02 2f 05 00    	jmp    *0x52f02(%rip)        # 540c8 <open@GLIBC_2.2.5>
    11c6:	68 19 00 00 00       	push   $0x19
    11cb:	e9 50 fe ff ff       	jmp    1020 <_init+0x20>

00000000000011d0 <fopen@plt>:
    11d0:	ff 25 fa 2e 05 00    	jmp    *0x52efa(%rip)        # 540d0 <fopen@GLIBC_2.2.5>
    11d6:	68 1a 00 00 00       	push   $0x1a
    11db:	e9 40 fe ff ff       	jmp    1020 <_init+0x20>

00000000000011e0 <perror@plt>:
    11e0:	ff 25 f2 2e 05 00    	jmp    *0x52ef2(%rip)        # 540d8 <perror@GLIBC_2.2.5>
    11e6:	68 1b 00 00 00       	push   $0x1b
    11eb:	e9 30 fe ff ff       	jmp    1020 <_init+0x20>

00000000000011f0 <strtok@plt>:
    11f0:	ff 25 ea 2e 05 00    	jmp    *0x52eea(%rip)        # 540e0 <strtok@GLIBC_2.2.5>
    11f6:	68 1c 00 00 00       	push   $0x1c
    11fb:	e9 20 fe ff ff       	jmp    1020 <_init+0x20>

0000000000001200 <sprintf@plt>:
    1200:	ff 25 e2 2e 05 00    	jmp    *0x52ee2(%rip)        # 540e8 <sprintf@GLIBC_2.2.5>
    1206:	68 1d 00 00 00       	push   $0x1d
    120b:	e9 10 fe ff ff       	jmp    1020 <_init+0x20>

0000000000001210 <exit@plt>:
    1210:	ff 25 da 2e 05 00    	jmp    *0x52eda(%rip)        # 540f0 <exit@GLIBC_2.2.5>
    1216:	68 1e 00 00 00       	push   $0x1e
    121b:	e9 00 fe ff ff       	jmp    1020 <_init+0x20>

0000000000001220 <fwrite@plt>:
    1220:	ff 25 d2 2e 05 00    	jmp    *0x52ed2(%rip)        # 540f8 <fwrite@GLIBC_2.2.5>
    1226:	68 1f 00 00 00       	push   $0x1f
    122b:	e9 f0 fd ff ff       	jmp    1020 <_init+0x20>

0000000000001230 <aligned_alloc@plt>:
    1230:	ff 25 ca 2e 05 00    	jmp    *0x52eca(%rip)        # 54100 <aligned_alloc@GLIBC_2.16>
    1236:	68 20 00 00 00       	push   $0x20
    123b:	e9 e0 fd ff ff       	jmp    1020 <_init+0x20>

0000000000001240 <strstr@plt>:
    1240:	ff 25 c2 2e 05 00    	jmp    *0x52ec2(%rip)        # 54108 <strstr@GLIBC_2.2.5>
    1246:	68 21 00 00 00       	push   $0x21
    124b:	e9 d0 fd ff ff       	jmp    1020 <_init+0x20>

0000000000001250 <rand@plt>:
    1250:	ff 25 ba 2e 05 00    	jmp    *0x52eba(%rip)        # 54110 <rand@GLIBC_2.2.5>
    1256:	68 22 00 00 00       	push   $0x22
    125b:	e9 c0 fd ff ff       	jmp    1020 <_init+0x20>

Disassembly of section .text:

0000000000010000 <__cpu_indicator_init>:
   10000:	f3 0f 1e fa          	endbr64
   10004:	8b 15 e6 59 14 00    	mov    0x1459e6(%rip),%edx        # 1559f0 <__cpu_model>
   1000a:	85 d2                	test   %edx,%edx
   1000c:	0f 85 f4 06 00 00    	jne    10706 <__cpu_indicator_init+0x706>
   10012:	55                   	push   %rbp
   10013:	31 c0                	xor    %eax,%eax
   10015:	48 89 e5             	mov    %rsp,%rbp
   10018:	41 57                	push   %r15
   1001a:	41 56                	push   %r14
   1001c:	41 55                	push   %r13
   1001e:	41 54                	push   %r12
   10020:	53                   	push   %rbx
   10021:	0f a2                	cpuid
   10023:	85 c0                	test   %eax,%eax
   10025:	0f 84 c1 06 00 00    	je     106ec <__cpu_indicator_init+0x6ec>
   1002b:	31 c0                	xor    %eax,%eax
   1002d:	0f a2                	cpuid
   1002f:	41 89 da             	mov    %ebx,%r10d
   10032:	89 c7                	mov    %eax,%edi
   10034:	85 c0                	test   %eax,%eax
   10036:	0f 8e b0 06 00 00    	jle    106ec <__cpu_indicator_init+0x6ec>
   1003c:	31 c0                	xor    %eax,%eax
   1003e:	0f a2                	cpuid
   10040:	85 c0                	test   %eax,%eax
   10042:	0f 84 a4 06 00 00    	je     106ec <__cpu_indicator_init+0x6ec>
   10048:	b8 01 00 00 00       	mov    $0x1,%eax
   1004d:	0f a2                	cpuid
   1004f:	41 89 d4             	mov    %edx,%r12d
   10052:	89 c2                	mov    %eax,%edx
   10054:	41 89 c1             	mov    %eax,%r9d
   10057:	41 89 c8             	mov    %ecx,%r8d
   1005a:	c1 ea 04             	shr    $0x4,%edx
   1005d:	41 c1 e9 08          	shr    $0x8,%r9d
   10061:	83 e2 0f             	and    $0xf,%edx
   10064:	41 83 e1 0f          	and    $0xf,%r9d
   10068:	41 89 d5             	mov    %edx,%r13d
   1006b:	89 c2                	mov    %eax,%edx
   1006d:	c1 e8 14             	shr    $0x14,%eax
   10070:	45 89 ce             	mov    %r9d,%r14d
   10073:	0f b6 c0             	movzbl %al,%eax
   10076:	c1 ea 0c             	shr    $0xc,%edx
   10079:	89 45 cc             	mov    %eax,-0x34(%rbp)
   1007c:	89 c8                	mov    %ecx,%eax
   1007e:	81 e2 f0 00 00 00    	and    $0xf0,%edx
   10084:	25 00 00 00 08       	and    $0x8000000,%eax
   10089:	89 55 d4             	mov    %edx,-0x2c(%rbp)
   1008c:	89 c3                	mov    %eax,%ebx
   1008e:	0f 85 75 06 00 00    	jne    10709 <__cpu_indicator_init+0x709>
   10094:	31 c0                	xor    %eax,%eax
   10096:	45 31 ff             	xor    %r15d,%r15d
   10099:	45 31 c9             	xor    %r9d,%r9d
   1009c:	45 31 db             	xor    %r11d,%r11d
   1009f:	89 45 d0             	mov    %eax,-0x30(%rbp)
   100a2:	41 f7 c4 00 80 00 00 	test   $0x8000,%r12d
   100a9:	74 07                	je     100b2 <__cpu_indicator_init+0xb2>
   100ab:	83 0d 4a 59 14 00 01 	orl    $0x1,0x14594a(%rip)        # 1559fc <__cpu_model+0xc>
   100b2:	41 f7 c4 00 00 80 00 	test   $0x800000,%r12d
   100b9:	74 07                	je     100c2 <__cpu_indicator_init+0xc2>
   100bb:	83 0d 3a 59 14 00 02 	orl    $0x2,0x14593a(%rip)        # 1559fc <__cpu_model+0xc>
   100c2:	41 f7 c4 00 00 00 02 	test   $0x2000000,%r12d
   100c9:	74 07                	je     100d2 <__cpu_indicator_init+0xd2>
   100cb:	83 0d 2a 59 14 00 08 	orl    $0x8,0x14592a(%rip)        # 1559fc <__cpu_model+0xc>
   100d2:	41 f7 c4 00 00 00 04 	test   $0x4000000,%r12d
   100d9:	74 07                	je     100e2 <__cpu_indicator_init+0xe2>
   100db:	83 0d 1a 59 14 00 10 	orl    $0x10,0x14591a(%rip)        # 1559fc <__cpu_model+0xc>
   100e2:	8b 35 f8 58 14 00    	mov    0x1458f8(%rip),%esi        # 1559e0 <__cpu_features2>
   100e8:	41 f7 c4 00 01 00 00 	test   $0x100,%r12d
   100ef:	0f 85 69 06 00 00    	jne    1075e <__cpu_indicator_init+0x75e>
   100f5:	41 81 e4 00 00 00 01 	and    $0x1000000,%r12d
   100fc:	0f 85 7e 06 00 00    	jne    10780 <__cpu_indicator_init+0x780>
   10102:	41 f7 c0 00 00 80 00 	test   $0x800000,%r8d
   10109:	74 07                	je     10112 <__cpu_indicator_init+0x112>
   1010b:	83 0d ea 58 14 00 04 	orl    $0x4,0x1458ea(%rip)        # 1559fc <__cpu_model+0xc>
   10112:	44 89 c0             	mov    %r8d,%eax
   10115:	25 00 00 00 02       	and    $0x2000000,%eax
   1011a:	74 0a                	je     10126 <__cpu_indicator_init+0x126>
   1011c:	81 0d d6 58 14 00 00 00 04 00 	orl    $0x40000,0x1458d6(%rip)        # 1559fc <__cpu_model+0xc>
   10126:	41 f6 c0 02          	test   $0x2,%r8b
   1012a:	74 0a                	je     10136 <__cpu_indicator_init+0x136>
   1012c:	81 0d c6 58 14 00 00 00 08 00 	orl    $0x80000,0x1458c6(%rip)        # 1559fc <__cpu_model+0xc>
   10136:	41 f6 c0 01          	test   $0x1,%r8b
   1013a:	74 07                	je     10143 <__cpu_indicator_init+0x143>
   1013c:	83 0d b9 58 14 00 20 	orl    $0x20,0x1458b9(%rip)        # 1559fc <__cpu_model+0xc>
   10143:	41 f7 c0 00 02 00 00 	test   $0x200,%r8d
   1014a:	74 07                	je     10153 <__cpu_indicator_init+0x153>
   1014c:	83 0d a9 58 14 00 40 	orl    $0x40,0x1458a9(%rip)        # 1559fc <__cpu_model+0xc>
   10153:	41 f7 c0 00 00 08 00 	test   $0x80000,%r8d
   1015a:	74 0a                	je     10166 <__cpu_indicator_init+0x166>
   1015c:	81 0d 96 58 14 00 80 00 00 00 	orl    $0x80,0x145896(%rip)        # 1559fc <__cpu_model+0xc>
   10166:	41 f7 c0 00 00 10 00 	test   $0x100000,%r8d
   1016d:	74 0a                	je     10179 <__cpu_indicator_init+0x179>
   1016f:	81 0d 83 58 14 00 00 01 00 00 	orl    $0x100,0x145883(%rip)        # 1559fc <__cpu_model+0xc>
   10179:	85 db                	test   %ebx,%ebx
   1017b:	0f 85 ee 05 00 00    	jne    1076f <__cpu_indicator_init+0x76f>
   10181:	41 f7 c0 00 20 00 00 	test   $0x2000,%r8d
   10188:	0f 85 2f 06 00 00    	jne    107bd <__cpu_indicator_init+0x7bd>
   1018e:	41 f7 c0 00 00 40 00 	test   $0x400000,%r8d
   10195:	0f 85 11 06 00 00    	jne    107ac <__cpu_indicator_init+0x7ac>
   1019b:	85 c0                	test   %eax,%eax
   1019d:	74 0a                	je     101a9 <__cpu_indicator_init+0x1a9>
   1019f:	81 0d 53 58 14 00 00 00 04 00 	orl    $0x40000,0x145853(%rip)        # 1559fc <__cpu_model+0xc>
   101a9:	41 f7 c0 00 00 00 40 	test   $0x40000000,%r8d
   101b0:	0f 85 ea 05 00 00    	jne    107a0 <__cpu_indicator_init+0x7a0>
   101b6:	41 f7 c0 00 00 00 04 	test   $0x4000000,%r8d
   101bd:	0f 85 ce 05 00 00    	jne    10791 <__cpu_indicator_init+0x791>
   101c3:	45 85 db             	test   %r11d,%r11d
   101c6:	74 33                	je     101fb <__cpu_indicator_init+0x1fb>
   101c8:	41 f7 c0 00 00 00 10 	test   $0x10000000,%r8d
   101cf:	74 0a                	je     101db <__cpu_indicator_init+0x1db>
   101d1:	81 0d 21 58 14 00 00 02 00 00 	orl    $0x200,0x145821(%rip)        # 1559fc <__cpu_model+0xc>
   101db:	41 f7 c0 00 10 00 00 	test   $0x1000,%r8d
   101e2:	74 0a                	je     101ee <__cpu_indicator_init+0x1ee>
   101e4:	81 0d 0e 58 14 00 00 40 00 00 	orl    $0x4000,0x14580e(%rip)        # 1559fc <__cpu_model+0xc>
   101ee:	41 81 e0 00 00 00 20 	and    $0x20000000,%r8d
   101f5:	0f 85 dc 0d 00 00    	jne    10fd7 <__cpu_indicator_init+0xfd7>
   101fb:	83 ff 06             	cmp    $0x6,%edi
   101fe:	0f 86 b1 03 00 00    	jbe    105b5 <__cpu_indicator_init+0x5b5>
   10204:	b8 07 00 00 00       	mov    $0x7,%eax
   10209:	31 c9                	xor    %ecx,%ecx
   1020b:	0f a2                	cpuid
   1020d:	41 89 c8             	mov    %ecx,%r8d
   10210:	41 89 dc             	mov    %ebx,%r12d
   10213:	f6 c3 08             	test   $0x8,%bl
   10216:	74 0a                	je     10222 <__cpu_indicator_init+0x222>
   10218:	81 0d da 57 14 00 00 00 01 00 	orl    $0x10000,0x1457da(%rip)        # 1559fc <__cpu_model+0xc>
   10222:	41 f6 c4 04          	test   $0x4,%r12b
   10226:	0f 85 cd 0d 00 00    	jne    10ff9 <__cpu_indicator_init+0xff9>
   1022c:	41 f6 c4 10          	test   $0x10,%r12b
   10230:	0f 85 b2 0d 00 00    	jne    10fe8 <__cpu_indicator_init+0xfe8>
   10236:	41 f7 c4 00 08 00 00 	test   $0x800,%r12d
   1023d:	0f 85 01 0c 00 00    	jne    10e44 <__cpu_indicator_init+0xe44>
   10243:	45 85 db             	test   %r11d,%r11d
   10246:	74 2a                	je     10272 <__cpu_indicator_init+0x272>
   10248:	41 f6 c4 20          	test   $0x20,%r12b
   1024c:	74 0a                	je     10258 <__cpu_indicator_init+0x258>
   1024e:	81 0d a4 57 14 00 00 04 00 00 	orl    $0x400,0x1457a4(%rip)        # 1559fc <__cpu_model+0xc>
   10258:	41 f7 c0 00 04 00 00 	test   $0x400,%r8d
   1025f:	0f 85 ca 07 00 00    	jne    10a2f <__cpu_indicator_init+0xa2f>
   10265:	41 f7 c0 00 02 00 00 	test   $0x200,%r8d
   1026c:	0f 85 cb 07 00 00    	jne    10a3d <__cpu_indicator_init+0xa3d>
   10272:	41 f7 c4 00 01 00 00 	test   $0x100,%r12d
   10279:	74 0a                	je     10285 <__cpu_indicator_init+0x285>
   1027b:	81 0d 77 57 14 00 00 00 02 00 	orl    $0x20000,0x145777(%rip)        # 1559fc <__cpu_model+0xc>
   10285:	41 f6 c4 01          	test   $0x1,%r12b
   10289:	0f 85 37 0d 00 00    	jne    10fc6 <__cpu_indicator_init+0xfc6>
   1028f:	41 f7 c4 00 00 04 00 	test   $0x40000,%r12d
   10296:	0f 85 c8 0b 00 00    	jne    10e64 <__cpu_indicator_init+0xe64>
   1029c:	41 f7 c4 00 00 08 00 	test   $0x80000,%r12d
   102a3:	0f 85 aa 0b 00 00    	jne    10e53 <__cpu_indicator_init+0xe53>
   102a9:	41 f7 c4 00 00 00 20 	test   $0x20000000,%r12d
   102b0:	0f 85 01 0d 00 00    	jne    10fb7 <__cpu_indicator_init+0xfb7>
   102b6:	41 f7 c4 00 00 80 00 	test   $0x800000,%r12d
   102bd:	0f 85 e3 0c 00 00    	jne    10fa6 <__cpu_indicator_init+0xfa6>
   102c3:	41 f7 c4 00 00 00 01 	test   $0x1000000,%r12d
   102ca:	0f 85 c5 0c 00 00    	jne    10f95 <__cpu_indicator_init+0xf95>
   102d0:	41 f6 c0 10          	test   $0x10,%r8b
   102d4:	0f 85 af 0c 00 00    	jne    10f89 <__cpu_indicator_init+0xf89>
   102da:	41 f7 c0 00 00 40 00 	test   $0x400000,%r8d
   102e1:	0f 85 96 0c 00 00    	jne    10f7d <__cpu_indicator_init+0xf7d>
   102e7:	41 f7 c0 00 01 00 00 	test   $0x100,%r8d
   102ee:	0f 85 7b 0c 00 00    	jne    10f6f <__cpu_indicator_init+0xf6f>
   102f4:	41 f7 c0 00 00 00 08 	test   $0x8000000,%r8d
   102fb:	0f 85 5d 0c 00 00    	jne    10f5e <__cpu_indicator_init+0xf5e>
   10301:	41 f7 c0 00 00 00 10 	test   $0x10000000,%r8d
   10308:	0f 85 3f 0c 00 00    	jne    10f4d <__cpu_indicator_init+0xf4d>
   1030e:	41 f7 c0 00 00 00 20 	test   $0x20000000,%r8d
   10315:	0f 85 21 0c 00 00    	jne    10f3c <__cpu_indicator_init+0xf3c>
   1031b:	41 f7 c0 00 00 00 02 	test   $0x2000000,%r8d
   10322:	0f 85 03 0c 00 00    	jne    10f2b <__cpu_indicator_init+0xf2b>
   10328:	41 f6 c0 20          	test   $0x20,%r8b
   1032c:	0f 85 ea 0b 00 00    	jne    10f1c <__cpu_indicator_init+0xf1c>
   10332:	41 f6 c0 80          	test   $0x80,%r8b
   10336:	0f 85 d1 0b 00 00    	jne    10f0d <__cpu_indicator_init+0xf0d>
   1033c:	f6 c6 40             	test   $0x40,%dh
   1033f:	0f 85 b9 0b 00 00    	jne    10efe <__cpu_indicator_init+0xefe>
   10345:	f7 c2 00 00 01 00    	test   $0x10000,%edx
   1034b:	0f 85 9e 0b 00 00    	jne    10eef <__cpu_indicator_init+0xeef>
   10351:	f7 c2 00 00 04 00    	test   $0x40000,%edx
   10357:	0f 85 81 0b 00 00    	jne    10ede <__cpu_indicator_init+0xede>
   1035d:	f7 c2 00 00 10 00    	test   $0x100000,%edx
   10363:	0f 85 64 0b 00 00    	jne    10ecd <__cpu_indicator_init+0xecd>
   10369:	f6 c2 20             	test   $0x20,%dl
   1036c:	0f 85 96 0c 00 00    	jne    11008 <__cpu_indicator_init+0x1008>
   10372:	45 85 ff             	test   %r15d,%r15d
   10375:	74 24                	je     1039b <__cpu_indicator_init+0x39b>
   10377:	f7 c2 00 00 00 01    	test   $0x1000000,%edx
   1037d:	0f 85 09 06 00 00    	jne    1098c <__cpu_indicator_init+0x98c>
   10383:	f7 c2 00 00 00 02    	test   $0x2000000,%edx
   10389:	0f 85 ee 05 00 00    	jne    1097d <__cpu_indicator_init+0x97d>
   1038f:	f7 c2 00 00 40 00    	test   $0x400000,%edx
   10395:	0f 85 d3 05 00 00    	jne    1096e <__cpu_indicator_init+0x96e>
   1039b:	45 85 c9             	test   %r9d,%r9d
   1039e:	0f 84 ca 00 00 00    	je     1046e <__cpu_indicator_init+0x46e>
   103a4:	41 f7 c4 00 00 01 00 	test   $0x10000,%r12d
   103ab:	74 0a                	je     103b7 <__cpu_indicator_init+0x3b7>
   103ad:	81 0d 45 56 14 00 00 80 00 00 	orl    $0x8000,0x145645(%rip)        # 1559fc <__cpu_model+0xc>
   103b7:	45 85 e4             	test   %r12d,%r12d
   103ba:	0f 88 ee 04 00 00    	js     108ae <__cpu_indicator_init+0x8ae>
   103c0:	41 f7 c4 00 00 00 40 	test   $0x40000000,%r12d
   103c7:	74 0a                	je     103d3 <__cpu_indicator_init+0x3d3>
   103c9:	81 0d 29 56 14 00 00 00 20 00 	orl    $0x200000,0x145629(%rip)        # 1559fc <__cpu_model+0xc>
   103d3:	41 f7 c4 00 00 02 00 	test   $0x20000,%r12d
   103da:	74 0a                	je     103e6 <__cpu_indicator_init+0x3e6>
   103dc:	81 0d 16 56 14 00 00 00 40 00 	orl    $0x400000,0x145616(%rip)        # 1559fc <__cpu_model+0xc>
   103e6:	41 f7 c4 00 00 00 10 	test   $0x10000000,%r12d
   103ed:	74 0a                	je     103f9 <__cpu_indicator_init+0x3f9>
   103ef:	81 0d 03 56 14 00 00 00 80 00 	orl    $0x800000,0x145603(%rip)        # 1559fc <__cpu_model+0xc>
   103f9:	41 81 e4 00 00 20 00 	and    $0x200000,%r12d
   10400:	74 0a                	je     1040c <__cpu_indicator_init+0x40c>
   10402:	81 0d f0 55 14 00 00 00 00 08 	orl    $0x8000000,0x1455f0(%rip)        # 1559fc <__cpu_model+0xc>
   1040c:	41 f6 c0 02          	test   $0x2,%r8b
   10410:	74 0a                	je     1041c <__cpu_indicator_init+0x41c>
   10412:	81 0d e0 55 14 00 00 00 00 04 	orl    $0x4000000,0x1455e0(%rip)        # 1559fc <__cpu_model+0xc>
   1041c:	41 f6 c0 40          	test   $0x40,%r8b
   10420:	74 0a                	je     1042c <__cpu_indicator_init+0x42c>
   10422:	81 0d d0 55 14 00 00 00 00 80 	orl    $0x80000000,0x1455d0(%rip)        # 1559fc <__cpu_model+0xc>
   1042c:	41 f7 c0 00 08 00 00 	test   $0x800,%r8d
   10433:	0f 85 27 05 00 00    	jne    10960 <__cpu_indicator_init+0x960>
   10439:	41 f7 c0 00 10 00 00 	test   $0x1000,%r8d
   10440:	0f 85 0c 05 00 00    	jne    10952 <__cpu_indicator_init+0x952>
   10446:	41 f7 c0 00 40 00 00 	test   $0x4000,%r8d
   1044d:	74 0a                	je     10459 <__cpu_indicator_init+0x459>
   1044f:	81 0d a3 55 14 00 00 00 00 40 	orl    $0x40000000,0x1455a3(%rip)        # 1559fc <__cpu_model+0xc>
   10459:	f6 c6 01             	test   $0x1,%dh
   1045c:	0f 85 39 05 00 00    	jne    1099b <__cpu_indicator_init+0x99b>
   10462:	81 e2 00 00 80 00    	and    $0x800000,%edx
   10468:	0f 85 94 05 00 00    	jne    10a02 <__cpu_indicator_init+0xa02>
   1046e:	85 c0                	test   %eax,%eax
   10470:	0f 84 58 03 00 00    	je     107ce <__cpu_indicator_init+0x7ce>
   10476:	b8 07 00 00 00       	mov    $0x7,%eax
   1047b:	b9 01 00 00 00       	mov    $0x1,%ecx
   10480:	0f a2                	cpuid
   10482:	a9 00 00 40 00       	test   $0x400000,%eax
   10487:	0f 85 66 05 00 00    	jne    109f3 <__cpu_indicator_init+0x9f3>
   1048d:	a8 80                	test   $0x80,%al
   1048f:	0f 85 52 05 00 00    	jne    109e7 <__cpu_indicator_init+0x9e7>
   10495:	f6 c6 40             	test   $0x40,%dh
   10498:	0f 85 3a 05 00 00    	jne    109d8 <__cpu_indicator_init+0x9d8>
   1049e:	a8 08                	test   $0x8,%al
   104a0:	0f 85 7a 05 00 00    	jne    10a20 <__cpu_indicator_init+0xa20>
   104a6:	f6 c6 80             	test   $0x80,%dh
   104a9:	0f 85 62 05 00 00    	jne    10a11 <__cpu_indicator_init+0xa11>
   104af:	85 c0                	test   %eax,%eax
   104b1:	0f 88 d9 0b 00 00    	js     11090 <__cpu_indicator_init+0x1090>
   104b7:	45 85 db             	test   %r11d,%r11d
   104ba:	74 4c                	je     10508 <__cpu_indicator_init+0x508>
   104bc:	a8 10                	test   $0x10,%al
   104be:	0f 85 48 0c 00 00    	jne    1110c <__cpu_indicator_init+0x110c>
   104c4:	a9 00 00 80 00       	test   $0x800000,%eax
   104c9:	0f 85 31 0c 00 00    	jne    11100 <__cpu_indicator_init+0x1100>
   104cf:	f6 c2 10             	test   $0x10,%dl
   104d2:	0f 85 1c 0c 00 00    	jne    110f4 <__cpu_indicator_init+0x10f4>
   104d8:	f6 c2 20             	test   $0x20,%dl
   104db:	0f 85 07 0c 00 00    	jne    110e8 <__cpu_indicator_init+0x10e8>
   104e1:	f6 c6 04             	test   $0x4,%dh
   104e4:	0f 85 40 0c 00 00    	jne    1112a <__cpu_indicator_init+0x112a>
   104ea:	a8 02                	test   $0x2,%al
   104ec:	0f 85 29 0c 00 00    	jne    1111b <__cpu_indicator_init+0x111b>
   104f2:	a8 01                	test   $0x1,%al
   104f4:	0f 85 df 0b 00 00    	jne    110d9 <__cpu_indicator_init+0x10d9>
   104fa:	a8 04                	test   $0x4,%al
   104fc:	74 0a                	je     10508 <__cpu_indicator_init+0x508>
   104fe:	81 0d e0 54 14 00 00 40 00 00 	orl    $0x4000,0x1454e0(%rip)        # 1559e8 <__cpu_features2+0x8>
   10508:	45 85 c9             	test   %r9d,%r9d
   1050b:	74 13                	je     10520 <__cpu_indicator_init+0x520>
   1050d:	a8 20                	test   $0x20,%al
   1050f:	0f 85 24 0c 00 00    	jne    11139 <__cpu_indicator_init+0x1139>
   10515:	89 d1                	mov    %edx,%ecx
   10517:	c1 e9 13             	shr    $0x13,%ecx
   1051a:	83 e1 01             	and    $0x1,%ecx
   1051d:	41 89 c9             	mov    %ecx,%r9d
   10520:	45 85 ff             	test   %r15d,%r15d
   10523:	74 1a                	je     1053f <__cpu_indicator_init+0x53f>
   10525:	a9 00 00 20 00       	test   $0x200000,%eax
   1052a:	0f 85 17 0c 00 00    	jne    11147 <__cpu_indicator_init+0x1147>
   10530:	f6 c6 01             	test   $0x1,%dh
   10533:	74 0a                	je     1053f <__cpu_indicator_init+0x53f>
   10535:	81 0d a9 54 14 00 00 04 00 00 	orl    $0x400,0x1454a9(%rip)        # 1559e8 <__cpu_features2+0x8>
   1053f:	83 7d d0 00          	cmpl   $0x0,-0x30(%rbp)
   10543:	74 12                	je     10557 <__cpu_indicator_init+0x557>
   10545:	81 e2 00 00 20 00    	and    $0x200000,%edx
   1054b:	74 0a                	je     10557 <__cpu_indicator_init+0x557>
   1054d:	81 0d 91 54 14 00 00 80 00 00 	orl    $0x8000,0x145491(%rip)        # 1559e8 <__cpu_features2+0x8>
   10557:	83 ff 0c             	cmp    $0xc,%edi
   1055a:	76 59                	jbe    105b5 <__cpu_indicator_init+0x5b5>
   1055c:	b8 0d 00 00 00       	mov    $0xd,%eax
   10561:	b9 01 00 00 00       	mov    $0x1,%ecx
   10566:	0f a2                	cpuid
   10568:	a8 01                	test   $0x1,%al
   1056a:	0f 85 d3 03 00 00    	jne    10943 <__cpu_indicator_init+0x943>
   10570:	a8 02                	test   $0x2,%al
   10572:	0f 85 51 04 00 00    	jne    109c9 <__cpu_indicator_init+0x9c9>
   10578:	a8 08                	test   $0x8,%al
   1057a:	0f 85 3a 04 00 00    	jne    109ba <__cpu_indicator_init+0x9ba>
   10580:	83 ff 13             	cmp    $0x13,%edi
   10583:	76 30                	jbe    105b5 <__cpu_indicator_init+0x5b5>
   10585:	b8 14 00 00 00       	mov    $0x14,%eax
   1058a:	31 c9                	xor    %ecx,%ecx
   1058c:	0f a2                	cpuid
   1058e:	80 e3 10             	and    $0x10,%bl
   10591:	0f 85 c1 0a 00 00    	jne    11058 <__cpu_indicator_init+0x1058>
   10597:	83 ff 18             	cmp    $0x18,%edi
   1059a:	76 19                	jbe    105b5 <__cpu_indicator_init+0x5b5>
   1059c:	b8 19 00 00 00       	mov    $0x19,%eax
   105a1:	0f a2                	cpuid
   105a3:	f6 c3 01             	test   $0x1,%bl
   105a6:	0f 85 10 05 00 00    	jne    10abc <__cpu_indicator_init+0xabc>
   105ac:	83 ff 1d             	cmp    $0x1d,%edi
   105af:	0f 87 08 03 00 00    	ja     108bd <__cpu_indicator_init+0x8bd>
   105b5:	b8 00 00 00 80       	mov    $0x80000000,%eax
   105ba:	0f a2                	cpuid
   105bc:	89 c7                	mov    %eax,%edi
   105be:	3d 00 00 00 80       	cmp    $0x80000000,%eax
   105c3:	0f 86 c2 00 00 00    	jbe    1068b <__cpu_indicator_init+0x68b>
   105c9:	b8 01 00 00 80       	mov    $0x80000001,%eax
   105ce:	0f a2                	cpuid
   105d0:	f6 c1 40             	test   $0x40,%cl
   105d3:	74 0a                	je     105df <__cpu_indicator_init+0x5df>
   105d5:	81 0d 1d 54 14 00 00 08 00 00 	orl    $0x800,0x14541d(%rip)        # 1559fc <__cpu_model+0xc>
   105df:	f6 c1 01             	test   $0x1,%cl
   105e2:	0f 85 51 0a 00 00    	jne    11039 <__cpu_indicator_init+0x1039>
   105e8:	89 c8                	mov    %ecx,%eax
   105ea:	83 e0 20             	and    $0x20,%eax
   105ed:	0f 85 35 0a 00 00    	jne    11028 <__cpu_indicator_init+0x1028>
   105f3:	f6 c5 80             	test   $0x80,%ch
   105f6:	0f 85 1b 0a 00 00    	jne    11017 <__cpu_indicator_init+0x1017>
   105fc:	f7 c1 00 00 20 00    	test   $0x200000,%ecx
   10602:	0f 85 b6 08 00 00    	jne    10ebe <__cpu_indicator_init+0xebe>
   10608:	85 c0                	test   %eax,%eax
   1060a:	0f 85 9d 08 00 00    	jne    10ead <__cpu_indicator_init+0xead>
   10610:	f6 c5 01             	test   $0x1,%ch
   10613:	0f 85 88 08 00 00    	jne    10ea1 <__cpu_indicator_init+0xea1>
   10619:	f7 c1 00 00 00 20    	test   $0x20000000,%ecx
   1061f:	0f 85 6b 08 00 00    	jne    10e90 <__cpu_indicator_init+0xe90>
   10625:	f7 c2 00 00 00 20    	test   $0x20000000,%edx
   1062b:	0f 85 4e 08 00 00    	jne    10e7f <__cpu_indicator_init+0xe7f>
   10631:	f7 c2 00 00 00 40    	test   $0x40000000,%edx
   10637:	0f 85 33 08 00 00    	jne    10e70 <__cpu_indicator_init+0xe70>
   1063d:	85 d2                	test   %edx,%edx
   1063f:	0f 88 05 0a 00 00    	js     1104a <__cpu_indicator_init+0x104a>
   10645:	45 85 db             	test   %r11d,%r11d
   10648:	74 1b                	je     10665 <__cpu_indicator_init+0x665>
   1064a:	f7 c1 00 00 01 00    	test   $0x10000,%ecx
   10650:	74 0a                	je     1065c <__cpu_indicator_init+0x65c>
   10652:	81 0d a0 53 14 00 00 10 00 00 	orl    $0x1000,0x1453a0(%rip)        # 1559fc <__cpu_model+0xc>
   1065c:	80 e5 08             	and    $0x8,%ch
   1065f:	0f 85 3a 02 00 00    	jne    1089f <__cpu_indicator_init+0x89f>
   10665:	81 ff 07 00 00 80    	cmp    $0x80000007,%edi
   1066b:	76 1e                	jbe    1068b <__cpu_indicator_init+0x68b>
   1066d:	b8 08 00 00 80       	mov    $0x80000008,%eax
   10672:	0f a2                	cpuid
   10674:	89 df                	mov    %ebx,%edi
   10676:	f6 c3 01             	test   $0x1,%bl
   10679:	0f 85 2a 03 00 00    	jne    109a9 <__cpu_indicator_init+0x9a9>
   1067f:	81 e7 00 02 00 00    	and    $0x200,%edi
   10685:	0f 85 c1 03 00 00    	jne    10a4c <__cpu_indicator_init+0xa4c>
   1068b:	41 81 fa 47 65 6e 75 	cmp    $0x756e6547,%r10d
   10692:	0f 84 a8 00 00 00    	je     10740 <__cpu_indicator_init+0x740>
   10698:	41 81 fa 41 75 74 68 	cmp    $0x68747541,%r10d
   1069f:	0f 84 31 01 00 00    	je     107d6 <__cpu_indicator_init+0x7d6>
   106a5:	41 81 fa 43 65 6e 74 	cmp    $0x746e6543,%r10d
   106ac:	0f 94 c2             	sete   %dl
   106af:	41 83 fe 06          	cmp    $0x6,%r14d
   106b3:	0f 87 31 01 00 00    	ja     107ea <__cpu_indicator_init+0x7ea>
   106b9:	b8 05 00 00 00       	mov    $0x5,%eax
   106be:	84 d2                	test   %dl,%dl
   106c0:	0f 84 24 01 00 00    	je     107ea <__cpu_indicator_init+0x7ea>
   106c6:	89 05 24 53 14 00    	mov    %eax,0x145324(%rip)        # 1559f0 <__cpu_model>
   106cc:	8b 05 0e 53 14 00    	mov    0x14530e(%rip),%eax        # 1559e0 <__cpu_features2>
   106d2:	a9 00 00 80 00       	test   $0x800000,%eax
   106d7:	74 0f                	je     106e8 <__cpu_indicator_init+0x6e8>
   106d9:	8b 15 1d 53 14 00    	mov    0x14531d(%rip),%edx        # 1559fc <__cpu_model+0xc>
   106df:	f6 c2 10             	test   $0x10,%dl
   106e2:	0f 85 3d 01 00 00    	jne    10825 <__cpu_indicator_init+0x825>
   106e8:	31 c0                	xor    %eax,%eax
   106ea:	eb 0f                	jmp    106fb <__cpu_indicator_init+0x6fb>
   106ec:	c7 05 fa 52 14 00 04 00 00 00 	movl   $0x4,0x1452fa(%rip)        # 1559f0 <__cpu_model>
   106f6:	b8 ff ff ff ff       	mov    $0xffffffff,%eax
   106fb:	5b                   	pop    %rbx
   106fc:	41 5c                	pop    %r12
   106fe:	41 5d                	pop    %r13
   10700:	41 5e                	pop    %r14
   10702:	41 5f                	pop    %r15
   10704:	5d                   	pop    %rbp
   10705:	c3                   	ret
   10706:	31 c0                	xor    %eax,%eax
   10708:	c3                   	ret
   10709:	31 c9                	xor    %ecx,%ecx
   1070b:	0f 01 d0             	xgetbv
   1070e:	89 c2                	mov    %eax,%edx
   10710:	f7 d2                	not    %edx
   10712:	80 e2 06             	and    $0x6,%dl
   10715:	0f 84 00 07 00 00    	je     10e1b <__cpu_indicator_init+0xe1b>
   1071b:	45 31 c9             	xor    %r9d,%r9d
   1071e:	45 31 db             	xor    %r11d,%r11d
   10721:	89 c2                	mov    %eax,%edx
   10723:	45 31 ff             	xor    %r15d,%r15d
   10726:	f7 d2                	not    %edx
   10728:	81 e2 00 00 06 00    	and    $0x60000,%edx
   1072e:	41 0f 94 c7          	sete   %r15b
   10732:	c1 e8 13             	shr    $0x13,%eax
   10735:	83 e0 01             	and    $0x1,%eax
   10738:	89 45 d0             	mov    %eax,-0x30(%rbp)
   1073b:	e9 62 f9 ff ff       	jmp    100a2 <__cpu_indicator_init+0xa2>
   10740:	41 83 fe 0f          	cmp    $0xf,%r14d
   10744:	0f 84 1a 09 00 00    	je     11064 <__cpu_indicator_init+0x1064>
   1074a:	41 83 fe 06          	cmp    $0x6,%r14d
   1074e:	0f 84 07 03 00 00    	je     10a5b <__cpu_indicator_init+0xa5b>
   10754:	b8 01 00 00 00       	mov    $0x1,%eax
   10759:	e9 68 ff ff ff       	jmp    106c6 <__cpu_indicator_init+0x6c6>
   1075e:	81 ce 00 80 00 00    	or     $0x8000,%esi
   10764:	89 35 76 52 14 00    	mov    %esi,0x145276(%rip)        # 1559e0 <__cpu_features2>
   1076a:	e9 86 f9 ff ff       	jmp    100f5 <__cpu_indicator_init+0xf5>
   1076f:	81 ce 00 00 00 40    	or     $0x40000000,%esi
   10775:	89 35 65 52 14 00    	mov    %esi,0x145265(%rip)        # 1559e0 <__cpu_features2>
   1077b:	e9 01 fa ff ff       	jmp    10181 <__cpu_indicator_init+0x181>
   10780:	81 ce 00 00 08 00    	or     $0x80000,%esi
   10786:	89 35 54 52 14 00    	mov    %esi,0x145254(%rip)        # 1559e0 <__cpu_features2>
   1078c:	e9 71 f9 ff ff       	jmp    10102 <__cpu_indicator_init+0x102>
   10791:	81 0d 49 52 14 00 00 00 02 00 	orl    $0x20000,0x145249(%rip)        # 1559e4 <__cpu_features2+0x4>
   1079b:	e9 23 fa ff ff       	jmp    101c3 <__cpu_indicator_init+0x1c3>
   107a0:	83 0d 3d 52 14 00 20 	orl    $0x20,0x14523d(%rip)        # 1559e4 <__cpu_features2+0x4>
   107a7:	e9 0a fa ff ff       	jmp    101b6 <__cpu_indicator_init+0x1b6>
   107ac:	81 ce 00 00 00 04    	or     $0x4000000,%esi
   107b2:	89 35 28 52 14 00    	mov    %esi,0x145228(%rip)        # 1559e0 <__cpu_features2>
   107b8:	e9 de f9 ff ff       	jmp    1019b <__cpu_indicator_init+0x19b>
   107bd:	81 ce 00 40 00 00    	or     $0x4000,%esi
   107c3:	89 35 17 52 14 00    	mov    %esi,0x145217(%rip)        # 1559e0 <__cpu_features2>
   107c9:	e9 c0 f9 ff ff       	jmp    1018e <__cpu_indicator_init+0x18e>
   107ce:	45 31 c9             	xor    %r9d,%r9d
   107d1:	e9 81 fd ff ff       	jmp    10557 <__cpu_indicator_init+0x557>
   107d6:	41 83 fe 0f          	cmp    $0xf,%r14d
   107da:	0f 84 b6 02 00 00    	je     10a96 <__cpu_indicator_init+0xa96>
   107e0:	b8 02 00 00 00       	mov    $0x2,%eax
   107e5:	e9 dc fe ff ff       	jmp    106c6 <__cpu_indicator_init+0x6c6>
   107ea:	41 81 fa 20 20 53 68 	cmp    $0x68532020,%r10d
   107f1:	0f 84 fb 02 00 00    	je     10af2 <__cpu_indicator_init+0xaf2>
   107f7:	84 d2                	test   %dl,%dl
   107f9:	0f 85 f3 02 00 00    	jne    10af2 <__cpu_indicator_init+0xaf2>
   107ff:	41 81 fa 43 79 72 69 	cmp    $0x69727943,%r10d
   10806:	0f 84 4a 09 00 00    	je     11156 <__cpu_indicator_init+0x1156>
   1080c:	41 81 fa 47 65 6f 64 	cmp    $0x646f6547,%r10d
   10813:	b8 04 00 00 00       	mov    $0x4,%eax
   10818:	ba 07 00 00 00       	mov    $0x7,%edx
   1081d:	0f 44 c2             	cmove  %edx,%eax
   10820:	e9 a1 fe ff ff       	jmp    106c6 <__cpu_indicator_init+0x6c6>
   10825:	81 0d b5 51 14 00 00 00 00 80 	orl    $0x80000000,0x1451b5(%rip)        # 1559e4 <__cpu_features2+0x4>
   1082f:	89 c1                	mov    %eax,%ecx
   10831:	f7 d1                	not    %ecx
   10833:	81 e1 00 40 40 00    	and    $0x404000,%ecx
   10839:	0f 85 a9 fe ff ff    	jne    106e8 <__cpu_indicator_init+0x6e8>
   1083f:	89 d1                	mov    %edx,%ecx
   10841:	f7 d1                	not    %ecx
   10843:	81 e1 04 01 00 00    	and    $0x104,%ecx
   10849:	0f 85 99 fe ff ff    	jne    106e8 <__cpu_indicator_init+0x6e8>
   1084f:	8b 0d 93 51 14 00    	mov    0x145193(%rip),%ecx        # 1559e8 <__cpu_features2+0x8>
   10855:	89 ce                	mov    %ecx,%esi
   10857:	83 ce 01             	or     $0x1,%esi
   1085a:	89 35 88 51 14 00    	mov    %esi,0x145188(%rip)        # 1559e8 <__cpu_features2+0x8>
   10860:	89 d6                	mov    %edx,%esi
   10862:	f7 d6                	not    %esi
   10864:	81 e6 00 44 03 00    	and    $0x34400,%esi
   1086a:	0f 85 78 fe ff ff    	jne    106e8 <__cpu_indicator_init+0x6e8>
   10870:	f7 d0                	not    %eax
   10872:	a9 00 00 02 06       	test   $0x6020000,%eax
   10877:	0f 85 6b fe ff ff    	jne    106e8 <__cpu_indicator_init+0x6e8>
   1087d:	89 ce                	mov    %ecx,%esi
   1087f:	89 c8                	mov    %ecx,%eax
   10881:	f7 d2                	not    %edx
   10883:	83 ce 07             	or     $0x7,%esi
   10886:	83 c8 03             	or     $0x3,%eax
   10889:	81 e2 00 00 f0 00    	and    $0xf00000,%edx
   1088f:	0f 44 c6             	cmove  %esi,%eax
   10892:	89 05 50 51 14 00    	mov    %eax,0x145150(%rip)        # 1559e8 <__cpu_features2+0x8>
   10898:	31 c0                	xor    %eax,%eax
   1089a:	e9 5c fe ff ff       	jmp    106fb <__cpu_indicator_init+0x6fb>
   1089f:	81 0d 53 51 14 00 00 20 00 00 	orl    $0x2000,0x145153(%rip)        # 1559fc <__cpu_model+0xc>
   108a9:	e9 b7 fd ff ff       	jmp    10665 <__cpu_indicator_init+0x665>
   108ae:	81 0d 44 51 14 00 00 00 10 00 	orl    $0x100000,0x145144(%rip)        # 1559fc <__cpu_model+0xc>
   108b8:	e9 03 fb ff ff       	jmp    103c0 <__cpu_indicator_init+0x3c0>
   108bd:	b8 1e 00 00 00       	mov    $0x1e,%eax
   108c2:	b9 01 00 00 00       	mov    $0x1,%ecx
   108c7:	0f a2                	cpuid
   108c9:	45 85 ff             	test   %r15d,%r15d
   108cc:	74 29                	je     108f7 <__cpu_indicator_init+0x8f7>
   108ce:	a8 80                	test   $0x80,%al
   108d0:	0f 85 27 09 00 00    	jne    111fd <__cpu_indicator_init+0x11fd>
   108d6:	a8 40                	test   $0x40,%al
   108d8:	0f 85 10 09 00 00    	jne    111ee <__cpu_indicator_init+0x11ee>
   108de:	a8 20                	test   $0x20,%al
   108e0:	0f 85 f9 08 00 00    	jne    111df <__cpu_indicator_init+0x11df>
   108e6:	a8 10                	test   $0x10,%al
   108e8:	0f 85 e2 08 00 00    	jne    111d0 <__cpu_indicator_init+0x11d0>
   108ee:	f6 c4 01             	test   $0x1,%ah
   108f1:	0f 85 ca 08 00 00    	jne    111c1 <__cpu_indicator_init+0x11c1>
   108f7:	83 ff 23             	cmp    $0x23,%edi
   108fa:	0f 86 b5 fc ff ff    	jbe    105b5 <__cpu_indicator_init+0x5b5>
   10900:	45 85 c9             	test   %r9d,%r9d
   10903:	0f 84 ac fc ff ff    	je     105b5 <__cpu_indicator_init+0x5b5>
   10909:	b8 24 00 00 00       	mov    $0x24,%eax
   1090e:	31 c9                	xor    %ecx,%ecx
   10910:	0f a2                	cpuid
   10912:	0f b6 d3             	movzbl %bl,%edx
   10915:	80 eb 01             	sub    $0x1,%bl
   10918:	74 1a                	je     10934 <__cpu_indicator_init+0x934>
   1091a:	8b 05 c8 50 14 00    	mov    0x1450c8(%rip),%eax        # 1559e8 <__cpu_features2+0x8>
   10920:	83 fa 02             	cmp    $0x2,%edx
   10923:	0f 85 0b 05 00 00    	jne    10e34 <__cpu_indicator_init+0xe34>
   10929:	0d 00 00 10 00       	or     $0x100000,%eax
   1092e:	89 05 b4 50 14 00    	mov    %eax,0x1450b4(%rip)        # 1559e8 <__cpu_features2+0x8>
   10934:	81 0d aa 50 14 00 00 00 06 00 	orl    $0x60000,0x1450aa(%rip)        # 1559e8 <__cpu_features2+0x8>
   1093e:	e9 72 fc ff ff       	jmp    105b5 <__cpu_indicator_init+0x5b5>
   10943:	81 0d 97 50 14 00 00 00 08 00 	orl    $0x80000,0x145097(%rip)        # 1559e4 <__cpu_features2+0x4>
   1094d:	e9 1e fc ff ff       	jmp    10570 <__cpu_indicator_init+0x570>
   10952:	83 ce 08             	or     $0x8,%esi
   10955:	89 35 85 50 14 00    	mov    %esi,0x145085(%rip)        # 1559e0 <__cpu_features2>
   1095b:	e9 e6 fa ff ff       	jmp    10446 <__cpu_indicator_init+0x446>
   10960:	83 ce 04             	or     $0x4,%esi
   10963:	89 35 77 50 14 00    	mov    %esi,0x145077(%rip)        # 1559e0 <__cpu_features2>
   10969:	e9 cb fa ff ff       	jmp    10439 <__cpu_indicator_init+0x439>
   1096e:	81 0d 6c 50 14 00 00 00 80 00 	orl    $0x800000,0x14506c(%rip)        # 1559e4 <__cpu_features2+0x4>
   10978:	e9 1e fa ff ff       	jmp    1039b <__cpu_indicator_init+0x39b>
   1097d:	81 0d 5d 50 14 00 00 00 40 00 	orl    $0x400000,0x14505d(%rip)        # 1559e4 <__cpu_features2+0x4>
   10987:	e9 03 fa ff ff       	jmp    1038f <__cpu_indicator_init+0x38f>
   1098c:	81 0d 4e 50 14 00 00 00 20 00 	orl    $0x200000,0x14504e(%rip)        # 1559e4 <__cpu_features2+0x4>
   10996:	e9 e8 f9 ff ff       	jmp    10383 <__cpu_indicator_init+0x383>
   1099b:	83 ce 20             	or     $0x20,%esi
   1099e:	89 35 3c 50 14 00    	mov    %esi,0x14503c(%rip)        # 1559e0 <__cpu_features2>
   109a4:	e9 b9 fa ff ff       	jmp    10462 <__cpu_indicator_init+0x462>
   109a9:	81 ce 00 20 00 00    	or     $0x2000,%esi
   109af:	89 35 2b 50 14 00    	mov    %esi,0x14502b(%rip)        # 1559e0 <__cpu_features2>
   109b5:	e9 c5 fc ff ff       	jmp    1067f <__cpu_indicator_init+0x67f>
   109ba:	81 0d 20 50 14 00 00 00 10 00 	orl    $0x100000,0x145020(%rip)        # 1559e4 <__cpu_features2+0x4>
   109c4:	e9 b7 fb ff ff       	jmp    10580 <__cpu_indicator_init+0x580>
   109c9:	81 0d 11 50 14 00 00 00 04 00 	orl    $0x40000,0x145011(%rip)        # 1559e4 <__cpu_features2+0x4>
   109d3:	e9 a0 fb ff ff       	jmp    10578 <__cpu_indicator_init+0x578>
   109d8:	81 0d 06 50 14 00 00 01 00 00 	orl    $0x100,0x145006(%rip)        # 1559e8 <__cpu_features2+0x8>
   109e2:	e9 b7 fa ff ff       	jmp    1049e <__cpu_indicator_init+0x49e>
   109e7:	83 0d fa 4f 14 00 40 	orl    $0x40,0x144ffa(%rip)        # 1559e8 <__cpu_features2+0x8>
   109ee:	e9 a2 fa ff ff       	jmp    10495 <__cpu_indicator_init+0x495>
   109f3:	81 0d e7 4f 14 00 00 00 00 02 	orl    $0x2000000,0x144fe7(%rip)        # 1559e4 <__cpu_features2+0x4>
   109fd:	e9 8b fa ff ff       	jmp    1048d <__cpu_indicator_init+0x48d>
   10a02:	81 0d d8 4f 14 00 00 00 00 40 	orl    $0x40000000,0x144fd8(%rip)        # 1559e4 <__cpu_features2+0x4>
   10a0c:	e9 5d fa ff ff       	jmp    1046e <__cpu_indicator_init+0x46e>
   10a11:	81 0d cd 4f 14 00 00 00 01 00 	orl    $0x10000,0x144fcd(%rip)        # 1559e8 <__cpu_features2+0x8>
   10a1b:	e9 8f fa ff ff       	jmp    104af <__cpu_indicator_init+0x4af>
   10a20:	81 0d be 4f 14 00 00 02 00 00 	orl    $0x200,0x144fbe(%rip)        # 1559e8 <__cpu_features2+0x8>
   10a2a:	e9 77 fa ff ff       	jmp    104a6 <__cpu_indicator_init+0x4a6>
   10a2f:	83 ce 02             	or     $0x2,%esi
   10a32:	89 35 a8 4f 14 00    	mov    %esi,0x144fa8(%rip)        # 1559e0 <__cpu_features2>
   10a38:	e9 28 f8 ff ff       	jmp    10265 <__cpu_indicator_init+0x265>
   10a3d:	81 0d 9d 4f 14 00 00 40 00 00 	orl    $0x4000,0x144f9d(%rip)        # 1559e4 <__cpu_features2+0x4>
   10a47:	e9 26 f8 ff ff       	jmp    10272 <__cpu_indicator_init+0x272>
   10a4c:	81 0d 8e 4f 14 00 00 00 01 00 	orl    $0x10000,0x144f8e(%rip)        # 1559e4 <__cpu_features2+0x4>
   10a56:	e9 30 fc ff ff       	jmp    1068b <__cpu_indicator_init+0x68b>
   10a5b:	8b 4d d4             	mov    -0x2c(%rbp),%ecx
   10a5e:	44 09 e9             	or     %r13d,%ecx
   10a61:	81 f9 b6 00 00 00    	cmp    $0xb6,%ecx
   10a67:	0f 87 f3 06 00 00    	ja     11160 <__cpu_indicator_init+0x1160>
   10a6d:	83 f9 24             	cmp    $0x24,%ecx
   10a70:	0f 86 e8 07 00 00    	jbe    1125e <__cpu_indicator_init+0x125e>
   10a76:	83 e9 25             	sub    $0x25,%ecx
   10a79:	81 f9 91 00 00 00    	cmp    $0x91,%ecx
   10a7f:	0f 87 cf fc ff ff    	ja     10754 <__cpu_indicator_init+0x754>
   10a85:	48 8d 15 54 0d 04 00 	lea    0x40d54(%rip),%rdx        # 517e0 <_IO_stdin_used+0x7e0>
   10a8c:	48 63 04 8a          	movslq (%rdx,%rcx,4),%rax
   10a90:	48 01 d0             	add    %rdx,%rax
   10a93:	3e ff e0             	notrack jmp *%rax
   10a96:	8b 45 cc             	mov    -0x34(%rbp),%eax
   10a99:	8b 55 d4             	mov    -0x2c(%rbp),%edx
   10a9c:	83 e8 01             	sub    $0x1,%eax
   10a9f:	44 09 ea             	or     %r13d,%edx
   10aa2:	83 f8 0a             	cmp    $0xa,%eax
   10aa5:	0f 87 35 fd ff ff    	ja     107e0 <__cpu_indicator_init+0x7e0>
   10aab:	48 8d 0d 76 0f 04 00 	lea    0x40f76(%rip),%rcx        # 51a28 <_IO_stdin_used+0xa28>
   10ab2:	48 63 04 81          	movslq (%rcx,%rax,4),%rax
   10ab6:	48 01 c8             	add    %rcx,%rax
   10ab9:	3e ff e0             	notrack jmp *%rax
   10abc:	8b 05 22 4f 14 00    	mov    0x144f22(%rip),%eax        # 1559e4 <__cpu_features2+0x4>
   10ac2:	89 c2                	mov    %eax,%edx
   10ac4:	0d 00 00 00 18       	or     $0x18000000,%eax
   10ac9:	81 ca 00 00 00 08    	or     $0x8000000,%edx
   10acf:	80 e3 04             	and    $0x4,%bl
   10ad2:	0f 44 c2             	cmove  %edx,%eax
   10ad5:	89 c2                	mov    %eax,%edx
   10ad7:	81 ca 00 00 00 04    	or     $0x4000000,%edx
   10add:	41 81 e0 00 00 80 00 	and    $0x800000,%r8d
   10ae4:	0f 45 c2             	cmovne %edx,%eax
   10ae7:	89 05 f7 4e 14 00    	mov    %eax,0x144ef7(%rip)        # 1559e4 <__cpu_features2+0x4>
   10aed:	e9 ba fa ff ff       	jmp    105ac <__cpu_indicator_init+0x5ac>
   10af2:	41 83 fe 07          	cmp    $0x7,%r14d
   10af6:	0f 84 a3 05 00 00    	je     1109f <__cpu_indicator_init+0x109f>
   10afc:	b8 03 00 00 00       	mov    $0x3,%eax
   10b01:	e9 c0 fb ff ff       	jmp    106c6 <__cpu_indicator_init+0x6c6>
   10b06:	c7 05 e4 4e 14 00 14 00 00 00 	movl   $0x14,0x144ee4(%rip)        # 1559f4 <__cpu_model+0x4>
   10b10:	83 fa 77             	cmp    $0x77,%edx
   10b13:	76 0a                	jbe    10b1f <__cpu_indicator_init+0xb1f>
   10b15:	40 80 e6 20          	and    $0x20,%sil
   10b19:	0f 84 c1 fc ff ff    	je     107e0 <__cpu_indicator_init+0x7e0>
   10b1f:	c7 05 cf 4e 14 00 24 00 00 00 	movl   $0x24,0x144ecf(%rip)        # 1559f8 <__cpu_model+0x8>
   10b29:	e9 b2 fc ff ff       	jmp    107e0 <__cpu_indicator_init+0x7e0>
   10b2e:	c7 05 bc 4e 14 00 09 00 00 00 	movl   $0x9,0x144ebc(%rip)        # 1559f4 <__cpu_model+0x4>
   10b38:	e9 a3 fc ff ff       	jmp    107e0 <__cpu_indicator_init+0x7e0>
   10b3d:	c7 05 ad 4e 14 00 05 00 00 00 	movl   $0x5,0x144ead(%rip)        # 1559f4 <__cpu_model+0x4>
   10b47:	83 fa 02             	cmp    $0x2,%edx
   10b4a:	0f 84 bc 06 00 00    	je     1120c <__cpu_indicator_init+0x120c>
   10b50:	83 fa 0f             	cmp    $0xf,%edx
   10b53:	0f 87 3e 07 00 00    	ja     11297 <__cpu_indicator_init+0x1297>
   10b59:	c7 05 95 4e 14 00 07 00 00 00 	movl   $0x7,0x144e95(%rip)        # 1559f8 <__cpu_model+0x8>
   10b63:	e9 78 fc ff ff       	jmp    107e0 <__cpu_indicator_init+0x7e0>
   10b68:	c7 05 82 4e 14 00 08 00 00 00 	movl   $0x8,0x144e82(%rip)        # 1559f4 <__cpu_model+0x4>
   10b72:	e9 69 fc ff ff       	jmp    107e0 <__cpu_indicator_init+0x7e0>
   10b77:	c7 05 73 4e 14 00 04 00 00 00 	movl   $0x4,0x144e73(%rip)        # 1559f4 <__cpu_model+0x4>
   10b81:	83 fa 04             	cmp    $0x4,%edx
   10b84:	0f 84 68 07 00 00    	je     112f2 <__cpu_indicator_init+0x12f2>
   10b8a:	83 fa 08             	cmp    $0x8,%edx
   10b8d:	0f 84 50 07 00 00    	je     112e3 <__cpu_indicator_init+0x12e3>
   10b93:	83 fa 02             	cmp    $0x2,%edx
   10b96:	0f 85 44 fc ff ff    	jne    107e0 <__cpu_indicator_init+0x7e0>
   10b9c:	c7 05 52 4e 14 00 04 00 00 00 	movl   $0x4,0x144e52(%rip)        # 1559f8 <__cpu_model+0x8>
   10ba6:	e9 35 fc ff ff       	jmp    107e0 <__cpu_indicator_init+0x7e0>
   10bab:	c7 05 3f 4e 14 00 0f 00 00 00 	movl   $0xf,0x144e3f(%rip)        # 1559f4 <__cpu_model+0x4>
   10bb5:	83 fa 0f             	cmp    $0xf,%edx
   10bb8:	76 32                	jbe    10bec <__cpu_indicator_init+0xbec>
   10bba:	8d 42 f0             	lea    -0x10(%rdx),%eax
   10bbd:	83 f8 0f             	cmp    $0xf,%eax
   10bc0:	0f 86 7a 06 00 00    	jbe    11240 <__cpu_indicator_init+0x1240>
   10bc6:	83 ea 60             	sub    $0x60,%edx
   10bc9:	83 fa 4f             	cmp    $0x4f,%edx
   10bcc:	0f 86 6e 06 00 00    	jbe    11240 <__cpu_indicator_init+0x1240>
   10bd2:	f6 05 24 4e 14 00 80 	testb  $0x80,0x144e24(%rip)        # 1559fd <__cpu_model+0xd>
   10bd9:	0f 85 61 06 00 00    	jne    11240 <__cpu_indicator_init+0x1240>
   10bdf:	f6 05 ff 4d 14 00 40 	testb  $0x40,0x144dff(%rip)        # 1559e5 <__cpu_features2+0x5>
   10be6:	0f 84 f4 fb ff ff    	je     107e0 <__cpu_indicator_init+0x7e0>
   10bec:	c7 05 02 4e 14 00 1a 00 00 00 	movl   $0x1a,0x144e02(%rip)        # 1559f8 <__cpu_model+0x8>
   10bf6:	e9 e5 fb ff ff       	jmp    107e0 <__cpu_indicator_init+0x7e0>
   10bfb:	c7 05 ef 4d 14 00 0a 00 00 00 	movl   $0xa,0x144def(%rip)        # 1559f4 <__cpu_model+0x4>
   10c05:	83 fa 1f             	cmp    $0x1f,%edx
   10c08:	76 21                	jbe    10c2b <__cpu_indicator_init+0xc2b>
   10c0a:	83 fa 2f             	cmp    $0x2f,%edx
   10c0d:	0f 87 3c 06 00 00    	ja     1124f <__cpu_indicator_init+0x124f>
   10c13:	f7 c6 00 10 00 00    	test   $0x1000,%esi
   10c19:	0f 85 30 06 00 00    	jne    1124f <__cpu_indicator_init+0x124f>
   10c1f:	81 e6 00 20 00 00    	and    $0x2000,%esi
   10c25:	0f 84 b5 fb ff ff    	je     107e0 <__cpu_indicator_init+0x7e0>
   10c2b:	c7 05 c3 4d 14 00 0b 00 00 00 	movl   $0xb,0x144dc3(%rip)        # 1559f8 <__cpu_model+0x8>
   10c35:	e9 a6 fb ff ff       	jmp    107e0 <__cpu_indicator_init+0x7e0>
   10c3a:	c7 05 b0 4d 14 00 06 00 00 00 	movl   $0x6,0x144db0(%rip)        # 1559f4 <__cpu_model+0x4>
   10c44:	e9 0b fb ff ff       	jmp    10754 <__cpu_indicator_init+0x754>
   10c49:	48 8b 05 38 0e 04 00 	mov    0x40e38(%rip),%rax        # 51a88 <_IO_stdin_used+0xa88>
   10c50:	48 89 05 9d 4d 14 00 	mov    %rax,0x144d9d(%rip)        # 1559f4 <__cpu_model+0x4>
   10c57:	e9 f8 fa ff ff       	jmp    10754 <__cpu_indicator_init+0x754>
   10c5c:	48 8b 05 1d 0e 04 00 	mov    0x40e1d(%rip),%rax        # 51a80 <_IO_stdin_used+0xa80>
   10c63:	48 89 05 8a 4d 14 00 	mov    %rax,0x144d8a(%rip)        # 1559f4 <__cpu_model+0x4>
   10c6a:	e9 e5 fa ff ff       	jmp    10754 <__cpu_indicator_init+0x754>
   10c6f:	48 8b 05 02 0e 04 00 	mov    0x40e02(%rip),%rax        # 51a78 <_IO_stdin_used+0xa78>
   10c76:	48 89 05 77 4d 14 00 	mov    %rax,0x144d77(%rip)        # 1559f4 <__cpu_model+0x4>
   10c7d:	e9 d2 fa ff ff       	jmp    10754 <__cpu_indicator_init+0x754>
   10c82:	48 8b 05 2f 0e 04 00 	mov    0x40e2f(%rip),%rax        # 51ab8 <_IO_stdin_used+0xab8>
   10c89:	48 89 05 64 4d 14 00 	mov    %rax,0x144d64(%rip)        # 1559f4 <__cpu_model+0x4>
   10c90:	e9 bf fa ff ff       	jmp    10754 <__cpu_indicator_init+0x754>
   10c95:	48 8b 05 c4 0d 04 00 	mov    0x40dc4(%rip),%rax        # 51a60 <_IO_stdin_used+0xa60>
   10c9c:	48 89 05 51 4d 14 00 	mov    %rax,0x144d51(%rip)        # 1559f4 <__cpu_model+0x4>
   10ca3:	e9 ac fa ff ff       	jmp    10754 <__cpu_indicator_init+0x754>
   10ca8:	c7 05 42 4d 14 00 0e 00 00 00 	movl   $0xe,0x144d42(%rip)        # 1559f4 <__cpu_model+0x4>
   10cb2:	e9 9d fa ff ff       	jmp    10754 <__cpu_indicator_init+0x754>
   10cb7:	48 8b 05 da 0d 04 00 	mov    0x40dda(%rip),%rax        # 51a98 <_IO_stdin_used+0xa98>
   10cbe:	48 89 05 2f 4d 14 00 	mov    %rax,0x144d2f(%rip)        # 1559f4 <__cpu_model+0x4>
   10cc5:	e9 8a fa ff ff       	jmp    10754 <__cpu_indicator_init+0x754>
   10cca:	48 8b 05 df 0d 04 00 	mov    0x40ddf(%rip),%rax        # 51ab0 <_IO_stdin_used+0xab0>
   10cd1:	48 89 05 1c 4d 14 00 	mov    %rax,0x144d1c(%rip)        # 1559f4 <__cpu_model+0x4>
   10cd8:	e9 77 fa ff ff       	jmp    10754 <__cpu_indicator_init+0x754>
   10cdd:	48 8b 05 84 0d 04 00 	mov    0x40d84(%rip),%rax        # 51a68 <_IO_stdin_used+0xa68>
   10ce4:	48 89 05 09 4d 14 00 	mov    %rax,0x144d09(%rip)        # 1559f4 <__cpu_model+0x4>
   10ceb:	e9 64 fa ff ff       	jmp    10754 <__cpu_indicator_init+0x754>
   10cf0:	48 8b 05 79 0d 04 00 	mov    0x40d79(%rip),%rax        # 51a70 <_IO_stdin_used+0xa70>
   10cf7:	48 89 05 f6 4c 14 00 	mov    %rax,0x144cf6(%rip)        # 1559f4 <__cpu_model+0x4>
   10cfe:	e9 51 fa ff ff       	jmp    10754 <__cpu_indicator_init+0x754>
   10d03:	48 8b 05 96 0d 04 00 	mov    0x40d96(%rip),%rax        # 51aa0 <_IO_stdin_used+0xaa0>
   10d0a:	48 89 05 e3 4c 14 00 	mov    %rax,0x144ce3(%rip)        # 1559f4 <__cpu_model+0x4>
   10d11:	e9 3e fa ff ff       	jmp    10754 <__cpu_indicator_init+0x754>
   10d16:	c7 05 d4 4c 14 00 0c 00 00 00 	movl   $0xc,0x144cd4(%rip)        # 1559f4 <__cpu_model+0x4>
   10d20:	e9 2f fa ff ff       	jmp    10754 <__cpu_indicator_init+0x754>
   10d25:	48 8b 05 64 0d 04 00 	mov    0x40d64(%rip),%rax        # 51a90 <_IO_stdin_used+0xa90>
   10d2c:	48 89 05 c1 4c 14 00 	mov    %rax,0x144cc1(%rip)        # 1559f4 <__cpu_model+0x4>
   10d33:	e9 1c fa ff ff       	jmp    10754 <__cpu_indicator_init+0x754>
   10d38:	c7 05 b2 4c 14 00 03 00 00 00 	movl   $0x3,0x144cb2(%rip)        # 1559f4 <__cpu_model+0x4>
   10d42:	40 f6 c6 10          	test   $0x10,%sil
   10d46:	0f 84 fe 05 00 00    	je     1134a <__cpu_indicator_init+0x134a>
   10d4c:	c7 05 a2 4c 14 00 17 00 00 00 	movl   $0x17,0x144ca2(%rip)        # 1559f8 <__cpu_model+0x8>
   10d56:	e9 f9 f9 ff ff       	jmp    10754 <__cpu_indicator_init+0x754>
   10d5b:	c7 05 8f 4c 14 00 0d 00 00 00 	movl   $0xd,0x144c8f(%rip)        # 1559f4 <__cpu_model+0x4>
   10d65:	e9 ea f9 ff ff       	jmp    10754 <__cpu_indicator_init+0x754>
   10d6a:	c7 05 80 4c 14 00 12 00 00 00 	movl   $0x12,0x144c80(%rip)        # 1559f4 <__cpu_model+0x4>
   10d74:	e9 db f9 ff ff       	jmp    10754 <__cpu_indicator_init+0x754>
   10d79:	83 f9 0e             	cmp    $0xe,%ecx
   10d7c:	0f 85 d2 f9 ff ff    	jne    10754 <__cpu_indicator_init+0x754>
   10d82:	48 8b 05 4f 0d 04 00 	mov    0x40d4f(%rip),%rax        # 51ad8 <_IO_stdin_used+0xad8>
   10d89:	48 89 05 64 4c 14 00 	mov    %rax,0x144c64(%rip)        # 1559f4 <__cpu_model+0x4>
   10d90:	e9 bf f9 ff ff       	jmp    10754 <__cpu_indicator_init+0x754>
   10d95:	c7 05 55 4c 14 00 11 00 00 00 	movl   $0x11,0x144c55(%rip)        # 1559f4 <__cpu_model+0x4>
   10d9f:	e9 b0 f9 ff ff       	jmp    10754 <__cpu_indicator_init+0x754>
   10da4:	48 8b 05 fd 0c 04 00 	mov    0x40cfd(%rip),%rax        # 51aa8 <_IO_stdin_used+0xaa8>
   10dab:	48 89 05 42 4c 14 00 	mov    %rax,0x144c42(%rip)        # 1559f4 <__cpu_model+0x4>
   10db2:	e9 9d f9 ff ff       	jmp    10754 <__cpu_indicator_init+0x754>
   10db7:	83 f9 1c             	cmp    $0x1c,%ecx
   10dba:	0f 85 94 f9 ff ff    	jne    10754 <__cpu_indicator_init+0x754>
   10dc0:	c7 05 2a 4c 14 00 01 00 00 00 	movl   $0x1,0x144c2a(%rip)        # 1559f4 <__cpu_model+0x4>
   10dca:	e9 85 f9 ff ff       	jmp    10754 <__cpu_indicator_init+0x754>
   10dcf:	48 8b 05 fa 0c 04 00 	mov    0x40cfa(%rip),%rax        # 51ad0 <_IO_stdin_used+0xad0>
   10dd6:	48 89 05 17 4c 14 00 	mov    %rax,0x144c17(%rip)        # 1559f4 <__cpu_model+0x4>
   10ddd:	e9 72 f9 ff ff       	jmp    10754 <__cpu_indicator_init+0x754>
   10de2:	48 8b 05 df 0c 04 00 	mov    0x40cdf(%rip),%rax        # 51ac8 <_IO_stdin_used+0xac8>
   10de9:	48 89 05 04 4c 14 00 	mov    %rax,0x144c04(%rip)        # 1559f4 <__cpu_model+0x4>
   10df0:	e9 5f f9 ff ff       	jmp    10754 <__cpu_indicator_init+0x754>
   10df5:	48 8b 05 c4 0c 04 00 	mov    0x40cc4(%rip),%rax        # 51ac0 <_IO_stdin_used+0xac0>
   10dfc:	48 89 05 f1 4b 14 00 	mov    %rax,0x144bf1(%rip)        # 1559f4 <__cpu_model+0x4>
   10e03:	e9 4c f9 ff ff       	jmp    10754 <__cpu_indicator_init+0x754>
   10e08:	48 8b 05 49 0c 04 00 	mov    0x40c49(%rip),%rax        # 51a58 <_IO_stdin_used+0xa58>
   10e0f:	48 89 05 de 4b 14 00 	mov    %rax,0x144bde(%rip)        # 1559f4 <__cpu_model+0x4>
   10e16:	e9 39 f9 ff ff       	jmp    10754 <__cpu_indicator_init+0x754>
   10e1b:	89 c2                	mov    %eax,%edx
   10e1d:	45 31 c9             	xor    %r9d,%r9d
   10e20:	41 bb 01 00 00 00    	mov    $0x1,%r11d
   10e26:	f7 d2                	not    %edx
   10e28:	80 e2 e6             	and    $0xe6,%dl
   10e2b:	41 0f 94 c1          	sete   %r9b
   10e2f:	e9 ed f8 ff ff       	jmp    10721 <__cpu_indicator_init+0x721>
   10e34:	0d 00 00 06 00       	or     $0x60000,%eax
   10e39:	89 05 a9 4b 14 00    	mov    %eax,0x144ba9(%rip)        # 1559e8 <__cpu_features2+0x8>
   10e3f:	e9 71 f7 ff ff       	jmp    105b5 <__cpu_indicator_init+0x5b5>
   10e44:	81 0d 96 4b 14 00 80 00 00 00 	orl    $0x80,0x144b96(%rip)        # 1559e4 <__cpu_features2+0x4>
   10e4e:	e9 f0 f3 ff ff       	jmp    10243 <__cpu_indicator_init+0x243>
   10e53:	81 ce 00 01 00 00    	or     $0x100,%esi
   10e59:	89 35 81 4b 14 00    	mov    %esi,0x144b81(%rip)        # 1559e0 <__cpu_features2>
   10e5f:	e9 45 f4 ff ff       	jmp    102a9 <__cpu_indicator_init+0x2a9>
   10e64:	83 0d 79 4b 14 00 40 	orl    $0x40,0x144b79(%rip)        # 1559e4 <__cpu_features2+0x4>
   10e6b:	e9 2c f4 ff ff       	jmp    1029c <__cpu_indicator_init+0x29c>
   10e70:	40 80 ce 80          	or     $0x80,%sil
   10e74:	89 35 66 4b 14 00    	mov    %esi,0x144b66(%rip)        # 1559e0 <__cpu_features2>
   10e7a:	e9 be f7 ff ff       	jmp    1063d <__cpu_indicator_init+0x63d>
   10e7f:	81 ce 00 00 80 00    	or     $0x800000,%esi
   10e85:	89 35 55 4b 14 00    	mov    %esi,0x144b55(%rip)        # 1559e0 <__cpu_features2>
   10e8b:	e9 a1 f7 ff ff       	jmp    10631 <__cpu_indicator_init+0x631>
   10e90:	81 ce 00 00 00 20    	or     $0x20000000,%esi
   10e96:	89 35 44 4b 14 00    	mov    %esi,0x144b44(%rip)        # 1559e0 <__cpu_features2>
   10e9c:	e9 84 f7 ff ff       	jmp    10625 <__cpu_indicator_init+0x625>
   10ea1:	83 0d 3c 4b 14 00 04 	orl    $0x4,0x144b3c(%rip)        # 1559e4 <__cpu_features2+0x4>
   10ea8:	e9 6c f7 ff ff       	jmp    10619 <__cpu_indicator_init+0x619>
   10ead:	81 ce 00 00 00 02    	or     $0x2000000,%esi
   10eb3:	89 35 27 4b 14 00    	mov    %esi,0x144b27(%rip)        # 1559e0 <__cpu_features2>
   10eb9:	e9 52 f7 ff ff       	jmp    10610 <__cpu_indicator_init+0x610>
   10ebe:	81 0d 1c 4b 14 00 00 10 00 00 	orl    $0x1000,0x144b1c(%rip)        # 1559e4 <__cpu_features2+0x4>
   10ec8:	e9 3b f7 ff ff       	jmp    10608 <__cpu_indicator_init+0x608>
   10ecd:	81 ce 00 00 20 00    	or     $0x200000,%esi
   10ed3:	89 35 07 4b 14 00    	mov    %esi,0x144b07(%rip)        # 1559e0 <__cpu_features2>
   10ed9:	e9 8b f4 ff ff       	jmp    10369 <__cpu_indicator_init+0x369>
   10ede:	81 ce 00 00 00 80    	or     $0x80000000,%esi
   10ee4:	89 35 f6 4a 14 00    	mov    %esi,0x144af6(%rip)        # 1559e0 <__cpu_features2>
   10eea:	e9 6e f4 ff ff       	jmp    1035d <__cpu_indicator_init+0x35d>
   10eef:	81 0d eb 4a 14 00 00 20 00 00 	orl    $0x2000,0x144aeb(%rip)        # 1559e4 <__cpu_features2+0x4>
   10ef9:	e9 53 f4 ff ff       	jmp    10351 <__cpu_indicator_init+0x351>
   10efe:	81 0d dc 4a 14 00 00 01 00 00 	orl    $0x100,0x144adc(%rip)        # 1559e4 <__cpu_features2+0x4>
   10f08:	e9 38 f4 ff ff       	jmp    10345 <__cpu_indicator_init+0x345>
   10f0d:	81 0d cd 4a 14 00 00 08 00 00 	orl    $0x800,0x144acd(%rip)        # 1559e4 <__cpu_features2+0x4>
   10f17:	e9 20 f4 ff ff       	jmp    1033c <__cpu_indicator_init+0x33c>
   10f1c:	81 0d be 4a 14 00 00 80 00 00 	orl    $0x8000,0x144abe(%rip)        # 1559e4 <__cpu_features2+0x4>
   10f26:	e9 07 f4 ff ff       	jmp    10332 <__cpu_indicator_init+0x332>
   10f2b:	81 ce 00 04 00 00    	or     $0x400,%esi
   10f31:	89 35 a9 4a 14 00    	mov    %esi,0x144aa9(%rip)        # 1559e0 <__cpu_features2>
   10f37:	e9 ec f3 ff ff       	jmp    10328 <__cpu_indicator_init+0x328>
   10f3c:	81 ce 00 00 01 00    	or     $0x10000,%esi
   10f42:	89 35 98 4a 14 00    	mov    %esi,0x144a98(%rip)        # 1559e0 <__cpu_features2>
   10f48:	e9 ce f3 ff ff       	jmp    1031b <__cpu_indicator_init+0x31b>
   10f4d:	81 ce 00 00 00 08    	or     $0x8000000,%esi
   10f53:	89 35 87 4a 14 00    	mov    %esi,0x144a87(%rip)        # 1559e0 <__cpu_features2>
   10f59:	e9 b0 f3 ff ff       	jmp    1030e <__cpu_indicator_init+0x30e>
   10f5e:	81 ce 00 00 00 10    	or     $0x10000000,%esi
   10f64:	89 35 76 4a 14 00    	mov    %esi,0x144a76(%rip)        # 1559e0 <__cpu_features2>
   10f6a:	e9 92 f3 ff ff       	jmp    10301 <__cpu_indicator_init+0x301>
   10f6f:	83 ce 01             	or     $0x1,%esi
   10f72:	89 35 68 4a 14 00    	mov    %esi,0x144a68(%rip)        # 1559e0 <__cpu_features2>
   10f78:	e9 77 f3 ff ff       	jmp    102f4 <__cpu_indicator_init+0x2f4>
   10f7d:	83 0d 60 4a 14 00 10 	orl    $0x10,0x144a60(%rip)        # 1559e4 <__cpu_features2+0x4>
   10f84:	e9 5e f3 ff ff       	jmp    102e7 <__cpu_indicator_init+0x2e7>
   10f89:	83 0d 54 4a 14 00 01 	orl    $0x1,0x144a54(%rip)        # 1559e4 <__cpu_features2+0x4>
   10f90:	e9 45 f3 ff ff       	jmp    102da <__cpu_indicator_init+0x2da>
   10f95:	81 ce 00 10 00 00    	or     $0x1000,%esi
   10f9b:	89 35 3f 4a 14 00    	mov    %esi,0x144a3f(%rip)        # 1559e0 <__cpu_features2>
   10fa1:	e9 2a f3 ff ff       	jmp    102d0 <__cpu_indicator_init+0x2d0>
   10fa6:	81 ce 00 08 00 00    	or     $0x800,%esi
   10fac:	89 35 2e 4a 14 00    	mov    %esi,0x144a2e(%rip)        # 1559e0 <__cpu_features2>
   10fb2:	e9 0c f3 ff ff       	jmp    102c3 <__cpu_indicator_init+0x2c3>
   10fb7:	81 0d 23 4a 14 00 00 04 00 00 	orl    $0x400,0x144a23(%rip)        # 1559e4 <__cpu_features2+0x4>
   10fc1:	e9 f0 f2 ff ff       	jmp    102b6 <__cpu_indicator_init+0x2b6>
   10fc6:	81 ce 00 00 04 00    	or     $0x40000,%esi
   10fcc:	89 35 0e 4a 14 00    	mov    %esi,0x144a0e(%rip)        # 1559e0 <__cpu_features2>
   10fd2:	e9 b8 f2 ff ff       	jmp    1028f <__cpu_indicator_init+0x28f>
   10fd7:	81 ce 00 00 02 00    	or     $0x20000,%esi
   10fdd:	89 35 fd 49 14 00    	mov    %esi,0x1449fd(%rip)        # 1559e0 <__cpu_features2>
   10fe3:	e9 13 f2 ff ff       	jmp    101fb <__cpu_indicator_init+0x1fb>
   10fe8:	81 ce 00 00 10 00    	or     $0x100000,%esi
   10fee:	89 35 ec 49 14 00    	mov    %esi,0x1449ec(%rip)        # 1559e0 <__cpu_features2>
   10ff4:	e9 3d f2 ff ff       	jmp    10236 <__cpu_indicator_init+0x236>
   10ff9:	81 0d e1 49 14 00 00 02 00 00 	orl    $0x200,0x1449e1(%rip)        # 1559e4 <__cpu_features2+0x4>
   11003:	e9 24 f2 ff ff       	jmp    1022c <__cpu_indicator_init+0x22c>
   11008:	81 0d d2 49 14 00 00 00 00 01 	orl    $0x1000000,0x1449d2(%rip)        # 1559e4 <__cpu_features2+0x4>
   11012:	e9 5b f3 ff ff       	jmp    10372 <__cpu_indicator_init+0x372>
   11017:	81 ce 00 00 00 01    	or     $0x1000000,%esi
   1101d:	89 35 bd 49 14 00    	mov    %esi,0x1449bd(%rip)        # 1559e0 <__cpu_features2>
   11023:	e9 d4 f5 ff ff       	jmp    105fc <__cpu_indicator_init+0x5fc>
   11028:	81 ce 00 02 00 00    	or     $0x200,%esi
   1102e:	89 35 ac 49 14 00    	mov    %esi,0x1449ac(%rip)        # 1559e0 <__cpu_features2>
   11034:	e9 ba f5 ff ff       	jmp    105f3 <__cpu_indicator_init+0x5f3>
   11039:	81 ce 00 00 40 00    	or     $0x400000,%esi
   1103f:	89 35 9b 49 14 00    	mov    %esi,0x14499b(%rip)        # 1559e0 <__cpu_features2>
   11045:	e9 9e f5 ff ff       	jmp    105e8 <__cpu_indicator_init+0x5e8>
   1104a:	83 ce 40             	or     $0x40,%esi
   1104d:	89 35 8d 49 14 00    	mov    %esi,0x14498d(%rip)        # 1559e0 <__cpu_features2>
   11053:	e9 ed f5 ff ff       	jmp    10645 <__cpu_indicator_init+0x645>
   11058:	83 0d 85 49 14 00 08 	orl    $0x8,0x144985(%rip)        # 1559e4 <__cpu_features2+0x4>
   1105f:	e9 33 f5 ff ff       	jmp    10597 <__cpu_indicator_init+0x597>
   11064:	8b 45 d4             	mov    -0x2c(%rbp),%eax
   11067:	44 09 e8             	or     %r13d,%eax
   1106a:	83 e8 01             	sub    $0x1,%eax
   1106d:	0f 85 e1 f6 ff ff    	jne    10754 <__cpu_indicator_init+0x754>
   11073:	83 7d cc 04          	cmpl   $0x4,-0x34(%rbp)
   11077:	0f 85 d7 f6 ff ff    	jne    10754 <__cpu_indicator_init+0x754>
   1107d:	48 8b 05 6c 0a 04 00 	mov    0x40a6c(%rip),%rax        # 51af0 <_IO_stdin_used+0xaf0>
   11084:	48 89 05 69 49 14 00 	mov    %rax,0x144969(%rip)        # 1559f4 <__cpu_model+0x4>
   1108b:	e9 c4 f6 ff ff       	jmp    10754 <__cpu_indicator_init+0x754>
   11090:	81 0d 4e 49 14 00 00 00 00 02 	orl    $0x2000000,0x14494e(%rip)        # 1559e8 <__cpu_features2+0x8>
   1109a:	e9 18 f4 ff ff       	jmp    104b7 <__cpu_indicator_init+0x4b7>
   1109f:	c7 05 4b 49 14 00 10 00 00 00 	movl   $0x10,0x14494b(%rip)        # 1559f4 <__cpu_model+0x4>
   110a9:	8b 45 d4             	mov    -0x2c(%rbp),%eax
   110ac:	44 09 e8             	or     %r13d,%eax
   110af:	83 f8 3b             	cmp    $0x3b,%eax
   110b2:	0f 84 63 01 00 00    	je     1121b <__cpu_indicator_init+0x121b>
   110b8:	83 f8 5b             	cmp    $0x5b,%eax
   110bb:	0f 84 f1 00 00 00    	je     111b2 <__cpu_indicator_init+0x11b2>
   110c1:	83 f8 6a             	cmp    $0x6a,%eax
   110c4:	0f 86 32 fa ff ff    	jbe    10afc <__cpu_indicator_init+0xafc>
   110ca:	c7 05 24 49 14 00 25 00 00 00 	movl   $0x25,0x144924(%rip)        # 1559f8 <__cpu_model+0x8>
   110d4:	e9 23 fa ff ff       	jmp    10afc <__cpu_indicator_init+0xafc>
   110d9:	81 0d 05 49 14 00 00 20 00 00 	orl    $0x2000,0x144905(%rip)        # 1559e8 <__cpu_features2+0x8>
   110e3:	e9 12 f4 ff ff       	jmp    104fa <__cpu_indicator_init+0x4fa>
   110e8:	83 0d f9 48 14 00 20 	orl    $0x20,0x1448f9(%rip)        # 1559e8 <__cpu_features2+0x8>
   110ef:	e9 ed f3 ff ff       	jmp    104e1 <__cpu_indicator_init+0x4e1>
   110f4:	83 0d ed 48 14 00 10 	orl    $0x10,0x1448ed(%rip)        # 1559e8 <__cpu_features2+0x8>
   110fb:	e9 d8 f3 ff ff       	jmp    104d8 <__cpu_indicator_init+0x4d8>
   11100:	83 0d e1 48 14 00 08 	orl    $0x8,0x1448e1(%rip)        # 1559e8 <__cpu_features2+0x8>
   11107:	e9 c3 f3 ff ff       	jmp    104cf <__cpu_indicator_init+0x4cf>
   1110c:	81 0d ce 48 14 00 00 00 00 20 	orl    $0x20000000,0x1448ce(%rip)        # 1559e4 <__cpu_features2+0x4>
   11116:	e9 a9 f3 ff ff       	jmp    104c4 <__cpu_indicator_init+0x4c4>
   1111b:	81 0d c3 48 14 00 00 10 00 00 	orl    $0x1000,0x1448c3(%rip)        # 1559e8 <__cpu_features2+0x8>
   11125:	e9 c8 f3 ff ff       	jmp    104f2 <__cpu_indicator_init+0x4f2>
   1112a:	81 0d b4 48 14 00 00 08 00 00 	orl    $0x800,0x1448b4(%rip)        # 1559e8 <__cpu_features2+0x8>
   11134:	e9 b1 f3 ff ff       	jmp    104ea <__cpu_indicator_init+0x4ea>
   11139:	83 ce 10             	or     $0x10,%esi
   1113c:	89 35 9e 48 14 00    	mov    %esi,0x14489e(%rip)        # 1559e0 <__cpu_features2>
   11142:	e9 ce f3 ff ff       	jmp    10515 <__cpu_indicator_init+0x515>
   11147:	81 0d 97 48 14 00 80 00 00 00 	orl    $0x80,0x144897(%rip)        # 1559e8 <__cpu_features2+0x8>
   11151:	e9 da f3 ff ff       	jmp    10530 <__cpu_indicator_init+0x530>
   11156:	b8 06 00 00 00       	mov    $0x6,%eax
   1115b:	e9 66 f5 ff ff       	jmp    106c6 <__cpu_indicator_init+0x6c6>
   11160:	81 f9 cc 00 00 00    	cmp    $0xcc,%ecx
   11166:	0f 84 bc 01 00 00    	je     11328 <__cpu_indicator_init+0x1328>
   1116c:	0f 87 8f 01 00 00    	ja     11301 <__cpu_indicator_init+0x1301>
   11172:	81 e9 b7 00 00 00    	sub    $0xb7,%ecx
   11178:	83 f9 0f             	cmp    $0xf,%ecx
   1117b:	0f 87 d3 f5 ff ff    	ja     10754 <__cpu_indicator_init+0x754>
   11181:	b8 01 00 00 00       	mov    $0x1,%eax
   11186:	48 d3 e0             	shl    %cl,%rax
   11189:	a9 89 01 00 00       	test   $0x189,%eax
   1118e:	0f 85 ee fa ff ff    	jne    10c82 <__cpu_indicator_init+0xc82>
   11194:	a9 40 80 00 00       	test   $0x8040,%eax
   11199:	0f 84 da fb ff ff    	je     10d79 <__cpu_indicator_init+0xd79>
   1119f:	48 8b 05 3a 09 04 00 	mov    0x4093a(%rip),%rax        # 51ae0 <_IO_stdin_used+0xae0>
   111a6:	48 89 05 47 48 14 00 	mov    %rax,0x144847(%rip)        # 1559f4 <__cpu_model+0x4>
   111ad:	e9 a2 f5 ff ff       	jmp    10754 <__cpu_indicator_init+0x754>
   111b2:	c7 05 3c 48 14 00 23 00 00 00 	movl   $0x23,0x14483c(%rip)        # 1559f8 <__cpu_model+0x8>
   111bc:	e9 3b f9 ff ff       	jmp    10afc <__cpu_indicator_init+0xafc>
   111c1:	81 0d 1d 48 14 00 00 00 00 04 	orl    $0x4000000,0x14481d(%rip)        # 1559e8 <__cpu_features2+0x8>
   111cb:	e9 27 f7 ff ff       	jmp    108f7 <__cpu_indicator_init+0x8f7>
   111d0:	81 0d 0e 48 14 00 00 00 00 01 	orl    $0x1000000,0x14480e(%rip)        # 1559e8 <__cpu_features2+0x8>
   111da:	e9 0f f7 ff ff       	jmp    108ee <__cpu_indicator_init+0x8ee>
   111df:	81 0d ff 47 14 00 00 00 80 00 	orl    $0x800000,0x1447ff(%rip)        # 1559e8 <__cpu_features2+0x8>
   111e9:	e9 f8 f6 ff ff       	jmp    108e6 <__cpu_indicator_init+0x8e6>
   111ee:	81 0d f0 47 14 00 00 00 40 00 	orl    $0x400000,0x1447f0(%rip)        # 1559e8 <__cpu_features2+0x8>
   111f8:	e9 e1 f6 ff ff       	jmp    108de <__cpu_indicator_init+0x8de>
   111fd:	81 0d e1 47 14 00 00 00 20 00 	orl    $0x200000,0x1447e1(%rip)        # 1559e8 <__cpu_features2+0x8>
   11207:	e9 ca f6 ff ff       	jmp    108d6 <__cpu_indicator_init+0x8d6>
   1120c:	c7 05 e2 47 14 00 08 00 00 00 	movl   $0x8,0x1447e2(%rip)        # 1559f8 <__cpu_model+0x8>
   11216:	e9 c5 f5 ff ff       	jmp    107e0 <__cpu_indicator_init+0x7e0>
   1121b:	81 25 d7 47 14 00 ff fd ff ff 	andl   $0xfffffdff,0x1447d7(%rip)        # 1559fc <__cpu_model+0xc>
   11225:	81 e6 ff ff fd ff    	and    $0xfffdffff,%esi
   1122b:	89 35 af 47 14 00    	mov    %esi,0x1447af(%rip)        # 1559e0 <__cpu_features2>
   11231:	c7 05 bd 47 14 00 1c 00 00 00 	movl   $0x1c,0x1447bd(%rip)        # 1559f8 <__cpu_model+0x8>
   1123b:	e9 bc f8 ff ff       	jmp    10afc <__cpu_indicator_init+0xafc>
   11240:	c7 05 ae 47 14 00 1d 00 00 00 	movl   $0x1d,0x1447ae(%rip)        # 1559f8 <__cpu_model+0x8>
   1124a:	e9 91 f5 ff ff       	jmp    107e0 <__cpu_indicator_init+0x7e0>
   1124f:	c7 05 9f 47 14 00 14 00 00 00 	movl   $0x14,0x14479f(%rip)        # 1559f8 <__cpu_model+0x8>
   11259:	e9 82 f5 ff ff       	jmp    107e0 <__cpu_indicator_init+0x7e0>
   1125e:	8d 41 f1             	lea    -0xf(%rcx),%eax
   11261:	83 f8 10             	cmp    $0x10,%eax
   11264:	0f 87 ea f4 ff ff    	ja     10754 <__cpu_indicator_init+0x754>
   1126a:	b8 01 00 00 00       	mov    $0x1,%eax
   1126f:	48 d3 e0             	shl    %cl,%rax
   11272:	a9 00 00 00 c4       	test   $0xc4000000,%eax
   11277:	0f 85 8b fb ff ff    	jne    10e08 <__cpu_indicator_init+0xe08>
   1127d:	a9 00 80 80 20       	test   $0x20808000,%eax
   11282:	0f 84 2f fb ff ff    	je     10db7 <__cpu_indicator_init+0xdb7>
   11288:	c7 05 62 47 14 00 02 00 00 00 	movl   $0x2,0x144762(%rip)        # 1559f4 <__cpu_model+0x4>
   11292:	e9 bd f4 ff ff       	jmp    10754 <__cpu_indicator_init+0x754>
   11297:	83 fa 2f             	cmp    $0x2f,%edx
   1129a:	0f 86 6c ff ff ff    	jbe    1120c <__cpu_indicator_init+0x120c>
   112a0:	83 fa 4f             	cmp    $0x4f,%edx
   112a3:	0f 86 92 00 00 00    	jbe    1133b <__cpu_indicator_init+0x133b>
   112a9:	83 fa 7f             	cmp    $0x7f,%edx
   112ac:	0f 86 b1 00 00 00    	jbe    11363 <__cpu_indicator_init+0x1363>
   112b2:	8b 05 44 47 14 00    	mov    0x144744(%rip),%eax        # 1559fc <__cpu_model+0xc>
   112b8:	f6 c4 04             	test   $0x4,%ah
   112bb:	0f 85 a2 00 00 00    	jne    11363 <__cpu_indicator_init+0x1363>
   112c1:	f6 05 1e 47 14 00 08 	testb  $0x8,0x14471e(%rip)        # 1559e6 <__cpu_features2+0x6>
   112c8:	75 71                	jne    1133b <__cpu_indicator_init+0x133b>
   112ca:	a9 00 00 01 00       	test   $0x10000,%eax
   112cf:	0f 85 37 ff ff ff    	jne    1120c <__cpu_indicator_init+0x120c>
   112d5:	f6 c4 20             	test   $0x20,%ah
   112d8:	0f 85 7b f8 ff ff    	jne    10b59 <__cpu_indicator_init+0xb59>
   112de:	e9 fd f4 ff ff       	jmp    107e0 <__cpu_indicator_init+0x7e0>
   112e3:	c7 05 0b 47 14 00 06 00 00 00 	movl   $0x6,0x14470b(%rip)        # 1559f8 <__cpu_model+0x8>
   112ed:	e9 ee f4 ff ff       	jmp    107e0 <__cpu_indicator_init+0x7e0>
   112f2:	c7 05 fc 46 14 00 05 00 00 00 	movl   $0x5,0x1446fc(%rip)        # 1559f8 <__cpu_model+0x8>
   112fc:	e9 df f4 ff ff       	jmp    107e0 <__cpu_indicator_init+0x7e0>
   11301:	81 f9 cf 00 00 00    	cmp    $0xcf,%ecx
   11307:	0f 84 e8 fa ff ff    	je     10df5 <__cpu_indicator_init+0xdf5>
   1130d:	81 f9 dd 00 00 00    	cmp    $0xdd,%ecx
   11313:	0f 85 3b f4 ff ff    	jne    10754 <__cpu_indicator_init+0x754>
   11319:	c7 05 d1 46 14 00 13 00 00 00 	movl   $0x13,0x1446d1(%rip)        # 1559f4 <__cpu_model+0x4>
   11323:	e9 2c f4 ff ff       	jmp    10754 <__cpu_indicator_init+0x754>
   11328:	48 8b 05 b9 07 04 00 	mov    0x407b9(%rip),%rax        # 51ae8 <_IO_stdin_used+0xae8>
   1132f:	48 89 05 be 46 14 00 	mov    %rax,0x1446be(%rip)        # 1559f4 <__cpu_model+0x4>
   11336:	e9 19 f4 ff ff       	jmp    10754 <__cpu_indicator_init+0x754>
   1133b:	c7 05 b3 46 14 00 09 00 00 00 	movl   $0x9,0x1446b3(%rip)        # 1559f8 <__cpu_model+0x8>
   11345:	e9 96 f4 ff ff       	jmp    107e0 <__cpu_indicator_init+0x7e0>
   1134a:	83 e6 04             	and    $0x4,%esi
   1134d:	83 fe 01             	cmp    $0x1,%esi
   11350:	19 c0                	sbb    %eax,%eax
   11352:	83 e0 fb             	and    $0xfffffffb,%eax
   11355:	83 c0 15             	add    $0x15,%eax
   11358:	89 05 9a 46 14 00    	mov    %eax,0x14469a(%rip)        # 1559f8 <__cpu_model+0x8>
   1135e:	e9 f1 f3 ff ff       	jmp    10754 <__cpu_indicator_init+0x754>
   11363:	c7 05 8b 46 14 00 0a 00 00 00 	movl   $0xa,0x14468b(%rip)        # 1559f8 <__cpu_model+0x8>
   1136d:	e9 6e f4 ff ff       	jmp    107e0 <__cpu_indicator_init+0x7e0>
   11372:	66 2e 0f 1f 84 00 00 00 00 00 	cs nopw 0x0(%rax,%rax,1)
   1137c:	0f 1f 40 00          	nopl   0x0(%rax)

0000000000011380 <_start>:
   11380:	f3 0f 1e fa          	endbr64
   11384:	31 ed                	xor    %ebp,%ebp
   11386:	49 89 d1             	mov    %rdx,%r9
   11389:	5e                   	pop    %rsi
   1138a:	48 89 e2             	mov    %rsp,%rdx
   1138d:	48 83 e4 f0          	and    $0xfffffffffffffff0,%rsp
   11391:	50                   	push   %rax
   11392:	54                   	push   %rsp
   11393:	45 31 c0             	xor    %r8d,%r8d
   11396:	31 c9                	xor    %ecx,%ecx
   11398:	48 8d 3d 31 0d 01 00 	lea    0x10d31(%rip),%rdi        # 220d0 <__wrap_main>
   1139f:	ff 15 1b 2c 04 00    	call   *0x42c1b(%rip)        # 53fc0 <__libc_start_main@GLIBC_2.34>
   113a5:	f4                   	hlt
   113a6:	66 2e 0f 1f 84 00 00 00 00 00 	cs nopw 0x0(%rax,%rax,1)
   113b0:	48 8d 3d 89 2d 04 00 	lea    0x42d89(%rip),%rdi        # 54140 <stdout@GLIBC_2.2.5>
   113b7:	48 8d 05 82 2d 04 00 	lea    0x42d82(%rip),%rax        # 54140 <stdout@GLIBC_2.2.5>
   113be:	48 39 f8             	cmp    %rdi,%rax
   113c1:	74 15                	je     113d8 <_start+0x58>
   113c3:	48 8b 05 fe 2b 04 00 	mov    0x42bfe(%rip),%rax        # 53fc8 <_ITM_deregisterTMCloneTable@Base>
   113ca:	48 85 c0             	test   %rax,%rax
   113cd:	74 09                	je     113d8 <_start+0x58>
   113cf:	ff e0                	jmp    *%rax
   113d1:	0f 1f 80 00 00 00 00 	nopl   0x0(%rax)
   113d8:	c3                   	ret
   113d9:	0f 1f 80 00 00 00 00 	nopl   0x0(%rax)
   113e0:	48 8d 3d 59 2d 04 00 	lea    0x42d59(%rip),%rdi        # 54140 <stdout@GLIBC_2.2.5>
   113e7:	48 8d 35 52 2d 04 00 	lea    0x42d52(%rip),%rsi        # 54140 <stdout@GLIBC_2.2.5>
   113ee:	48 29 fe             	sub    %rdi,%rsi
   113f1:	48 89 f0             	mov    %rsi,%rax
   113f4:	48 c1 ee 3f          	shr    $0x3f,%rsi
   113f8:	48 c1 f8 03          	sar    $0x3,%rax
   113fc:	48 01 c6             	add    %rax,%rsi
   113ff:	48 d1 fe             	sar    $1,%rsi
   11402:	74 14                	je     11418 <_start+0x98>
   11404:	48 8b 05 cd 2b 04 00 	mov    0x42bcd(%rip),%rax        # 53fd8 <_ITM_registerTMCloneTable@Base>
   1140b:	48 85 c0             	test   %rax,%rax
   1140e:	74 08                	je     11418 <_start+0x98>
   11410:	ff e0                	jmp    *%rax
   11412:	66 0f 1f 44 00 00    	nopw   0x0(%rax,%rax,1)
   11418:	c3                   	ret
   11419:	0f 1f 80 00 00 00 00 	nopl   0x0(%rax)
   11420:	f3 0f 1e fa          	endbr64
   11424:	80 3d 3d 2d 04 00 00 	cmpb   $0x0,0x42d3d(%rip)        # 54168 <stderr@GLIBC_2.2.5+0x8>
   1142b:	75 33                	jne    11460 <_start+0xe0>
   1142d:	55                   	push   %rbp
   1142e:	48 83 3d aa 2b 04 00 00 	cmpq   $0x0,0x42baa(%rip)        # 53fe0 <__cxa_finalize@GLIBC_2.2.5>
   11436:	48 89 e5             	mov    %rsp,%rbp
   11439:	74 0d                	je     11448 <_start+0xc8>
   1143b:	48 8b 3d de 2c 04 00 	mov    0x42cde(%rip),%rdi        # 54120 <__dso_handle>
   11442:	ff 15 98 2b 04 00    	call   *0x42b98(%rip)        # 53fe0 <__cxa_finalize@GLIBC_2.2.5>
   11448:	e8 63 ff ff ff       	call   113b0 <_start+0x30>
   1144d:	c6 05 14 2d 04 00 01 	movb   $0x1,0x42d14(%rip)        # 54168 <stderr@GLIBC_2.2.5+0x8>
   11454:	5d                   	pop    %rbp
   11455:	c3                   	ret
   11456:	66 2e 0f 1f 84 00 00 00 00 00 	cs nopw 0x0(%rax,%rax,1)
   11460:	c3                   	ret
   11461:	0f 1f 40 00          	nopl   0x0(%rax)
   11465:	66 66 2e 0f 1f 84 00 00 00 00 00 	data16 cs nopw 0x0(%rax,%rax,1)
   11470:	f3 0f 1e fa          	endbr64
   11474:	e9 67 ff ff ff       	jmp    113e0 <_start+0x60>

0000000000011479 <test_checkpoint>:
   11479:	55                   	push   %rbp
   1147a:	48 89 e5             	mov    %rsp,%rbp
   1147d:	48 83 ec 40          	sub    $0x40,%rsp
   11481:	48 89 7d c8          	mov    %rdi,-0x38(%rbp)
   11485:	48 89 75 c0          	mov    %rsi,-0x40(%rbp)
   11489:	e8 e2 fb fe ff       	call   1070 <clock@plt>
   1148e:	48 89 45 e0          	mov    %rax,-0x20(%rbp)
   11492:	eb 0f                	jmp    114a3 <test_checkpoint+0x2a>
   11494:	fa                   	cli
   11495:	90                   	nop
   11496:	90                   	nop
   11497:	90                   	nop
   11498:	90                   	nop
   11499:	fa                   	cli
   1149a:	90                   	nop
   1149b:	90                   	nop
   1149c:	90                   	nop
   1149d:	90                   	nop
   1149e:	fa                   	cli
   1149f:	90                   	nop
   114a0:	90                   	nop
   114a1:	90                   	nop
   114a2:	90                   	nop
   114a3:	eb 0f                	jmp    114b4 <test_checkpoint+0x3b>
   114a5:	fa                   	cli
   114a6:	90                   	nop
   114a7:	90                   	nop
   114a8:	90                   	nop
   114a9:	90                   	nop
   114aa:	fa                   	cli
   114ab:	90                   	nop
   114ac:	90                   	nop
   114ad:	90                   	nop
   114ae:	90                   	nop
   114af:	fa                   	cli
   114b0:	90                   	nop
   114b1:	90                   	nop
   114b2:	90                   	nop
   114b3:	90                   	nop
   114b4:	c7 45 d4 00 00 00 00 	movl   $0x0,-0x2c(%rbp)
   114bb:	eb 45                	jmp    11502 <test_checkpoint+0x89>
   114bd:	8b 45 d4             	mov    -0x2c(%rbp),%eax
   114c0:	48 63 c8             	movslq %eax,%rcx
   114c3:	48 ba 2b 00 88 01 00 0e 00 80 	movabs $0x80000e000188002b,%rdx
   114cd:	48 89 c8             	mov    %rcx,%rax
   114d0:	48 f7 e2             	mul    %rdx
   114d3:	48 89 d0             	mov    %rdx,%rax
   114d6:	48 c1 e8 15          	shr    $0x15,%rax
   114da:	48 69 d0 f9 ff 3f 00 	imul   $0x3ffff9,%rax,%rdx
   114e1:	48 89 c8             	mov    %rcx,%rax
   114e4:	48 29 d0             	sub    %rdx,%rax
   114e7:	89 45 dc             	mov    %eax,-0x24(%rbp)
   114ea:	8b 45 dc             	mov    -0x24(%rbp),%eax
   114ed:	48 63 d0             	movslq %eax,%rdx
   114f0:	48 8b 45 c8          	mov    -0x38(%rbp),%rax
   114f4:	48 01 c2             	add    %rax,%rdx
   114f7:	48 8b 45 c0          	mov    -0x40(%rbp),%rax
   114fb:	48 89 02             	mov    %rax,(%rdx)
   114fe:	83 45 d4 04          	addl   $0x4,-0x2c(%rbp)
   11502:	81 7d d4 df 93 04 00 	cmpl   $0x493df,-0x2c(%rbp)
   11509:	7e b2                	jle    114bd <test_checkpoint+0x44>
   1150b:	eb 0f                	jmp    1151c <test_checkpoint+0xa3>
   1150d:	fa                   	cli
   1150e:	90                   	nop
   1150f:	90                   	nop
   11510:	90                   	nop
   11511:	90                   	nop
   11512:	fa                   	cli
   11513:	90                   	nop
   11514:	90                   	nop
   11515:	90                   	nop
   11516:	90                   	nop
   11517:	fa                   	cli
   11518:	90                   	nop
   11519:	90                   	nop
   1151a:	90                   	nop
   1151b:	90                   	nop
   1151c:	c7 45 d8 00 00 00 00 	movl   $0x0,-0x28(%rbp)
   11523:	eb 45                	jmp    1156a <test_checkpoint+0xf1>
   11525:	8b 45 d8             	mov    -0x28(%rbp),%eax
   11528:	48 63 c8             	movslq %eax,%rcx
   1152b:	48 ba 2b 00 88 01 00 0e 00 80 	movabs $0x80000e000188002b,%rdx
   11535:	48 89 c8             	mov    %rcx,%rax
   11538:	48 f7 e2             	mul    %rdx
   1153b:	48 89 d0             	mov    %rdx,%rax
   1153e:	48 c1 e8 15          	shr    $0x15,%rax
   11542:	48 69 d0 f9 ff 3f 00 	imul   $0x3ffff9,%rax,%rdx
   11549:	48 89 c8             	mov    %rcx,%rax
   1154c:	48 29 d0             	sub    %rdx,%rax
   1154f:	89 45 dc             	mov    %eax,-0x24(%rbp)
   11552:	8b 45 dc             	mov    -0x24(%rbp),%eax
   11555:	48 63 d0             	movslq %eax,%rdx
   11558:	48 8b 45 c8          	mov    -0x38(%rbp),%rax
   1155c:	48 01 d0             	add    %rdx,%rax
   1155f:	48 8b 00             	mov    (%rax),%rax
   11562:	48 89 45 f8          	mov    %rax,-0x8(%rbp)
   11566:	83 45 d8 01          	addl   $0x1,-0x28(%rbp)
   1156a:	81 7d d8 5f ae 0a 00 	cmpl   $0xaae5f,-0x28(%rbp)
   11571:	7e b2                	jle    11525 <test_checkpoint+0xac>
   11573:	e8 f8 fa fe ff       	call   1070 <clock@plt>
   11578:	48 89 45 e8          	mov    %rax,-0x18(%rbp)
   1157c:	48 8b 45 e8          	mov    -0x18(%rbp),%rax
   11580:	48 2b 45 e0          	sub    -0x20(%rbp),%rax
   11584:	c4 e1 fb 2a c0       	vcvtsi2sd %rax,%xmm0,%xmm0
   11589:	c5 fb 10 0d ef fa 03 00 	vmovsd 0x3faef(%rip),%xmm1        # 51080 <_IO_stdin_used+0x80>
   11591:	c5 fb 5e c1          	vdivsd %xmm1,%xmm0,%xmm0
   11595:	c5 fb 11 45 f0       	vmovsd %xmm0,-0x10(%rbp)
   1159a:	c5 fb 5a 45 f0       	vcvtsd2ss -0x10(%rbp),%xmm0,%xmm0
   1159f:	c9                   	leave
   115a0:	c3                   	ret

00000000000115a1 <test_checkpoint_aligned>:
   115a1:	55                   	push   %rbp
   115a2:	48 89 e5             	mov    %rsp,%rbp
   115a5:	48 83 ec 40          	sub    $0x40,%rsp
   115a9:	48 89 7d c8          	mov    %rdi,-0x38(%rbp)
   115ad:	48 89 75 c0          	mov    %rsi,-0x40(%rbp)
   115b1:	e8 ba fa fe ff       	call   1070 <clock@plt>
   115b6:	48 89 45 e0          	mov    %rax,-0x20(%rbp)
   115ba:	eb 0f                	jmp    115cb <test_checkpoint_aligned+0x2a>
   115bc:	fa                   	cli
   115bd:	90                   	nop
   115be:	90                   	nop
   115bf:	90                   	nop
   115c0:	90                   	nop
   115c1:	fa                   	cli
   115c2:	90                   	nop
   115c3:	90                   	nop
   115c4:	90                   	nop
   115c5:	90                   	nop
   115c6:	fa                   	cli
   115c7:	90                   	nop
   115c8:	90                   	nop
   115c9:	90                   	nop
   115ca:	90                   	nop
   115cb:	eb 0f                	jmp    115dc <test_checkpoint_aligned+0x3b>
   115cd:	fa                   	cli
   115ce:	90                   	nop
   115cf:	90                   	nop
   115d0:	90                   	nop
   115d1:	90                   	nop
   115d2:	fa                   	cli
   115d3:	90                   	nop
   115d4:	90                   	nop
   115d5:	90                   	nop
   115d6:	90                   	nop
   115d7:	fa                   	cli
   115d8:	90                   	nop
   115d9:	90                   	nop
   115da:	90                   	nop
   115db:	90                   	nop
   115dc:	c7 45 d4 00 00 00 00 	movl   $0x0,-0x2c(%rbp)
   115e3:	eb 45                	jmp    1162a <test_checkpoint_aligned+0x89>
   115e5:	8b 45 d4             	mov    -0x2c(%rbp),%eax
   115e8:	48 63 c8             	movslq %eax,%rcx
   115eb:	48 ba 2b 00 88 01 00 0e 00 80 	movabs $0x80000e000188002b,%rdx
   115f5:	48 89 c8             	mov    %rcx,%rax
   115f8:	48 f7 e2             	mul    %rdx
   115fb:	48 89 d0             	mov    %rdx,%rax
   115fe:	48 c1 e8 15          	shr    $0x15,%rax
   11602:	48 69 d0 f9 ff 3f 00 	imul   $0x3ffff9,%rax,%rdx
   11609:	48 89 c8             	mov    %rcx,%rax
   1160c:	48 29 d0             	sub    %rdx,%rax
   1160f:	89 45 dc             	mov    %eax,-0x24(%rbp)
   11612:	8b 45 dc             	mov    -0x24(%rbp),%eax
   11615:	48 63 d0             	movslq %eax,%rdx
   11618:	48 8b 45 c8          	mov    -0x38(%rbp),%rax
   1161c:	48 01 c2             	add    %rax,%rdx
   1161f:	48 8b 45 c0          	mov    -0x40(%rbp),%rax
   11623:	48 89 02             	mov    %rax,(%rdx)
   11626:	83 45 d4 08          	addl   $0x8,-0x2c(%rbp)
   1162a:	81 7d d4 df 93 04 00 	cmpl   $0x493df,-0x2c(%rbp)
   11631:	7e b2                	jle    115e5 <test_checkpoint_aligned+0x44>
   11633:	eb 0f                	jmp    11644 <test_checkpoint_aligned+0xa3>
   11635:	fa                   	cli
   11636:	90                   	nop
   11637:	90                   	nop
   11638:	90                   	nop
   11639:	90                   	nop
   1163a:	fa                   	cli
   1163b:	90                   	nop
   1163c:	90                   	nop
   1163d:	90                   	nop
   1163e:	90                   	nop
   1163f:	fa                   	cli
   11640:	90                   	nop
   11641:	90                   	nop
   11642:	90                   	nop
   11643:	90                   	nop
   11644:	c7 45 d8 00 00 00 00 	movl   $0x0,-0x28(%rbp)
   1164b:	eb 45                	jmp    11692 <test_checkpoint_aligned+0xf1>
   1164d:	8b 45 d8             	mov    -0x28(%rbp),%eax
   11650:	48 63 c8             	movslq %eax,%rcx
   11653:	48 ba 2b 00 88 01 00 0e 00 80 	movabs $0x80000e000188002b,%rdx
   1165d:	48 89 c8             	mov    %rcx,%rax
   11660:	48 f7 e2             	mul    %rdx
   11663:	48 89 d0             	mov    %rdx,%rax
   11666:	48 c1 e8 15          	shr    $0x15,%rax
   1166a:	48 69 d0 f9 ff 3f 00 	imul   $0x3ffff9,%rax,%rdx
   11671:	48 89 c8             	mov    %rcx,%rax
   11674:	48 29 d0             	sub    %rdx,%rax
   11677:	89 45 dc             	mov    %eax,-0x24(%rbp)
   1167a:	8b 45 dc             	mov    -0x24(%rbp),%eax
   1167d:	48 63 d0             	movslq %eax,%rdx
   11680:	48 8b 45 c8          	mov    -0x38(%rbp),%rax
   11684:	48 01 d0             	add    %rdx,%rax
   11687:	48 8b 00             	mov    (%rax),%rax
   1168a:	48 89 45 f8          	mov    %rax,-0x8(%rbp)
   1168e:	83 45 d8 01          	addl   $0x1,-0x28(%rbp)
   11692:	81 7d d8 5f ae 0a 00 	cmpl   $0xaae5f,-0x28(%rbp)
   11699:	7e b2                	jle    1164d <test_checkpoint_aligned+0xac>
   1169b:	e8 d0 f9 fe ff       	call   1070 <clock@plt>
   116a0:	48 89 45 e8          	mov    %rax,-0x18(%rbp)
   116a4:	48 8b 45 e8          	mov    -0x18(%rbp),%rax
   116a8:	48 2b 45 e0          	sub    -0x20(%rbp),%rax
   116ac:	c4 e1 fb 2a c0       	vcvtsi2sd %rax,%xmm0,%xmm0
   116b1:	c5 fb 10 0d c7 f9 03 00 	vmovsd 0x3f9c7(%rip),%xmm1        # 51080 <_IO_stdin_used+0x80>
   116b9:	c5 fb 5e c1          	vdivsd %xmm1,%xmm0,%xmm0
   116bd:	c5 fb 11 45 f0       	vmovsd %xmm0,-0x10(%rbp)
   116c2:	c5 fb 5a 45 f0       	vcvtsd2ss -0x10(%rbp),%xmm0,%xmm0
   116c7:	c9                   	leave
   116c8:	c3                   	ret

00000000000116c9 <restore_area_test>:
   116c9:	55                   	push   %rbp
   116ca:	48 89 e5             	mov    %rsp,%rbp
   116cd:	48 83 e4 c0          	and    $0xffffffffffffffc0,%rsp
   116d1:	48 81 ec 80 01 00 00 	sub    $0x180,%rsp
   116d8:	48 89 7c 24 38       	mov    %rdi,0x38(%rsp)
   116dd:	48 8b 44 24 38       	mov    0x38(%rsp),%rax
   116e2:	48 05 00 00 80 00    	add    $0x800000,%rax
   116e8:	48 89 44 24 58       	mov    %rax,0x58(%rsp)
   116ed:	48 8b 44 24 38       	mov    0x38(%rsp),%rax
   116f2:	48 05 00 00 40 00    	add    $0x400000,%rax
   116f8:	48 89 44 24 60       	mov    %rax,0x60(%rsp)
   116fd:	48 8b 44 24 38       	mov    0x38(%rsp),%rax
   11702:	48 89 44 24 68       	mov    %rax,0x68(%rsp)
   11707:	e8 64 f9 fe ff       	call   1070 <clock@plt>
   1170c:	48 89 44 24 70       	mov    %rax,0x70(%rsp)
   11711:	eb 0f                	jmp    11722 <restore_area_test+0x59>
   11713:	fa                   	cli
   11714:	90                   	nop
   11715:	90                   	nop
   11716:	90                   	nop
   11717:	90                   	nop
   11718:	fa                   	cli
   11719:	90                   	nop
   1171a:	90                   	nop
   1171b:	90                   	nop
   1171c:	90                   	nop
   1171d:	fa                   	cli
   1171e:	90                   	nop
   1171f:	90                   	nop
   11720:	90                   	nop
   11721:	90                   	nop
   11722:	eb 0f                	jmp    11733 <restore_area_test+0x6a>
   11724:	fa                   	cli
   11725:	90                   	nop
   11726:	90                   	nop
   11727:	90                   	nop
   11728:	90                   	nop
   11729:	fa                   	cli
   1172a:	90                   	nop
   1172b:	90                   	nop
   1172c:	90                   	nop
   1172d:	90                   	nop
   1172e:	fa                   	cli
   1172f:	90                   	nop
   11730:	90                   	nop
   11731:	90                   	nop
   11732:	90                   	nop
   11733:	c7 44 24 48 00 00 00 00 	movl   $0x0,0x48(%rsp)
   1173b:	e9 ed 01 00 00       	jmp    1192d <restore_area_test+0x264>
   11740:	8b 44 24 48          	mov    0x48(%rsp),%eax
   11744:	48 63 d0             	movslq %eax,%rdx
   11747:	48 8b 44 24 58       	mov    0x58(%rsp),%rax
   1174c:	48 01 d0             	add    %rdx,%rax
   1174f:	48 89 84 24 88 00 00 00 	mov    %rax,0x88(%rsp)
   11757:	48 8b 84 24 88 00 00 00 	mov    0x88(%rsp),%rax
   1175f:	c5 fe 6f 00          	vmovdqu (%rax),%ymm0
   11763:	c5 fd 7f 84 24 a0 00 00 00 	vmovdqa %ymm0,0xa0(%rsp)
   1176c:	eb 0f                	jmp    1177d <restore_area_test+0xb4>
   1176e:	fa                   	cli
   1176f:	90                   	nop
   11770:	90                   	nop
   11771:	90                   	nop
   11772:	90                   	nop
   11773:	fa                   	cli
   11774:	90                   	nop
   11775:	90                   	nop
   11776:	90                   	nop
   11777:	90                   	nop
   11778:	fa                   	cli
   11779:	90                   	nop
   1177a:	90                   	nop
   1177b:	90                   	nop
   1177c:	90                   	nop
   1177d:	c5 fd 6f 84 24 a0 00 00 00 	vmovdqa 0xa0(%rsp),%ymm0
   11786:	c5 fd 7f 84 24 c0 00 00 00 	vmovdqa %ymm0,0xc0(%rsp)
   1178f:	c5 fd 6f 84 24 a0 00 00 00 	vmovdqa 0xa0(%rsp),%ymm0
   11798:	c5 fd 7f 84 24 e0 00 00 00 	vmovdqa %ymm0,0xe0(%rsp)
   117a1:	b8 00 00 00 00       	mov    $0x0,%eax
   117a6:	c5 fd 6f 84 24 c0 00 00 00 	vmovdqa 0xc0(%rsp),%ymm0
   117af:	c4 e2 7d 17 84 24 e0 00 00 00 	vptest 0xe0(%rsp),%ymm0
   117b9:	0f 94 c0             	sete   %al
   117bc:	85 c0                	test   %eax,%eax
   117be:	0f 85 63 01 00 00    	jne    11927 <restore_area_test+0x25e>
   117c4:	eb 0f                	jmp    117d5 <restore_area_test+0x10c>
   117c6:	fa                   	cli
   117c7:	90                   	nop
   117c8:	90                   	nop
   117c9:	90                   	nop
   117ca:	90                   	nop
   117cb:	fa                   	cli
   117cc:	90                   	nop
   117cd:	90                   	nop
   117ce:	90                   	nop
   117cf:	90                   	nop
   117d0:	fa                   	cli
   117d1:	90                   	nop
   117d2:	90                   	nop
   117d3:	90                   	nop
   117d4:	90                   	nop
   117d5:	eb 0f                	jmp    117e6 <restore_area_test+0x11d>
   117d7:	fa                   	cli
   117d8:	90                   	nop
   117d9:	90                   	nop
   117da:	90                   	nop
   117db:	90                   	nop
   117dc:	fa                   	cli
   117dd:	90                   	nop
   117de:	90                   	nop
   117df:	90                   	nop
   117e0:	90                   	nop
   117e1:	fa                   	cli
   117e2:	90                   	nop
   117e3:	90                   	nop
   117e4:	90                   	nop
   117e5:	90                   	nop
   117e6:	c7 44 24 4c 00 00 00 00 	movl   $0x0,0x4c(%rsp)
   117ee:	e9 27 01 00 00       	jmp    1191a <restore_area_test+0x251>
   117f3:	8b 44 24 48          	mov    0x48(%rsp),%eax
   117f7:	48 63 d0             	movslq %eax,%rdx
   117fa:	8b 44 24 4c          	mov    0x4c(%rsp),%eax
   117fe:	48 98                	cltq
   11800:	48 01 c2             	add    %rax,%rdx
   11803:	48 8b 44 24 58       	mov    0x58(%rsp),%rax
   11808:	48 01 d0             	add    %rdx,%rax
   1180b:	0f b7 00             	movzwl (%rax),%eax
   1180e:	66 89 44 24 46       	mov    %ax,0x46(%rsp)
   11813:	eb 0f                	jmp    11824 <restore_area_test+0x15b>
   11815:	fa                   	cli
   11816:	90                   	nop
   11817:	90                   	nop
   11818:	90                   	nop
   11819:	90                   	nop
   1181a:	fa                   	cli
   1181b:	90                   	nop
   1181c:	90                   	nop
   1181d:	90                   	nop
   1181e:	90                   	nop
   1181f:	fa                   	cli
   11820:	90                   	nop
   11821:	90                   	nop
   11822:	90                   	nop
   11823:	90                   	nop
   11824:	66 83 7c 24 46 00    	cmpw   $0x0,0x46(%rsp)
   1182a:	0f 84 e4 00 00 00    	je     11914 <restore_area_test+0x24b>
   11830:	eb 0f                	jmp    11841 <restore_area_test+0x178>
   11832:	fa                   	cli
   11833:	90                   	nop
   11834:	90                   	nop
   11835:	90                   	nop
   11836:	90                   	nop
   11837:	fa                   	cli
   11838:	90                   	nop
   11839:	90                   	nop
   1183a:	90                   	nop
   1183b:	90                   	nop
   1183c:	fa                   	cli
   1183d:	90                   	nop
   1183e:	90                   	nop
   1183f:	90                   	nop
   11840:	90                   	nop
   11841:	c7 44 24 50 00 00 00 00 	movl   $0x0,0x50(%rsp)
   11849:	e9 b9 00 00 00       	jmp    11907 <restore_area_test+0x23e>
   1184e:	eb 0f                	jmp    1185f <restore_area_test+0x196>
   11850:	fa                   	cli
   11851:	90                   	nop
   11852:	90                   	nop
   11853:	90                   	nop
   11854:	90                   	nop
   11855:	fa                   	cli
   11856:	90                   	nop
   11857:	90                   	nop
   11858:	90                   	nop
   11859:	90                   	nop
   1185a:	fa                   	cli
   1185b:	90                   	nop
   1185c:	90                   	nop
   1185d:	90                   	nop
   1185e:	90                   	nop
   1185f:	0f b7 54 24 46       	movzwl 0x46(%rsp),%edx
   11864:	8b 44 24 50          	mov    0x50(%rsp),%eax
   11868:	89 c1                	mov    %eax,%ecx
   1186a:	d3 fa                	sar    %cl,%edx
   1186c:	89 d0                	mov    %edx,%eax
   1186e:	83 e0 01             	and    $0x1,%eax
   11871:	85 c0                	test   %eax,%eax
   11873:	0f 84 89 00 00 00    	je     11902 <restore_area_test+0x239>
   11879:	8b 54 24 48          	mov    0x48(%rsp),%edx
   1187d:	8b 44 24 4c          	mov    0x4c(%rsp),%eax
   11881:	01 d0                	add    %edx,%eax
   11883:	8d 14 c5 00 00 00 00 	lea    0x0(,%rax,8),%edx
   1188a:	8b 44 24 50          	mov    0x50(%rsp),%eax
   1188e:	01 d0                	add    %edx,%eax
   11890:	c1 e0 06             	shl    $0x6,%eax
   11893:	89 44 24 54          	mov    %eax,0x54(%rsp)
   11897:	8b 44 24 54          	mov    0x54(%rsp),%eax
   1189b:	48 63 d0             	movslq %eax,%rdx
   1189e:	48 8b 44 24 60       	mov    0x60(%rsp),%rax
   118a3:	48 01 d0             	add    %rdx,%rax
   118a6:	48 89 84 24 98 00 00 00 	mov    %rax,0x98(%rsp)
   118ae:	48 8b 84 24 98 00 00 00 	mov    0x98(%rsp),%rax
   118b6:	62 f1 fd 48 6f 00    	vmovdqa64 (%rax),%zmm0
   118bc:	62 f1 fd 48 7f 44 24 04 	vmovdqa64 %zmm0,0x100(%rsp)
   118c4:	8b 44 24 54          	mov    0x54(%rsp),%eax
   118c8:	48 63 d0             	movslq %eax,%rdx
   118cb:	48 8b 44 24 68       	mov    0x68(%rsp),%rax
   118d0:	48 01 d0             	add    %rdx,%rax
   118d3:	48 89 84 24 90 00 00 00 	mov    %rax,0x90(%rsp)
   118db:	62 f1 fd 48 6f 44 24 04 	vmovdqa64 0x100(%rsp),%zmm0
   118e3:	62 f1 fd 48 7f 44 24 05 	vmovdqa64 %zmm0,0x140(%rsp)
   118eb:	62 f1 fd 48 6f 44 24 05 	vmovdqa64 0x140(%rsp),%zmm0
   118f3:	48 8b 84 24 90 00 00 00 	mov    0x90(%rsp),%rax
   118fb:	62 f1 fe 48 7f 00    	vmovdqu64 %zmm0,(%rax)
   11901:	90                   	nop
   11902:	83 44 24 50 01       	addl   $0x1,0x50(%rsp)
   11907:	83 7c 24 50 0f       	cmpl   $0xf,0x50(%rsp)
   1190c:	0f 8e 3c ff ff ff    	jle    1184e <restore_area_test+0x185>
   11912:	eb 01                	jmp    11915 <restore_area_test+0x24c>
   11914:	90                   	nop
   11915:	83 44 24 4c 02       	addl   $0x2,0x4c(%rsp)
   1191a:	83 7c 24 4c 1f       	cmpl   $0x1f,0x4c(%rsp)
   1191f:	0f 8e ce fe ff ff    	jle    117f3 <restore_area_test+0x12a>
   11925:	eb 01                	jmp    11928 <restore_area_test+0x25f>
   11927:	90                   	nop
   11928:	83 44 24 48 20       	addl   $0x20,0x48(%rsp)
   1192d:	8b 44 24 48          	mov    0x48(%rsp),%eax
   11931:	3d ff ff 00 00       	cmp    $0xffff,%eax
   11936:	0f 86 04 fe ff ff    	jbe    11740 <restore_area_test+0x77>
   1193c:	48 8b 44 24 58       	mov    0x58(%rsp),%rax
   11941:	ba 00 00 01 00       	mov    $0x10000,%edx
   11946:	be 00 00 00 00       	mov    $0x0,%esi
   1194b:	48 89 c7             	mov    %rax,%rdi
   1194e:	e8 ad f7 fe ff       	call   1100 <memset@plt>
   11953:	e8 18 f7 fe ff       	call   1070 <clock@plt>
   11958:	48 89 44 24 78       	mov    %rax,0x78(%rsp)
   1195d:	48 8b 44 24 78       	mov    0x78(%rsp),%rax
   11962:	48 2b 44 24 70       	sub    0x70(%rsp),%rax
   11967:	c4 e1 fb 2a c0       	vcvtsi2sd %rax,%xmm0,%xmm0
   1196c:	c5 fb 10 0d 0c f7 03 00 	vmovsd 0x3f70c(%rip),%xmm1        # 51080 <_IO_stdin_used+0x80>
   11974:	c5 fb 5e c1          	vdivsd %xmm1,%xmm0,%xmm0
   11978:	c5 fb 11 84 24 80 00 00 00 	vmovsd %xmm0,0x80(%rsp)
   11981:	c5 fb 10 84 24 80 00 00 00 	vmovsd 0x80(%rsp),%xmm0
   1198a:	c9                   	leave
   1198b:	c3                   	ret

000000000001198c <clean_cache>:
   1198c:	55                   	push   %rbp
   1198d:	48 89 e5             	mov    %rsp,%rbp
   11990:	48 89 7d e8          	mov    %rdi,-0x18(%rbp)
   11994:	48 8d 05 55 40 14 00 	lea    0x144055(%rip),%rax        # 1559f0 <__cpu_model>
   1199b:	8b 40 0c             	mov    0xc(%rax),%eax
   1199e:	83 e0 10             	and    $0x10,%eax
   119a1:	85 c0                	test   %eax,%eax
   119a3:	74 09                	je     119ae <clean_cache+0x22>
   119a5:	c7 45 f0 40 00 00 00 	movl   $0x40,-0x10(%rbp)
   119ac:	eb 07                	jmp    119b5 <clean_cache+0x29>
   119ae:	c7 45 f0 20 00 00 00 	movl   $0x20,-0x10(%rbp)
   119b5:	eb 0f                	jmp    119c6 <clean_cache+0x3a>
   119b7:	fa                   	cli
   119b8:	90                   	nop
   119b9:	90                   	nop
   119ba:	90                   	nop
   119bb:	90                   	nop
   119bc:	fa                   	cli
   119bd:	90                   	nop
   119be:	90                   	nop
   119bf:	90                   	nop
   119c0:	90                   	nop
   119c1:	fa                   	cli
   119c2:	90                   	nop
   119c3:	90                   	nop
   119c4:	90                   	nop
   119c5:	90                   	nop
   119c6:	eb 0f                	jmp    119d7 <clean_cache+0x4b>
   119c8:	fa                   	cli
   119c9:	90                   	nop
   119ca:	90                   	nop
   119cb:	90                   	nop
   119cc:	90                   	nop
   119cd:	fa                   	cli
   119ce:	90                   	nop
   119cf:	90                   	nop
   119d0:	90                   	nop
   119d1:	90                   	nop
   119d2:	fa                   	cli
   119d3:	90                   	nop
   119d4:	90                   	nop
   119d5:	90                   	nop
   119d6:	90                   	nop
   119d7:	c7 45 f4 00 00 00 00 	movl   $0x0,-0xc(%rbp)
   119de:	eb 2a                	jmp    11a0a <clean_cache+0x7e>
   119e0:	8b 45 f4             	mov    -0xc(%rbp),%eax
   119e3:	48 63 d0             	movslq %eax,%rdx
   119e6:	48 8b 45 e8          	mov    -0x18(%rbp),%rax
   119ea:	48 01 d0             	add    %rdx,%rax
   119ed:	48 89 45 f8          	mov    %rax,-0x8(%rbp)
   119f1:	48 8b 45 f8          	mov    -0x8(%rbp),%rax
   119f5:	0f ae 38             	clflush (%rax)
   119f8:	90                   	nop
   119f9:	8b 45 f0             	mov    -0x10(%rbp),%eax
   119fc:	8d 50 07             	lea    0x7(%rax),%edx
   119ff:	85 c0                	test   %eax,%eax
   11a01:	0f 48 c2             	cmovs  %edx,%eax
   11a04:	c1 f8 03             	sar    $0x3,%eax
   11a07:	01 45 f4             	add    %eax,-0xc(%rbp)
   11a0a:	8b 45 f4             	mov    -0xc(%rbp),%eax
   11a0d:	3d ff ff 80 00       	cmp    $0x80ffff,%eax
   11a12:	76 cc                	jbe    119e0 <clean_cache+0x54>
   11a14:	90                   	nop
   11a15:	90                   	nop
   11a16:	5d                   	pop    %rbp
   11a17:	c3                   	ret

0000000000011a18 <main>:
   11a18:	55                   	push   %rbp
   11a19:	48 89 e5             	mov    %rsp,%rbp
   11a1c:	48 81 ec 60 04 00 00 	sub    $0x460,%rsp
   11a23:	89 bd ac fb ff ff    	mov    %edi,-0x454(%rbp)
   11a29:	48 89 b5 a0 fb ff ff 	mov    %rsi,-0x460(%rbp)
   11a30:	64 48 8b 04 25 28 00 00 00 	mov    %fs:0x28,%rax
   11a39:	48 89 45 f8          	mov    %rax,-0x8(%rbp)
   11a3d:	31 c0                	xor    %eax,%eax
   11a3f:	c5 f9 57 c0          	vxorpd %xmm0,%xmm0,%xmm0
   11a43:	c5 fb 11 85 b8 fb ff ff 	vmovsd %xmm0,-0x448(%rbp)
   11a4b:	c5 f9 57 c0          	vxorpd %xmm0,%xmm0,%xmm0
   11a4f:	c5 fb 11 85 c0 fb ff ff 	vmovsd %xmm0,-0x440(%rbp)
   11a57:	e8 e4 e6 00 00       	call   20140 <tls_setup>
   11a5c:	48 89 85 c8 fb ff ff 	mov    %rax,-0x438(%rbp)
   11a63:	eb 0f                	jmp    11a74 <main+0x5c>
   11a65:	fa                   	cli
   11a66:	90                   	nop
   11a67:	90                   	nop
   11a68:	90                   	nop
   11a69:	90                   	nop
   11a6a:	fa                   	cli
   11a6b:	90                   	nop
   11a6c:	90                   	nop
   11a6d:	90                   	nop
   11a6e:	90                   	nop
   11a6f:	fa                   	cli
   11a70:	90                   	nop
   11a71:	90                   	nop
   11a72:	90                   	nop
   11a73:	90                   	nop
   11a74:	48 83 bd c8 fb ff ff 00 	cmpq   $0x0,-0x438(%rbp)
   11a7c:	75 3b                	jne    11ab9 <main+0xa1>
   11a7e:	eb 0f                	jmp    11a8f <main+0x77>
   11a80:	fa                   	cli
   11a81:	90                   	nop
   11a82:	90                   	nop
   11a83:	90                   	nop
   11a84:	90                   	nop
   11a85:	fa                   	cli
   11a86:	90                   	nop
   11a87:	90                   	nop
   11a88:	90                   	nop
   11a89:	90                   	nop
   11a8a:	fa                   	cli
   11a8b:	90                   	nop
   11a8c:	90                   	nop
   11a8d:	90                   	nop
   11a8e:	90                   	nop
   11a8f:	48 8b 05 ca 26 04 00 	mov    0x426ca(%rip),%rax        # 54160 <stderr@GLIBC_2.2.5>
   11a96:	48 8d 3d 6b f5 03 00 	lea    0x3f56b(%rip),%rdi        # 51008 <_IO_stdin_used+0x8>
   11a9d:	48 89 c1             	mov    %rax,%rcx
   11aa0:	ba 11 00 00 00       	mov    $0x11,%edx
   11aa5:	be 01 00 00 00       	mov    $0x1,%esi
   11aaa:	e8 71 f7 fe ff       	call   1220 <fwrite@plt>
   11aaf:	b8 01 00 00 00       	mov    $0x1,%eax
   11ab4:	e9 bd 02 00 00       	jmp    11d76 <main+0x35e>
   11ab9:	bf 2a 00 00 00       	mov    $0x2a,%edi
   11abe:	e8 7d f6 fe ff       	call   1140 <srand@plt>
   11ac3:	e8 88 f7 fe ff       	call   1250 <rand@plt>
   11ac8:	48 63 d0             	movslq %eax,%rdx
   11acb:	48 83 fa ff          	cmp    $0xffffffffffffffff,%rdx
   11acf:	0f 93 c0             	setae  %al
   11ad2:	0f b6 c0             	movzbl %al,%eax
   11ad5:	48 f7 d8             	neg    %rax
   11ad8:	48 89 c1             	mov    %rax,%rcx
   11adb:	48 89 d0             	mov    %rdx,%rax
   11ade:	48 29 c8             	sub    %rcx,%rax
   11ae1:	48 83 c0 01          	add    $0x1,%rax
   11ae5:	48 89 85 d0 fb ff ff 	mov    %rax,-0x430(%rbp)
   11aec:	48 b8 00 00 00 00 08 00 00 00 	movabs $0x800000000,%rax
   11af6:	48 89 85 d8 fb ff ff 	mov    %rax,-0x428(%rbp)
   11afd:	48 8b 85 d8 fb ff ff 	mov    -0x428(%rbp),%rax
   11b04:	be 00 00 81 00       	mov    $0x810000,%esi
   11b09:	48 89 c7             	mov    %rax,%rdi
   11b0c:	e8 1f f7 fe ff       	call   1230 <aligned_alloc@plt>
   11b11:	48 89 85 e0 fb ff ff 	mov    %rax,-0x420(%rbp)
   11b18:	eb 0f                	jmp    11b29 <main+0x111>
   11b1a:	fa                   	cli
   11b1b:	90                   	nop
   11b1c:	90                   	nop
   11b1d:	90                   	nop
   11b1e:	90                   	nop
   11b1f:	fa                   	cli
   11b20:	90                   	nop
   11b21:	90                   	nop
   11b22:	90                   	nop
   11b23:	90                   	nop
   11b24:	fa                   	cli
   11b25:	90                   	nop
   11b26:	90                   	nop
   11b27:	90                   	nop
   11b28:	90                   	nop
   11b29:	48 83 bd e0 fb ff ff 00 	cmpq   $0x0,-0x420(%rbp)
   11b31:	75 19                	jne    11b4c <main+0x134>
   11b33:	48 8d 05 e0 f4 03 00 	lea    0x3f4e0(%rip),%rax        # 5101a <_IO_stdin_used+0x1a>
   11b3a:	48 89 c7             	mov    %rax,%rdi
   11b3d:	e8 9e f6 fe ff       	call   11e0 <perror@plt>
   11b42:	b8 01 00 00 00       	mov    $0x1,%eax
   11b47:	e9 2a 02 00 00       	jmp    11d76 <main+0x35e>
   11b4c:	48 8b 85 e0 fb ff ff 	mov    -0x420(%rbp),%rax
   11b53:	ba 00 00 81 00       	mov    $0x810000,%edx
   11b58:	be 00 00 00 00       	mov    $0x0,%esi
   11b5d:	48 89 c7             	mov    %rax,%rdi
   11b60:	e8 9b f5 fe ff       	call   1100 <memset@plt>
   11b65:	48 8b 85 e0 fb ff ff 	mov    -0x420(%rbp),%rax
   11b6c:	48 89 c7             	mov    %rax,%rdi
   11b6f:	e8 18 fe ff ff       	call   1198c <clean_cache>
   11b74:	eb 0f                	jmp    11b85 <main+0x16d>
   11b76:	fa                   	cli
   11b77:	90                   	nop
   11b78:	90                   	nop
   11b79:	90                   	nop
   11b7a:	90                   	nop
   11b7b:	fa                   	cli
   11b7c:	90                   	nop
   11b7d:	90                   	nop
   11b7e:	90                   	nop
   11b7f:	90                   	nop
   11b80:	fa                   	cli
   11b81:	90                   	nop
   11b82:	90                   	nop
   11b83:	90                   	nop
   11b84:	90                   	nop
   11b85:	c7 85 b4 fb ff ff 00 00 00 00 	movl   $0x0,-0x44c(%rbp)
   11b8f:	e9 9b 00 00 00       	jmp    11c2f <main+0x217>
   11b94:	48 8b 85 e0 fb ff ff 	mov    -0x420(%rbp),%rax
   11b9b:	48 89 c7             	mov    %rax,%rdi
   11b9e:	e8 e9 fd ff ff       	call   1198c <clean_cache>
   11ba3:	eb 0f                	jmp    11bb4 <main+0x19c>
   11ba5:	fa                   	cli
   11ba6:	90                   	nop
   11ba7:	90                   	nop
   11ba8:	90                   	nop
   11ba9:	90                   	nop
   11baa:	fa                   	cli
   11bab:	90                   	nop
   11bac:	90                   	nop
   11bad:	90                   	nop
   11bae:	90                   	nop
   11baf:	fa                   	cli
   11bb0:	90                   	nop
   11bb1:	90                   	nop
   11bb2:	90                   	nop
   11bb3:	90                   	nop
   11bb4:	48 8b 95 d0 fb ff ff 	mov    -0x430(%rbp),%rdx
   11bbb:	48 8b 85 e0 fb ff ff 	mov    -0x420(%rbp),%rax
   11bc2:	48 89 d6             	mov    %rdx,%rsi
   11bc5:	48 89 c7             	mov    %rax,%rdi
   11bc8:	e8 ac f8 ff ff       	call   11479 <test_checkpoint>
   11bcd:	c5 fa 5a c0          	vcvtss2sd %xmm0,%xmm0,%xmm0
   11bd1:	c5 fb 10 8d b8 fb ff ff 	vmovsd -0x448(%rbp),%xmm1
   11bd9:	c5 f3 58 c0          	vaddsd %xmm0,%xmm1,%xmm0
   11bdd:	c5 fb 11 85 b8 fb ff ff 	vmovsd %xmm0,-0x448(%rbp)
   11be5:	48 8b 85 e0 fb ff ff 	mov    -0x420(%rbp),%rax
   11bec:	48 89 c7             	mov    %rax,%rdi
   11bef:	e8 98 fd ff ff       	call   1198c <clean_cache>
   11bf4:	eb 0f                	jmp    11c05 <main+0x1ed>
   11bf6:	fa                   	cli
   11bf7:	90                   	nop
   11bf8:	90                   	nop
   11bf9:	90                   	nop
   11bfa:	90                   	nop
   11bfb:	fa                   	cli
   11bfc:	90                   	nop
   11bfd:	90                   	nop
   11bfe:	90                   	nop
   11bff:	90                   	nop
   11c00:	fa                   	cli
   11c01:	90                   	nop
   11c02:	90                   	nop
   11c03:	90                   	nop
   11c04:	90                   	nop
   11c05:	48 8b 85 e0 fb ff ff 	mov    -0x420(%rbp),%rax
   11c0c:	48 89 c7             	mov    %rax,%rdi
   11c0f:	e8 b5 fa ff ff       	call   116c9 <restore_area_test>
   11c14:	c5 fb 10 8d c0 fb ff ff 	vmovsd -0x440(%rbp),%xmm1
   11c1c:	c5 f3 58 c0          	vaddsd %xmm0,%xmm1,%xmm0
   11c20:	c5 fb 11 85 c0 fb ff ff 	vmovsd %xmm0,-0x440(%rbp)
   11c28:	83 85 b4 fb ff ff 01 	addl   $0x1,-0x44c(%rbp)
   11c2f:	83 bd b4 fb ff ff 7f 	cmpl   $0x7f,-0x44c(%rbp)
   11c36:	0f 8e 58 ff ff ff    	jle    11b94 <main+0x17c>
   11c3c:	48 8d 15 ed f3 03 00 	lea    0x3f3ed(%rip),%rdx        # 51030 <_IO_stdin_used+0x30>
   11c43:	48 8d 05 e8 f3 03 00 	lea    0x3f3e8(%rip),%rax        # 51032 <_IO_stdin_used+0x32>
   11c4a:	48 89 d6             	mov    %rdx,%rsi
   11c4d:	48 89 c7             	mov    %rax,%rdi
   11c50:	e8 7b f5 fe ff       	call   11d0 <fopen@plt>
   11c55:	48 89 85 e8 fb ff ff 	mov    %rax,-0x418(%rbp)
   11c5c:	eb 0f                	jmp    11c6d <main+0x255>
   11c5e:	fa                   	cli
   11c5f:	90                   	nop
   11c60:	90                   	nop
   11c61:	90                   	nop
   11c62:	90                   	nop
   11c63:	fa                   	cli
   11c64:	90                   	nop
   11c65:	90                   	nop
   11c66:	90                   	nop
   11c67:	90                   	nop
   11c68:	fa                   	cli
   11c69:	90                   	nop
   11c6a:	90                   	nop
   11c6b:	90                   	nop
   11c6c:	90                   	nop
   11c6d:	48 83 bd e8 fb ff ff 00 	cmpq   $0x0,-0x418(%rbp)
   11c75:	75 3b                	jne    11cb2 <main+0x29a>
   11c77:	eb 0f                	jmp    11c88 <main+0x270>
   11c79:	fa                   	cli
   11c7a:	90                   	nop
   11c7b:	90                   	nop
   11c7c:	90                   	nop
   11c7d:	90                   	nop
   11c7e:	fa                   	cli
   11c7f:	90                   	nop
   11c80:	90                   	nop
   11c81:	90                   	nop
   11c82:	90                   	nop
   11c83:	fa                   	cli
   11c84:	90                   	nop
   11c85:	90                   	nop
   11c86:	90                   	nop
   11c87:	90                   	nop
   11c88:	48 8b 05 d1 24 04 00 	mov    0x424d1(%rip),%rax        # 54160 <stderr@GLIBC_2.2.5>
   11c8f:	48 8d 3d b2 f3 03 00 	lea    0x3f3b2(%rip),%rdi        # 51048 <_IO_stdin_used+0x48>
   11c96:	48 89 c1             	mov    %rax,%rcx
   11c99:	ba 14 00 00 00       	mov    $0x14,%edx
   11c9e:	be 01 00 00 00       	mov    $0x1,%esi
   11ca3:	e8 78 f5 fe ff       	call   1220 <fwrite@plt>
   11ca8:	b8 01 00 00 00       	mov    $0x1,%eax
   11cad:	e9 c4 00 00 00       	jmp    11d76 <main+0x35e>
   11cb2:	eb 0f                	jmp    11cc3 <main+0x2ab>
   11cb4:	fa                   	cli
   11cb5:	90                   	nop
   11cb6:	90                   	nop
   11cb7:	90                   	nop
   11cb8:	90                   	nop
   11cb9:	fa                   	cli
   11cba:	90                   	nop
   11cbb:	90                   	nop
   11cbc:	90                   	nop
   11cbd:	90                   	nop
   11cbe:	fa                   	cli
   11cbf:	90                   	nop
   11cc0:	90                   	nop
   11cc1:	90                   	nop
   11cc2:	90                   	nop
   11cc3:	c5 fb 10 85 c0 fb ff ff 	vmovsd -0x440(%rbp),%xmm0
   11ccb:	c5 fb 10 0d b5 f3 03 00 	vmovsd 0x3f3b5(%rip),%xmm1        # 51088 <_IO_stdin_used+0x88>
   11cd3:	c5 fb 5e d1          	vdivsd %xmm1,%xmm0,%xmm2
   11cd7:	c5 fb 10 85 b8 fb ff ff 	vmovsd -0x448(%rbp),%xmm0
   11cdf:	c5 fb 10 0d a1 f3 03 00 	vmovsd 0x3f3a1(%rip),%xmm1        # 51088 <_IO_stdin_used+0x88>
   11ce7:	c5 fb 5e d9          	vdivsd %xmm1,%xmm0,%xmm3
   11ceb:	c4 e1 f9 7e da       	vmovq  %xmm3,%rdx
   11cf0:	48 8d 35 66 f3 03 00 	lea    0x3f366(%rip),%rsi        # 5105d <_IO_stdin_used+0x5d>
   11cf7:	48 8d 85 f0 fb ff ff 	lea    -0x410(%rbp),%rax
   11cfe:	68 60 ae 0a 00       	push   $0xaae60
   11d03:	68 e0 93 04 00       	push   $0x493e0
   11d08:	c5 eb 10 ca          	vmovsd %xmm2,%xmm2,%xmm1
   11d0c:	c4 e1 f9 6e c2       	vmovq  %rdx,%xmm0
   11d11:	41 b9 40 42 0f 00    	mov    $0xf4240,%r9d
   11d17:	41 b8 00 02 00 00    	mov    $0x200,%r8d
   11d1d:	b9 01 00 00 00       	mov    $0x1,%ecx
   11d22:	ba 00 00 40 00       	mov    $0x400000,%edx
   11d27:	48 89 c7             	mov    %rax,%rdi
   11d2a:	b8 02 00 00 00       	mov    $0x2,%eax
   11d2f:	e8 cc f4 fe ff       	call   1200 <sprintf@plt>
   11d34:	48 83 c4 10          	add    $0x10,%rsp
   11d38:	eb 0f                	jmp    11d49 <main+0x331>
   11d3a:	fa                   	cli
   11d3b:	90                   	nop
   11d3c:	90                   	nop
   11d3d:	90                   	nop
   11d3e:	90                   	nop
   11d3f:	fa                   	cli
   11d40:	90                   	nop
   11d41:	90                   	nop
   11d42:	90                   	nop
   11d43:	90                   	nop
   11d44:	fa                   	cli
   11d45:	90                   	nop
   11d46:	90                   	nop
   11d47:	90                   	nop
   11d48:	90                   	nop
   11d49:	48 8b 95 e8 fb ff ff 	mov    -0x418(%rbp),%rdx
   11d50:	48 8d 85 f0 fb ff ff 	lea    -0x410(%rbp),%rax
   11d57:	48 89 d6             	mov    %rdx,%rsi
   11d5a:	48 89 c7             	mov    %rax,%rdi
   11d5d:	e8 8e f3 fe ff       	call   10f0 <fputs@plt>
   11d62:	48 8b 85 e8 fb ff ff 	mov    -0x418(%rbp),%rax
   11d69:	48 89 c7             	mov    %rax,%rdi
   11d6c:	e8 0f f3 fe ff       	call   1080 <fclose@plt>
   11d71:	b8 00 00 00 00       	mov    $0x0,%eax
   11d76:	48 8b 55 f8          	mov    -0x8(%rbp),%rdx
   11d7a:	64 48 2b 14 25 28 00 00 00 	sub    %fs:0x28,%rdx
   11d83:	74 05                	je     11d8a <main+0x372>
   11d85:	e8 16 f3 fe ff       	call   10a0 <__stack_chk_fail@plt>
   11d8a:	c9                   	leave
   11d8b:	c3                   	ret
   11d8c:	66 2e 0f 1f 84 00 00 00 00 00 	cs nopw 0x0(%rax,%rax,1)
   11d96:	66 2e 0f 1f 84 00 00 00 00 00 	cs nopw 0x0(%rax,%rax,1)
   11da0:	66 2e 0f 1f 84 00 00 00 00 00 	cs nopw 0x0(%rax,%rax,1)
   11daa:	66 2e 0f 1f 84 00 00 00 00 00 	cs nopw 0x0(%rax,%rax,1)
   11db4:	66 2e 0f 1f 84 00 00 00 00 00 	cs nopw 0x0(%rax,%rax,1)
   11dbe:	66 2e 0f 1f 84 00 00 00 00 00 	cs nopw 0x0(%rax,%rax,1)
   11dc8:	66 2e 0f 1f 84 00 00 00 00 00 	cs nopw 0x0(%rax,%rax,1)
   11dd2:	66 2e 0f 1f 84 00 00 00 00 00 	cs nopw 0x0(%rax,%rax,1)
   11ddc:	66 2e 0f 1f 84 00 00 00 00 00 	cs nopw 0x0(%rax,%rax,1)
   11de6:	66 2e 0f 1f 84 00 00 00 00 00 	cs nopw 0x0(%rax,%rax,1)
   11df0:	66 2e 0f 1f 84 00 00 00 00 00 	cs nopw 0x0(%rax,%rax,1)
   11dfa:	66 2e 0f 1f 84 00 00 00 00 00 	cs nopw 0x0(%rax,%rax,1)
   11e04:	66 2e 0f 1f 84 00 00 00 00 00 	cs nopw 0x0(%rax,%rax,1)
   11e0e:	66 2e 0f 1f 84 00 00 00 00 00 	cs nopw 0x0(%rax,%rax,1)
   11e18:	66 2e 0f 1f 84 00 00 00 00 00 	cs nopw 0x0(%rax,%rax,1)
   11e22:	66 2e 0f 1f 84 00 00 00 00 00 	cs nopw 0x0(%rax,%rax,1)
   11e2c:	66 2e 0f 1f 84 00 00 00 00 00 	cs nopw 0x0(%rax,%rax,1)
   11e36:	66 2e 0f 1f 84 00 00 00 00 00 	cs nopw 0x0(%rax,%rax,1)
   11e40:	66 2e 0f 1f 84 00 00 00 00 00 	cs nopw 0x0(%rax,%rax,1)
   11e4a:	66 2e 0f 1f 84 00 00 00 00 00 	cs nopw 0x0(%rax,%rax,1)
   11e54:	66 2e 0f 1f 84 00 00 00 00 00 	cs nopw 0x0(%rax,%rax,1)
   11e5e:	66 2e 0f 1f 84 00 00 00 00 00 	cs nopw 0x0(%rax,%rax,1)
   11e68:	66 2e 0f 1f 84 00 00 00 00 00 	cs nopw 0x0(%rax,%rax,1)
   11e72:	66 2e 0f 1f 84 00 00 00 00 00 	cs nopw 0x0(%rax,%rax,1)
   11e7c:	66 2e 0f 1f 84 00 00 00 00 00 	cs nopw 0x0(%rax,%rax,1)
   11e86:	66 2e 0f 1f 84 00 00 00 00 00 	cs nopw 0x0(%rax,%rax,1)
   11e90:	66 2e 0f 1f 84 00 00 00 00 00 	cs nopw 0x0(%rax,%rax,1)
   11e9a:	66 2e 0f 1f 84 00 00 00 00 00 	cs nopw 0x0(%rax,%rax,1)
   11ea4:	66 2e 0f 1f 84 00 00 00 00 00 	cs nopw 0x0(%rax,%rax,1)
   11eae:	66 2e 0f 1f 84 00 00 00 00 00 	cs nopw 0x0(%rax,%rax,1)
   11eb8:	66 2e 0f 1f 84 00 00 00 00 00 	cs nopw 0x0(%rax,%rax,1)
   11ec2:	66 2e 0f 1f 84 00 00 00 00 00 	cs nopw 0x0(%rax,%rax,1)
   11ecc:	66 2e 0f 1f 84 00 00 00 00 00 	cs nopw 0x0(%rax,%rax,1)
   11ed6:	66 2e 0f 1f 84 00 00 00 00 00 	cs nopw 0x0(%rax,%rax,1)
   11ee0:	66 2e 0f 1f 84 00 00 00 00 00 	cs nopw 0x0(%rax,%rax,1)
   11eea:	66 2e 0f 1f 84 00 00 00 00 00 	cs nopw 0x0(%rax,%rax,1)
   11ef4:	66 2e 0f 1f 84 00 00 00 00 00 	cs nopw 0x0(%rax,%rax,1)
   11efe:	66 2e 0f 1f 84 00 00 00 00 00 	cs nopw 0x0(%rax,%rax,1)
   11f08:	66 2e 0f 1f 84 00 00 00 00 00 	cs nopw 0x0(%rax,%rax,1)
   11f12:	66 2e 0f 1f 84 00 00 00 00 00 	cs nopw 0x0(%rax,%rax,1)
   11f1c:	66 2e 0f 1f 84 00 00 00 00 00 	cs nopw 0x0(%rax,%rax,1)
   11f26:	66 2e 0f 1f 84 00 00 00 00 00 	cs nopw 0x0(%rax,%rax,1)
   11f30:	66 2e 0f 1f 84 00 00 00 00 00 	cs nopw 0x0(%rax,%rax,1)
   11f3a:	66 2e 0f 1f 84 00 00 00 00 00 	cs nopw 0x0(%rax,%rax,1)
   11f44:	66 2e 0f 1f 84 00 00 00 00 00 	cs nopw 0x0(%rax,%rax,1)
   11f4e:	66 2e 0f 1f 84 00 00 00 00 00 	cs nopw 0x0(%rax,%rax,1)
   11f58:	66 2e 0f 1f 84 00 00 00 00 00 	cs nopw 0x0(%rax,%rax,1)
   11f62:	66 2e 0f 1f 84 00 00 00 00 00 	cs nopw 0x0(%rax,%rax,1)
   11f6c:	66 2e 0f 1f 84 00 00 00 00 00 	cs nopw 0x0(%rax,%rax,1)
   11f76:	66 2e 0f 1f 84 00 00 00 00 00 	cs nopw 0x0(%rax,%rax,1)
   11f80:	66 2e 0f 1f 84 00 00 00 00 00 	cs nopw 0x0(%rax,%rax,1)
   11f8a:	66 2e 0f 1f 84 00 00 00 00 00 	cs nopw 0x0(%rax,%rax,1)
   11f94:	66 2e 0f 1f 84 00 00 00 00 00 	cs nopw 0x0(%rax,%rax,1)
   11f9e:	66 2e 0f 1f 84 00 00 00 00 00 	cs nopw 0x0(%rax,%rax,1)
   11fa8:	66 2e 0f 1f 84 00 00 00 00 00 	cs nopw 0x0(%rax,%rax,1)
   11fb2:	66 2e 0f 1f 84 00 00 00 00 00 	cs nopw 0x0(%rax,%rax,1)
   11fbc:	66 2e 0f 1f 84 00 00 00 00 00 	cs nopw 0x0(%rax,%rax,1)
   11fc6:	66 2e 0f 1f 84 00 00 00 00 00 	cs nopw 0x0(%rax,%rax,1)
   11fd0:	66 2e 0f 1f 84 00 00 00 00 00 	cs nopw 0x0(%rax,%rax,1)
   11fda:	66 2e 0f 1f 84 00 00 00 00 00 	cs nopw 0x0(%rax,%rax,1)
   11fe4:	66 2e 0f 1f 84 00 00 00 00 00 	cs nopw 0x0(%rax,%rax,1)
   11fee:	66 2e 0f 1f 84 00 00 00 00 00 	cs nopw 0x0(%rax,%rax,1)
   11ff8:	66 2e 0f 1f 84 00 00 00 00 00 	cs nopw 0x0(%rax,%rax,1)
   12002:	66 2e 0f 1f 84 00 00 00 00 00 	cs nopw 0x0(%rax,%rax,1)
   1200c:	66 2e 0f 1f 84 00 00 00 00 00 	cs nopw 0x0(%rax,%rax,1)
   12016:	66 2e 0f 1f 84 00 00 00 00 00 	cs nopw 0x0(%rax,%rax,1)
   12020:	66 2e 0f 1f 84 00 00 00 00 00 	cs nopw 0x0(%rax,%rax,1)
   1202a:	66 2e 0f 1f 84 00 00 00 00 00 	cs nopw 0x0(%rax,%rax,1)
   12034:	66 2e 0f 1f 84 00 00 00 00 00 	cs nopw 0x0(%rax,%rax,1)
   1203e:	66 2e 0f 1f 84 00 00 00 00 00 	cs nopw 0x0(%rax,%rax,1)
   12048:	66 2e 0f 1f 84 00 00 00 00 00 	cs nopw 0x0(%rax,%rax,1)
   12052:	66 2e 0f 1f 84 00 00 00 00 00 	cs nopw 0x0(%rax,%rax,1)
   1205c:	66 2e 0f 1f 84 00 00 00 00 00 	cs nopw 0x0(%rax,%rax,1)
   12066:	66 2e 0f 1f 84 00 00 00 00 00 	cs nopw 0x0(%rax,%rax,1)
   12070:	66 2e 0f 1f 84 00 00 00 00 00 	cs nopw 0x0(%rax,%rax,1)
   1207a:	66 2e 0f 1f 84 00 00 00 00 00 	cs nopw 0x0(%rax,%rax,1)
   12084:	66 2e 0f 1f 84 00 00 00 00 00 	cs nopw 0x0(%rax,%rax,1)
   1208e:	66 2e 0f 1f 84 00 00 00 00 00 	cs nopw 0x0(%rax,%rax,1)
   12098:	66 2e 0f 1f 84 00 00 00 00 00 	cs nopw 0x0(%rax,%rax,1)
   120a2:	66 2e 0f 1f 84 00 00 00 00 00 	cs nopw 0x0(%rax,%rax,1)
   120ac:	66 2e 0f 1f 84 00 00 00 00 00 	cs nopw 0x0(%rax,%rax,1)
   120b6:	66 2e 0f 1f 84 00 00 00 00 00 	cs nopw 0x0(%rax,%rax,1)
   120c0:	66 2e 0f 1f 84 00 00 00 00 00 	cs nopw 0x0(%rax,%rax,1)
   120ca:	66 2e 0f 1f 84 00 00 00 00 00 	cs nopw 0x0(%rax,%rax,1)
   120d4:	66 2e 0f 1f 84 00 00 00 00 00 	cs nopw 0x0(%rax,%rax,1)
   120de:	66 2e 0f 1f 84 00 00 00 00 00 	cs nopw 0x0(%rax,%rax,1)
   120e8:	66 2e 0f 1f 84 00 00 00 00 00 	cs nopw 0x0(%rax,%rax,1)
   120f2:	66 2e 0f 1f 84 00 00 00 00 00 	cs nopw 0x0(%rax,%rax,1)
   120fc:	66 2e 0f 1f 84 00 00 00 00 00 	cs nopw 0x0(%rax,%rax,1)
   12106:	66 2e 0f 1f 84 00 00 00 00 00 	cs nopw 0x0(%rax,%rax,1)
   12110:	66 2e 0f 1f 84 00 00 00 00 00 	cs nopw 0x0(%rax,%rax,1)
   1211a:	66 2e 0f 1f 84 00 00 00 00 00 	cs nopw 0x0(%rax,%rax,1)
   12124:	66 2e 0f 1f 84 00 00 00 00 00 	cs nopw 0x0(%rax,%rax,1)
   1212e:	66 2e 0f 1f 84 00 00 00 00 00 	cs nopw 0x0(%rax,%rax,1)
   12138:	66 2e 0f 1f 84 00 00 00 00 00 	cs nopw 0x0(%rax,%rax,1)
   12142:	66 2e 0f 1f 84 00 00 00 00 00 	cs nopw 0x0(%rax,%rax,1)
   1214c:	66 2e 0f 1f 84 00 00 00 00 00 	cs nopw 0x0(%rax,%rax,1)
   12156:	66 2e 0f 1f 84 00 00 00 00 00 	cs nopw 0x0(%rax,%rax,1)
   12160:	66 2e 0f 1f 84 00 00 00 00 00 	cs nopw 0x0(%rax,%rax,1)
   1216a:	66 2e 0f 1f 84 00 00 00 00 00 	cs nopw 0x0(%rax,%rax,1)
   12174:	66 2e 0f 1f 84 00 00 00 00 00 	cs nopw 0x0(%rax,%rax,1)
   1217e:	66 2e 0f 1f 84 00 00 00 00 00 	cs nopw 0x0(%rax,%rax,1)
   12188:	66 2e 0f 1f 84 00 00 00 00 00 	cs nopw 0x0(%rax,%rax,1)
   12192:	66 2e 0f 1f 84 00 00 00 00 00 	cs nopw 0x0(%rax,%rax,1)
   1219c:	66 2e 0f 1f 84 00 00 00 00 00 	cs nopw 0x0(%rax,%rax,1)
   121a6:	66 2e 0f 1f 84 00 00 00 00 00 	cs nopw 0x0(%rax,%rax,1)
   121b0:	66 2e 0f 1f 84 00 00 00 00 00 	cs nopw 0x0(%rax,%rax,1)
   121ba:	66 2e 0f 1f 84 00 00 00 00 00 	cs nopw 0x0(%rax,%rax,1)
   121c4:	66 2e 0f 1f 84 00 00 00 00 00 	cs nopw 0x0(%rax,%rax,1)
   121ce:	66 2e 0f 1f 84 00 00 00 00 00 	cs nopw 0x0(%rax,%rax,1)
   121d8:	66 2e 0f 1f 84 00 00 00 00 00 	cs nopw 0x0(%rax,%rax,1)
   121e2:	66 2e 0f 1f 84 00 00 00 00 00 	cs nopw 0x0(%rax,%rax,1)
   121ec:	66 2e 0f 1f 84 00 00 00 00 00 	cs nopw 0x0(%rax,%rax,1)
   121f6:	66 2e 0f 1f 84 00 00 00 00 00 	cs nopw 0x0(%rax,%rax,1)
   12200:	66 2e 0f 1f 84 00 00 00 00 00 	cs nopw 0x0(%rax,%rax,1)
   1220a:	66 2e 0f 1f 84 00 00 00 00 00 	cs nopw 0x0(%rax,%rax,1)
   12214:	66 2e 0f 1f 84 00 00 00 00 00 	cs nopw 0x0(%rax,%rax,1)
   1221e:	66 2e 0f 1f 84 00 00 00 00 00 	cs nopw 0x0(%rax,%rax,1)
   12228:	66 2e 0f 1f 84 00 00 00 00 00 	cs nopw 0x0(%rax,%rax,1)
   12232:	66 2e 0f 1f 84 00 00 00 00 00 	cs nopw 0x0(%rax,%rax,1)
   1223c:	66 2e 0f 1f 84 00 00 00 00 00 	cs nopw 0x0(%rax,%rax,1)
   12246:	66 2e 0f 1f 84 00 00 00 00 00 	cs nopw 0x0(%rax,%rax,1)
   12250:	66 2e 0f 1f 84 00 00 00 00 00 	cs nopw 0x0(%rax,%rax,1)
   1225a:	66 2e 0f 1f 84 00 00 00 00 00 	cs nopw 0x0(%rax,%rax,1)
   12264:	66 2e 0f 1f 84 00 00 00 00 00 	cs nopw 0x0(%rax,%rax,1)
   1226e:	66 2e 0f 1f 84 00 00 00 00 00 	cs nopw 0x0(%rax,%rax,1)
   12278:	66 2e 0f 1f 84 00 00 00 00 00 	cs nopw 0x0(%rax,%rax,1)
   12282:	66 2e 0f 1f 84 00 00 00 00 00 	cs nopw 0x0(%rax,%rax,1)
   1228c:	66 2e 0f 1f 84 00 00 00 00 00 	cs nopw 0x0(%rax,%rax,1)
   12296:	66 2e 0f 1f 84 00 00 00 00 00 	cs nopw 0x0(%rax,%rax,1)
   122a0:	66 2e 0f 1f 84 00 00 00 00 00 	cs nopw 0x0(%rax,%rax,1)
   122aa:	66 2e 0f 1f 84 00 00 00 00 00 	cs nopw 0x0(%rax,%rax,1)
   122b4:	66 2e 0f 1f 84 00 00 00 00 00 	cs nopw 0x0(%rax,%rax,1)
   122be:	66 2e 0f 1f 84 00 00 00 00 00 	cs nopw 0x0(%rax,%rax,1)
   122c8:	66 2e 0f 1f 84 00 00 00 00 00 	cs nopw 0x0(%rax,%rax,1)
   122d2:	66 2e 0f 1f 84 00 00 00 00 00 	cs nopw 0x0(%rax,%rax,1)
   122dc:	66 2e 0f 1f 84 00 00 00 00 00 	cs nopw 0x0(%rax,%rax,1)
   122e6:	66 2e 0f 1f 84 00 00 00 00 00 	cs nopw 0x0(%rax,%rax,1)
   122f0:	66 2e 0f 1f 84 00 00 00 00 00 	cs nopw 0x0(%rax,%rax,1)
   122fa:	66 2e 0f 1f 84 00 00 00 00 00 	cs nopw 0x0(%rax,%rax,1)
   12304:	66 2e 0f 1f 84 00 00 00 00 00 	cs nopw 0x0(%rax,%rax,1)
   1230e:	66 2e 0f 1f 84 00 00 00 00 00 	cs nopw 0x0(%rax,%rax,1)
   12318:	66 2e 0f 1f 84 00 00 00 00 00 	cs nopw 0x0(%rax,%rax,1)
   12322:	66 2e 0f 1f 84 00 00 00 00 00 	cs nopw 0x0(%rax,%rax,1)
   1232c:	66 2e 0f 1f 84 00 00 00 00 00 	cs nopw 0x0(%rax,%rax,1)
   12336:	66 2e 0f 1f 84 00 00 00 00 00 	cs nopw 0x0(%rax,%rax,1)
   12340:	66 2e 0f 1f 84 00 00 00 00 00 	cs nopw 0x0(%rax,%rax,1)
   1234a:	66 2e 0f 1f 84 00 00 00 00 00 	cs nopw 0x0(%rax,%rax,1)
   12354:	66 2e 0f 1f 84 00 00 00 00 00 	cs nopw 0x0(%rax,%rax,1)
   1235e:	66 2e 0f 1f 84 00 00 00 00 00 	cs nopw 0x0(%rax,%rax,1)
   12368:	66 2e 0f 1f 84 00 00 00 00 00 	cs nopw 0x0(%rax,%rax,1)
   12372:	66 2e 0f 1f 84 00 00 00 00 00 	cs nopw 0x0(%rax,%rax,1)
   1237c:	66 2e 0f 1f 84 00 00 00 00 00 	cs nopw 0x0(%rax,%rax,1)
   12386:	66 2e 0f 1f 84 00 00 00 00 00 	cs nopw 0x0(%rax,%rax,1)
   12390:	66 2e 0f 1f 84 00 00 00 00 00 	cs nopw 0x0(%rax,%rax,1)
   1239a:	66 2e 0f 1f 84 00 00 00 00 00 	cs nopw 0x0(%rax,%rax,1)
   123a4:	66 2e 0f 1f 84 00 00 00 00 00 	cs nopw 0x0(%rax,%rax,1)
   123ae:	66 2e 0f 1f 84 00 00 00 00 00 	cs nopw 0x0(%rax,%rax,1)
   123b8:	66 2e 0f 1f 84 00 00 00 00 00 	cs nopw 0x0(%rax,%rax,1)
   123c2:	66 2e 0f 1f 84 00 00 00 00 00 	cs nopw 0x0(%rax,%rax,1)
   123cc:	66 2e 0f 1f 84 00 00 00 00 00 	cs nopw 0x0(%rax,%rax,1)
   123d6:	66 2e 0f 1f 84 00 00 00 00 00 	cs nopw 0x0(%rax,%rax,1)
   123e0:	66 2e 0f 1f 84 00 00 00 00 00 	cs nopw 0x0(%rax,%rax,1)
   123ea:	66 2e 0f 1f 84 00 00 00 00 00 	cs nopw 0x0(%rax,%rax,1)
   123f4:	66 2e 0f 1f 84 00 00 00 00 00 	cs nopw 0x0(%rax,%rax,1)
   123fe:	66 2e 0f 1f 84 00 00 00 00 00 	cs nopw 0x0(%rax,%rax,1)
   12408:	66 2e 0f 1f 84 00 00 00 00 00 	cs nopw 0x0(%rax,%rax,1)
   12412:	66 2e 0f 1f 84 00 00 00 00 00 	cs nopw 0x0(%rax,%rax,1)
   1241c:	66 2e 0f 1f 84 00 00 00 00 00 	cs nopw 0x0(%rax,%rax,1)
   12426:	66 2e 0f 1f 84 00 00 00 00 00 	cs nopw 0x0(%rax,%rax,1)
   12430:	66 2e 0f 1f 84 00 00 00 00 00 	cs nopw 0x0(%rax,%rax,1)
   1243a:	66 2e 0f 1f 84 00 00 00 00 00 	cs nopw 0x0(%rax,%rax,1)
   12444:	66 2e 0f 1f 84 00 00 00 00 00 	cs nopw 0x0(%rax,%rax,1)
   1244e:	66 2e 0f 1f 84 00 00 00 00 00 	cs nopw 0x0(%rax,%rax,1)
   12458:	66 2e 0f 1f 84 00 00 00 00 00 	cs nopw 0x0(%rax,%rax,1)
   12462:	66 2e 0f 1f 84 00 00 00 00 00 	cs nopw 0x0(%rax,%rax,1)
   1246c:	66 2e 0f 1f 84 00 00 00 00 00 	cs nopw 0x0(%rax,%rax,1)
   12476:	66 2e 0f 1f 84 00 00 00 00 00 	cs nopw 0x0(%rax,%rax,1)
   12480:	66 2e 0f 1f 84 00 00 00 00 00 	cs nopw 0x0(%rax,%rax,1)
   1248a:	66 2e 0f 1f 84 00 00 00 00 00 	cs nopw 0x0(%rax,%rax,1)
   12494:	66 2e 0f 1f 84 00 00 00 00 00 	cs nopw 0x0(%rax,%rax,1)
   1249e:	66 2e 0f 1f 84 00 00 00 00 00 	cs nopw 0x0(%rax,%rax,1)
   124a8:	66 2e 0f 1f 84 00 00 00 00 00 	cs nopw 0x0(%rax,%rax,1)
   124b2:	66 2e 0f 1f 84 00 00 00 00 00 	cs nopw 0x0(%rax,%rax,1)
   124bc:	66 2e 0f 1f 84 00 00 00 00 00 	cs nopw 0x0(%rax,%rax,1)
   124c6:	66 2e 0f 1f 84 00 00 00 00 00 	cs nopw 0x0(%rax,%rax,1)
   124d0:	66 2e 0f 1f 84 00 00 00 00 00 	cs nopw 0x0(%rax,%rax,1)
   124da:	66 2e 0f 1f 84 00 00 00 00 00 	cs nopw 0x0(%rax,%rax,1)
   124e4:	66 2e 0f 1f 84 00 00 00 00 00 	cs nopw 0x0(%rax,%rax,1)
   124ee:	66 2e 0f 1f 84 00 00 00 00 00 	cs nopw 0x0(%rax,%rax,1)
   124f8:	66 2e 0f 1f 84 00 00 00 00 00 	cs nopw 0x0(%rax,%rax,1)
   12502:	66 2e 0f 1f 84 00 00 00 00 00 	cs nopw 0x0(%rax,%rax,1)
   1250c:	66 2e 0f 1f 84 00 00 00 00 00 	cs nopw 0x0(%rax,%rax,1)
   12516:	66 2e 0f 1f 84 00 00 00 00 00 	cs nopw 0x0(%rax,%rax,1)
   12520:	66 2e 0f 1f 84 00 00 00 00 00 	cs nopw 0x0(%rax,%rax,1)
   1252a:	66 2e 0f 1f 84 00 00 00 00 00 	cs nopw 0x0(%rax,%rax,1)
   12534:	66 2e 0f 1f 84 00 00 00 00 00 	cs nopw 0x0(%rax,%rax,1)
   1253e:	66 2e 0f 1f 84 00 00 00 00 00 	cs nopw 0x0(%rax,%rax,1)
   12548:	66 2e 0f 1f 84 00 00 00 00 00 	cs nopw 0x0(%rax,%rax,1)
   12552:	66 2e 0f 1f 84 00 00 00 00 00 	cs nopw 0x0(%rax,%rax,1)
   1255c:	66 2e 0f 1f 84 00 00 00 00 00 	cs nopw 0x0(%rax,%rax,1)
   12566:	66 2e 0f 1f 84 00 00 00 00 00 	cs nopw 0x0(%rax,%rax,1)
   12570:	66 2e 0f 1f 84 00 00 00 00 00 	cs nopw 0x0(%rax,%rax,1)
   1257a:	66 2e 0f 1f 84 00 00 00 00 00 	cs nopw 0x0(%rax,%rax,1)
   12584:	66 2e 0f 1f 84 00 00 00 00 00 	cs nopw 0x0(%rax,%rax,1)
   1258e:	66 2e 0f 1f 84 00 00 00 00 00 	cs nopw 0x0(%rax,%rax,1)
   12598:	66 2e 0f 1f 84 00 00 00 00 00 	cs nopw 0x0(%rax,%rax,1)
   125a2:	66 2e 0f 1f 84 00 00 00 00 00 	cs nopw 0x0(%rax,%rax,1)
   125ac:	66 2e 0f 1f 84 00 00 00 00 00 	cs nopw 0x0(%rax,%rax,1)
   125b6:	66 2e 0f 1f 84 00 00 00 00 00 	cs nopw 0x0(%rax,%rax,1)
   125c0:	66 2e 0f 1f 84 00 00 00 00 00 	cs nopw 0x0(%rax,%rax,1)
   125ca:	66 2e 0f 1f 84 00 00 00 00 00 	cs nopw 0x0(%rax,%rax,1)
   125d4:	66 2e 0f 1f 84 00 00 00 00 00 	cs nopw 0x0(%rax,%rax,1)
   125de:	66 2e 0f 1f 84 00 00 00 00 00 	cs nopw 0x0(%rax,%rax,1)
   125e8:	66 2e 0f 1f 84 00 00 00 00 00 	cs nopw 0x0(%rax,%rax,1)
   125f2:	66 2e 0f 1f 84 00 00 00 00 00 	cs nopw 0x0(%rax,%rax,1)
   125fc:	66 2e 0f 1f 84 00 00 00 00 00 	cs nopw 0x0(%rax,%rax,1)
   12606:	66 2e 0f 1f 84 00 00 00 00 00 	cs nopw 0x0(%rax,%rax,1)
   12610:	66 2e 0f 1f 84 00 00 00 00 00 	cs nopw 0x0(%rax,%rax,1)
   1261a:	66 2e 0f 1f 84 00 00 00 00 00 	cs nopw 0x0(%rax,%rax,1)
   12624:	66 2e 0f 1f 84 00 00 00 00 00 	cs nopw 0x0(%rax,%rax,1)
   1262e:	66 2e 0f 1f 84 00 00 00 00 00 	cs nopw 0x0(%rax,%rax,1)
   12638:	66 2e 0f 1f 84 00 00 00 00 00 	cs nopw 0x0(%rax,%rax,1)
   12642:	66 2e 0f 1f 84 00 00 00 00 00 	cs nopw 0x0(%rax,%rax,1)
   1264c:	66 2e 0f 1f 84 00 00 00 00 00 	cs nopw 0x0(%rax,%rax,1)
   12656:	66 2e 0f 1f 84 00 00 00 00 00 	cs nopw 0x0(%rax,%rax,1)
   12660:	66 2e 0f 1f 84 00 00 00 00 00 	cs nopw 0x0(%rax,%rax,1)
   1266a:	66 2e 0f 1f 84 00 00 00 00 00 	cs nopw 0x0(%rax,%rax,1)
   12674:	66 2e 0f 1f 84 00 00 00 00 00 	cs nopw 0x0(%rax,%rax,1)
   1267e:	66 2e 0f 1f 84 00 00 00 00 00 	cs nopw 0x0(%rax,%rax,1)
   12688:	66 2e 0f 1f 84 00 00 00 00 00 	cs nopw 0x0(%rax,%rax,1)
   12692:	66 2e 0f 1f 84 00 00 00 00 00 	cs nopw 0x0(%rax,%rax,1)
   1269c:	66 2e 0f 1f 84 00 00 00 00 00 	cs nopw 0x0(%rax,%rax,1)
   126a6:	66 2e 0f 1f 84 00 00 00 00 00 	cs nopw 0x0(%rax,%rax,1)
   126b0:	66 2e 0f 1f 84 00 00 00 00 00 	cs nopw 0x0(%rax,%rax,1)
   126ba:	66 2e 0f 1f 84 00 00 00 00 00 	cs nopw 0x0(%rax,%rax,1)
   126c4:	66 2e 0f 1f 84 00 00 00 00 00 	cs nopw 0x0(%rax,%rax,1)
   126ce:	66 2e 0f 1f 84 00 00 00 00 00 	cs nopw 0x0(%rax,%rax,1)
   126d8:	66 2e 0f 1f 84 00 00 00 00 00 	cs nopw 0x0(%rax,%rax,1)
   126e2:	66 2e 0f 1f 84 00 00 00 00 00 	cs nopw 0x0(%rax,%rax,1)
   126ec:	66 2e 0f 1f 84 00 00 00 00 00 	cs nopw 0x0(%rax,%rax,1)
   126f6:	66 2e 0f 1f 84 00 00 00 00 00 	cs nopw 0x0(%rax,%rax,1)
   12700:	66 2e 0f 1f 84 00 00 00 00 00 	cs nopw 0x0(%rax,%rax,1)
   1270a:	66 2e 0f 1f 84 00 00 00 00 00 	cs nopw 0x0(%rax,%rax,1)
   12714:	66 2e 0f 1f 84 00 00 00 00 00 	cs nopw 0x0(%rax,%rax,1)
   1271e:	66 2e 0f 1f 84 00 00 00 00 00 	cs nopw 0x0(%rax,%rax,1)
   12728:	66 2e 0f 1f 84 00 00 00 00 00 	cs nopw 0x0(%rax,%rax,1)
   12732:	66 2e 0f 1f 84 00 00 00 00 00 	cs nopw 0x0(%rax,%rax,1)
   1273c:	66 2e 0f 1f 84 00 00 00 00 00 	cs nopw 0x0(%rax,%rax,1)
   12746:	66 2e 0f 1f 84 00 00 00 00 00 	cs nopw 0x0(%rax,%rax,1)
   12750:	66 2e 0f 1f 84 00 00 00 00 00 	cs nopw 0x0(%rax,%rax,1)
   1275a:	66 2e 0f 1f 84 00 00 00 00 00 	cs nopw 0x0(%rax,%rax,1)
   12764:	66 2e 0f 1f 84 00 00 00 00 00 	cs nopw 0x0(%rax,%rax,1)
   1276e:	66 2e 0f 1f 84 00 00 00 00 00 	cs nopw 0x0(%rax,%rax,1)
   12778:	66 2e 0f 1f 84 00 00 00 00 00 	cs nopw 0x0(%rax,%rax,1)
   12782:	66 2e 0f 1f 84 00 00 00 00 00 	cs nopw 0x0(%rax,%rax,1)
   1278c:	66 2e 0f 1f 84 00 00 00 00 00 	cs nopw 0x0(%rax,%rax,1)
   12796:	66 2e 0f 1f 84 00 00 00 00 00 	cs nopw 0x0(%rax,%rax,1)
   127a0:	66 2e 0f 1f 84 00 00 00 00 00 	cs nopw 0x0(%rax,%rax,1)
   127aa:	66 2e 0f 1f 84 00 00 00 00 00 	cs nopw 0x0(%rax,%rax,1)
   127b4:	66 2e 0f 1f 84 00 00 00 00 00 	cs nopw 0x0(%rax,%rax,1)
   127be:	66 2e 0f 1f 84 00 00 00 00 00 	cs nopw 0x0(%rax,%rax,1)
   127c8:	66 2e 0f 1f 84 00 00 00 00 00 	cs nopw 0x0(%rax,%rax,1)
   127d2:	66 2e 0f 1f 84 00 00 00 00 00 	cs nopw 0x0(%rax,%rax,1)
   127dc:	66 2e 0f 1f 84 00 00 00 00 00 	cs nopw 0x0(%rax,%rax,1)
   127e6:	66 2e 0f 1f 84 00 00 00 00 00 	cs nopw 0x0(%rax,%rax,1)
   127f0:	66 2e 0f 1f 84 00 00 00 00 00 	cs nopw 0x0(%rax,%rax,1)
   127fa:	66 2e 0f 1f 84 00 00 00 00 00 	cs nopw 0x0(%rax,%rax,1)
   12804:	66 2e 0f 1f 84 00 00 00 00 00 	cs nopw 0x0(%rax,%rax,1)
   1280e:	66 2e 0f 1f 84 00 00 00 00 00 	cs nopw 0x0(%rax,%rax,1)
   12818:	66 2e 0f 1f 84 00 00 00 00 00 	cs nopw 0x0(%rax,%rax,1)
   12822:	66 2e 0f 1f 84 00 00 00 00 00 	cs nopw 0x0(%rax,%rax,1)
   1282c:	66 2e 0f 1f 84 00 00 00 00 00 	cs nopw 0x0(%rax,%rax,1)
   12836:	66 2e 0f 1f 84 00 00 00 00 00 	cs nopw 0x0(%rax,%rax,1)
   12840:	66 2e 0f 1f 84 00 00 00 00 00 	cs nopw 0x0(%rax,%rax,1)
   1284a:	66 2e 0f 1f 84 00 00 00 00 00 	cs nopw 0x0(%rax,%rax,1)
   12854:	66 2e 0f 1f 84 00 00 00 00 00 	cs nopw 0x0(%rax,%rax,1)
   1285e:	66 2e 0f 1f 84 00 00 00 00 00 	cs nopw 0x0(%rax,%rax,1)
   12868:	66 2e 0f 1f 84 00 00 00 00 00 	cs nopw 0x0(%rax,%rax,1)
   12872:	66 2e 0f 1f 84 00 00 00 00 00 	cs nopw 0x0(%rax,%rax,1)
   1287c:	66 2e 0f 1f 84 00 00 00 00 00 	cs nopw 0x0(%rax,%rax,1)
   12886:	66 2e 0f 1f 84 00 00 00 00 00 	cs nopw 0x0(%rax,%rax,1)
   12890:	66 2e 0f 1f 84 00 00 00 00 00 	cs nopw 0x0(%rax,%rax,1)
   1289a:	66 2e 0f 1f 84 00 00 00 00 00 	cs nopw 0x0(%rax,%rax,1)
   128a4:	66 2e 0f 1f 84 00 00 00 00 00 	cs nopw 0x0(%rax,%rax,1)
   128ae:	66 2e 0f 1f 84 00 00 00 00 00 	cs nopw 0x0(%rax,%rax,1)
   128b8:	66 2e 0f 1f 84 00 00 00 00 00 	cs nopw 0x0(%rax,%rax,1)
   128c2:	66 2e 0f 1f 84 00 00 00 00 00 	cs nopw 0x0(%rax,%rax,1)
   128cc:	66 2e 0f 1f 84 00 00 00 00 00 	cs nopw 0x0(%rax,%rax,1)
   128d6:	66 2e 0f 1f 84 00 00 00 00 00 	cs nopw 0x0(%rax,%rax,1)
   128e0:	66 2e 0f 1f 84 00 00 00 00 00 	cs nopw 0x0(%rax,%rax,1)
   128ea:	66 2e 0f 1f 84 00 00 00 00 00 	cs nopw 0x0(%rax,%rax,1)
   128f4:	66 2e 0f 1f 84 00 00 00 00 00 	cs nopw 0x0(%rax,%rax,1)
   128fe:	66 2e 0f 1f 84 00 00 00 00 00 	cs nopw 0x0(%rax,%rax,1)
   12908:	66 2e 0f 1f 84 00 00 00 00 00 	cs nopw 0x0(%rax,%rax,1)
   12912:	66 2e 0f 1f 84 00 00 00 00 00 	cs nopw 0x0(%rax,%rax,1)
   1291c:	66 2e 0f 1f 84 00 00 00 00 00 	cs nopw 0x0(%rax,%rax,1)
   12926:	66 2e 0f 1f 84 00 00 00 00 00 	cs nopw 0x0(%rax,%rax,1)
   12930:	66 2e 0f 1f 84 00 00 00 00 00 	cs nopw 0x0(%rax,%rax,1)
   1293a:	66 2e 0f 1f 84 00 00 00 00 00 	cs nopw 0x0(%rax,%rax,1)
   12944:	66 2e 0f 1f 84 00 00 00 00 00 	cs nopw 0x0(%rax,%rax,1)
   1294e:	66 2e 0f 1f 84 00 00 00 00 00 	cs nopw 0x0(%rax,%rax,1)
   12958:	66 2e 0f 1f 84 00 00 00 00 00 	cs nopw 0x0(%rax,%rax,1)
   12962:	66 2e 0f 1f 84 00 00 00 00 00 	cs nopw 0x0(%rax,%rax,1)
   1296c:	66 2e 0f 1f 84 00 00 00 00 00 	cs nopw 0x0(%rax,%rax,1)
   12976:	66 2e 0f 1f 84 00 00 00 00 00 	cs nopw 0x0(%rax,%rax,1)
   12980:	66 2e 0f 1f 84 00 00 00 00 00 	cs nopw 0x0(%rax,%rax,1)
   1298a:	66 2e 0f 1f 84 00 00 00 00 00 	cs nopw 0x0(%rax,%rax,1)
   12994:	66 2e 0f 1f 84 00 00 00 00 00 	cs nopw 0x0(%rax,%rax,1)
   1299e:	66 2e 0f 1f 84 00 00 00 00 00 	cs nopw 0x0(%rax,%rax,1)
   129a8:	66 2e 0f 1f 84 00 00 00 00 00 	cs nopw 0x0(%rax,%rax,1)
   129b2:	66 2e 0f 1f 84 00 00 00 00 00 	cs nopw 0x0(%rax,%rax,1)
   129bc:	66 2e 0f 1f 84 00 00 00 00 00 	cs nopw 0x0(%rax,%rax,1)
   129c6:	66 2e 0f 1f 84 00 00 00 00 00 	cs nopw 0x0(%rax,%rax,1)
   129d0:	66 2e 0f 1f 84 00 00 00 00 00 	cs nopw 0x0(%rax,%rax,1)
   129da:	66 2e 0f 1f 84 00 00 00 00 00 	cs nopw 0x0(%rax,%rax,1)
   129e4:	66 2e 0f 1f 84 00 00 00 00 00 	cs nopw 0x0(%rax,%rax,1)
   129ee:	66 2e 0f 1f 84 00 00 00 00 00 	cs nopw 0x0(%rax,%rax,1)
   129f8:	66 2e 0f 1f 84 00 00 00 00 00 	cs nopw 0x0(%rax,%rax,1)
   12a02:	66 2e 0f 1f 84 00 00 00 00 00 	cs nopw 0x0(%rax,%rax,1)
   12a0c:	66 2e 0f 1f 84 00 00 00 00 00 	cs nopw 0x0(%rax,%rax,1)
   12a16:	66 2e 0f 1f 84 00 00 00 00 00 	cs nopw 0x0(%rax,%rax,1)
   12a20:	66 2e 0f 1f 84 00 00 00 00 00 	cs nopw 0x0(%rax,%rax,1)
   12a2a:	66 2e 0f 1f 84 00 00 00 00 00 	cs nopw 0x0(%rax,%rax,1)
   12a34:	66 2e 0f 1f 84 00 00 00 00 00 	cs nopw 0x0(%rax,%rax,1)
   12a3e:	66 2e 0f 1f 84 00 00 00 00 00 	cs nopw 0x0(%rax,%rax,1)
   12a48:	66 2e 0f 1f 84 00 00 00 00 00 	cs nopw 0x0(%rax,%rax,1)
   12a52:	66 2e 0f 1f 84 00 00 00 00 00 	cs nopw 0x0(%rax,%rax,1)
   12a5c:	66 2e 0f 1f 84 00 00 00 00 00 	cs nopw 0x0(%rax,%rax,1)
   12a66:	66 2e 0f 1f 84 00 00 00 00 00 	cs nopw 0x0(%rax,%rax,1)
   12a70:	66 2e 0f 1f 84 00 00 00 00 00 	cs nopw 0x0(%rax,%rax,1)
   12a7a:	66 2e 0f 1f 84 00 00 00 00 00 	cs nopw 0x0(%rax,%rax,1)
   12a84:	66 2e 0f 1f 84 00 00 00 00 00 	cs nopw 0x0(%rax,%rax,1)
   12a8e:	66 2e 0f 1f 84 00 00 00 00 00 	cs nopw 0x0(%rax,%rax,1)
   12a98:	66 2e 0f 1f 84 00 00 00 00 00 	cs nopw 0x0(%rax,%rax,1)
   12aa2:	66 2e 0f 1f 84 00 00 00 00 00 	cs nopw 0x0(%rax,%rax,1)
   12aac:	66 2e 0f 1f 84 00 00 00 00 00 	cs nopw 0x0(%rax,%rax,1)
   12ab6:	66 2e 0f 1f 84 00 00 00 00 00 	cs nopw 0x0(%rax,%rax,1)
   12ac0:	66 2e 0f 1f 84 00 00 00 00 00 	cs nopw 0x0(%rax,%rax,1)
   12aca:	66 2e 0f 1f 84 00 00 00 00 00 	cs nopw 0x0(%rax,%rax,1)
   12ad4:	66 2e 0f 1f 84 00 00 00 00 00 	cs nopw 0x0(%rax,%rax,1)
   12ade:	66 2e 0f 1f 84 00 00 00 00 00 	cs nopw 0x0(%rax,%rax,1)
   12ae8:	66 2e 0f 1f 84 00 00 00 00 00 	cs nopw 0x0(%rax,%rax,1)
   12af2:	66 2e 0f 1f 84 00 00 00 00 00 	cs nopw 0x0(%rax,%rax,1)
   12afc:	66 2e 0f 1f 84 00 00 00 00 00 	cs nopw 0x0(%rax,%rax,1)
   12b06:	66 2e 0f 1f 84 00 00 00 00 00 	cs nopw 0x0(%rax,%rax,1)
   12b10:	66 2e 0f 1f 84 00 00 00 00 00 	cs nopw 0x0(%rax,%rax,1)
   12b1a:	66 2e 0f 1f 84 00 00 00 00 00 	cs nopw 0x0(%rax,%rax,1)
   12b24:	66 2e 0f 1f 84 00 00 00 00 00 	cs nopw 0x0(%rax,%rax,1)
   12b2e:	66 2e 0f 1f 84 00 00 00 00 00 	cs nopw 0x0(%rax,%rax,1)
   12b38:	66 2e 0f 1f 84 00 00 00 00 00 	cs nopw 0x0(%rax,%rax,1)
   12b42:	66 2e 0f 1f 84 00 00 00 00 00 	cs nopw 0x0(%rax,%rax,1)
   12b4c:	66 2e 0f 1f 84 00 00 00 00 00 	cs nopw 0x0(%rax,%rax,1)
   12b56:	66 2e 0f 1f 84 00 00 00 00 00 	cs nopw 0x0(%rax,%rax,1)
   12b60:	66 2e 0f 1f 84 00 00 00 00 00 	cs nopw 0x0(%rax,%rax,1)
   12b6a:	66 2e 0f 1f 84 00 00 00 00 00 	cs nopw 0x0(%rax,%rax,1)
   12b74:	66 2e 0f 1f 84 00 00 00 00 00 	cs nopw 0x0(%rax,%rax,1)
   12b7e:	66 2e 0f 1f 84 00 00 00 00 00 	cs nopw 0x0(%rax,%rax,1)
   12b88:	66 2e 0f 1f 84 00 00 00 00 00 	cs nopw 0x0(%rax,%rax,1)
   12b92:	66 2e 0f 1f 84 00 00 00 00 00 	cs nopw 0x0(%rax,%rax,1)
   12b9c:	66 2e 0f 1f 84 00 00 00 00 00 	cs nopw 0x0(%rax,%rax,1)
   12ba6:	66 2e 0f 1f 84 00 00 00 00 00 	cs nopw 0x0(%rax,%rax,1)
   12bb0:	66 2e 0f 1f 84 00 00 00 00 00 	cs nopw 0x0(%rax,%rax,1)
   12bba:	66 2e 0f 1f 84 00 00 00 00 00 	cs nopw 0x0(%rax,%rax,1)
   12bc4:	66 2e 0f 1f 84 00 00 00 00 00 	cs nopw 0x0(%rax,%rax,1)
   12bce:	66 2e 0f 1f 84 00 00 00 00 00 	cs nopw 0x0(%rax,%rax,1)
   12bd8:	66 2e 0f 1f 84 00 00 00 00 00 	cs nopw 0x0(%rax,%rax,1)
   12be2:	66 2e 0f 1f 84 00 00 00 00 00 	cs nopw 0x0(%rax,%rax,1)
   12bec:	66 2e 0f 1f 84 00 00 00 00 00 	cs nopw 0x0(%rax,%rax,1)
   12bf6:	66 2e 0f 1f 84 00 00 00 00 00 	cs nopw 0x0(%rax,%rax,1)
   12c00:	66 2e 0f 1f 84 00 00 00 00 00 	cs nopw 0x0(%rax,%rax,1)
   12c0a:	66 2e 0f 1f 84 00 00 00 00 00 	cs nopw 0x0(%rax,%rax,1)
   12c14:	66 2e 0f 1f 84 00 00 00 00 00 	cs nopw 0x0(%rax,%rax,1)
   12c1e:	66 2e 0f 1f 84 00 00 00 00 00 	cs nopw 0x0(%rax,%rax,1)
   12c28:	66 2e 0f 1f 84 00 00 00 00 00 	cs nopw 0x0(%rax,%rax,1)
   12c32:	66 2e 0f 1f 84 00 00 00 00 00 	cs nopw 0x0(%rax,%rax,1)
   12c3c:	66 2e 0f 1f 84 00 00 00 00 00 	cs nopw 0x0(%rax,%rax,1)
   12c46:	66 2e 0f 1f 84 00 00 00 00 00 	cs nopw 0x0(%rax,%rax,1)
   12c50:	66 2e 0f 1f 84 00 00 00 00 00 	cs nopw 0x0(%rax,%rax,1)
   12c5a:	66 2e 0f 1f 84 00 00 00 00 00 	cs nopw 0x0(%rax,%rax,1)
   12c64:	66 2e 0f 1f 84 00 00 00 00 00 	cs nopw 0x0(%rax,%rax,1)
   12c6e:	66 2e 0f 1f 84 00 00 00 00 00 	cs nopw 0x0(%rax,%rax,1)
   12c78:	66 2e 0f 1f 84 00 00 00 00 00 	cs nopw 0x0(%rax,%rax,1)
   12c82:	66 2e 0f 1f 84 00 00 00 00 00 	cs nopw 0x0(%rax,%rax,1)
   12c8c:	66 2e 0f 1f 84 00 00 00 00 00 	cs nopw 0x0(%rax,%rax,1)
   12c96:	66 2e 0f 1f 84 00 00 00 00 00 	cs nopw 0x0(%rax,%rax,1)
   12ca0:	66 2e 0f 1f 84 00 00 00 00 00 	cs nopw 0x0(%rax,%rax,1)
   12caa:	66 2e 0f 1f 84 00 00 00 00 00 	cs nopw 0x0(%rax,%rax,1)
   12cb4:	66 2e 0f 1f 84 00 00 00 00 00 	cs nopw 0x0(%rax,%rax,1)
   12cbe:	66 2e 0f 1f 84 00 00 00 00 00 	cs nopw 0x0(%rax,%rax,1)
   12cc8:	66 2e 0f 1f 84 00 00 00 00 00 	cs nopw 0x0(%rax,%rax,1)
   12cd2:	66 2e 0f 1f 84 00 00 00 00 00 	cs nopw 0x0(%rax,%rax,1)
   12cdc:	66 2e 0f 1f 84 00 00 00 00 00 	cs nopw 0x0(%rax,%rax,1)
   12ce6:	66 2e 0f 1f 84 00 00 00 00 00 	cs nopw 0x0(%rax,%rax,1)
   12cf0:	66 2e 0f 1f 84 00 00 00 00 00 	cs nopw 0x0(%rax,%rax,1)
   12cfa:	66 2e 0f 1f 84 00 00 00 00 00 	cs nopw 0x0(%rax,%rax,1)
   12d04:	66 2e 0f 1f 84 00 00 00 00 00 	cs nopw 0x0(%rax,%rax,1)
   12d0e:	66 2e 0f 1f 84 00 00 00 00 00 	cs nopw 0x0(%rax,%rax,1)
   12d18:	66 2e 0f 1f 84 00 00 00 00 00 	cs nopw 0x0(%rax,%rax,1)
   12d22:	66 2e 0f 1f 84 00 00 00 00 00 	cs nopw 0x0(%rax,%rax,1)
   12d2c:	66 2e 0f 1f 84 00 00 00 00 00 	cs nopw 0x0(%rax,%rax,1)
   12d36:	66 2e 0f 1f 84 00 00 00 00 00 	cs nopw 0x0(%rax,%rax,1)
   12d40:	66 2e 0f 1f 84 00 00 00 00 00 	cs nopw 0x0(%rax,%rax,1)
   12d4a:	66 2e 0f 1f 84 00 00 00 00 00 	cs nopw 0x0(%rax,%rax,1)
   12d54:	66 2e 0f 1f 84 00 00 00 00 00 	cs nopw 0x0(%rax,%rax,1)
   12d5e:	66 2e 0f 1f 84 00 00 00 00 00 	cs nopw 0x0(%rax,%rax,1)
   12d68:	66 2e 0f 1f 84 00 00 00 00 00 	cs nopw 0x0(%rax,%rax,1)
   12d72:	66 2e 0f 1f 84 00 00 00 00 00 	cs nopw 0x0(%rax,%rax,1)
   12d7c:	66 2e 0f 1f 84 00 00 00 00 00 	cs nopw 0x0(%rax,%rax,1)
   12d86:	66 2e 0f 1f 84 00 00 00 00 00 	cs nopw 0x0(%rax,%rax,1)
   12d90:	66 2e 0f 1f 84 00 00 00 00 00 	cs nopw 0x0(%rax,%rax,1)
   12d9a:	66 2e 0f 1f 84 00 00 00 00 00 	cs nopw 0x0(%rax,%rax,1)
   12da4:	66 2e 0f 1f 84 00 00 00 00 00 	cs nopw 0x0(%rax,%rax,1)
   12dae:	66 2e 0f 1f 84 00 00 00 00 00 	cs nopw 0x0(%rax,%rax,1)
   12db8:	66 2e 0f 1f 84 00 00 00 00 00 	cs nopw 0x0(%rax,%rax,1)
   12dc2:	66 2e 0f 1f 84 00 00 00 00 00 	cs nopw 0x0(%rax,%rax,1)
   12dcc:	66 2e 0f 1f 84 00 00 00 00 00 	cs nopw 0x0(%rax,%rax,1)
   12dd6:	66 2e 0f 1f 84 00 00 00 00 00 	cs nopw 0x0(%rax,%rax,1)
   12de0:	66 2e 0f 1f 84 00 00 00 00 00 	cs nopw 0x0(%rax,%rax,1)
   12dea:	66 2e 0f 1f 84 00 00 00 00 00 	cs nopw 0x0(%rax,%rax,1)
   12df4:	66 2e 0f 1f 84 00 00 00 00 00 	cs nopw 0x0(%rax,%rax,1)
   12dfe:	66 2e 0f 1f 84 00 00 00 00 00 	cs nopw 0x0(%rax,%rax,1)
   12e08:	66 2e 0f 1f 84 00 00 00 00 00 	cs nopw 0x0(%rax,%rax,1)
   12e12:	66 2e 0f 1f 84 00 00 00 00 00 	cs nopw 0x0(%rax,%rax,1)
   12e1c:	66 2e 0f 1f 84 00 00 00 00 00 	cs nopw 0x0(%rax,%rax,1)
   12e26:	66 2e 0f 1f 84 00 00 00 00 00 	cs nopw 0x0(%rax,%rax,1)
   12e30:	66 2e 0f 1f 84 00 00 00 00 00 	cs nopw 0x0(%rax,%rax,1)
   12e3a:	66 2e 0f 1f 84 00 00 00 00 00 	cs nopw 0x0(%rax,%rax,1)
   12e44:	66 2e 0f 1f 84 00 00 00 00 00 	cs nopw 0x0(%rax,%rax,1)
   12e4e:	66 2e 0f 1f 84 00 00 00 00 00 	cs nopw 0x0(%rax,%rax,1)
   12e58:	66 2e 0f 1f 84 00 00 00 00 00 	cs nopw 0x0(%rax,%rax,1)
   12e62:	66 2e 0f 1f 84 00 00 00 00 00 	cs nopw 0x0(%rax,%rax,1)
   12e6c:	66 2e 0f 1f 84 00 00 00 00 00 	cs nopw 0x0(%rax,%rax,1)
   12e76:	66 2e 0f 1f 84 00 00 00 00 00 	cs nopw 0x0(%rax,%rax,1)
   12e80:	66 2e 0f 1f 84 00 00 00 00 00 	cs nopw 0x0(%rax,%rax,1)
   12e8a:	66 2e 0f 1f 84 00 00 00 00 00 	cs nopw 0x0(%rax,%rax,1)
   12e94:	66 2e 0f 1f 84 00 00 00 00 00 	cs nopw 0x0(%rax,%rax,1)
   12e9e:	66 2e 0f 1f 84 00 00 00 00 00 	cs nopw 0x0(%rax,%rax,1)
   12ea8:	66 2e 0f 1f 84 00 00 00 00 00 	cs nopw 0x0(%rax,%rax,1)
   12eb2:	66 2e 0f 1f 84 00 00 00 00 00 	cs nopw 0x0(%rax,%rax,1)
   12ebc:	66 2e 0f 1f 84 00 00 00 00 00 	cs nopw 0x0(%rax,%rax,1)
   12ec6:	66 2e 0f 1f 84 00 00 00 00 00 	cs nopw 0x0(%rax,%rax,1)
   12ed0:	66 2e 0f 1f 84 00 00 00 00 00 	cs nopw 0x0(%rax,%rax,1)
   12eda:	66 2e 0f 1f 84 00 00 00 00 00 	cs nopw 0x0(%rax,%rax,1)
   12ee4:	66 2e 0f 1f 84 00 00 00 00 00 	cs nopw 0x0(%rax,%rax,1)
   12eee:	66 2e 0f 1f 84 00 00 00 00 00 	cs nopw 0x0(%rax,%rax,1)
   12ef8:	66 2e 0f 1f 84 00 00 00 00 00 	cs nopw 0x0(%rax,%rax,1)
   12f02:	66 2e 0f 1f 84 00 00 00 00 00 	cs nopw 0x0(%rax,%rax,1)
   12f0c:	66 2e 0f 1f 84 00 00 00 00 00 	cs nopw 0x0(%rax,%rax,1)
   12f16:	66 2e 0f 1f 84 00 00 00 00 00 	cs nopw 0x0(%rax,%rax,1)
   12f20:	66 2e 0f 1f 84 00 00 00 00 00 	cs nopw 0x0(%rax,%rax,1)
   12f2a:	66 2e 0f 1f 84 00 00 00 00 00 	cs nopw 0x0(%rax,%rax,1)
   12f34:	66 2e 0f 1f 84 00 00 00 00 00 	cs nopw 0x0(%rax,%rax,1)
   12f3e:	66 2e 0f 1f 84 00 00 00 00 00 	cs nopw 0x0(%rax,%rax,1)
   12f48:	66 2e 0f 1f 84 00 00 00 00 00 	cs nopw 0x0(%rax,%rax,1)
   12f52:	66 2e 0f 1f 84 00 00 00 00 00 	cs nopw 0x0(%rax,%rax,1)
   12f5c:	66 2e 0f 1f 84 00 00 00 00 00 	cs nopw 0x0(%rax,%rax,1)
   12f66:	66 2e 0f 1f 84 00 00 00 00 00 	cs nopw 0x0(%rax,%rax,1)
   12f70:	66 2e 0f 1f 84 00 00 00 00 00 	cs nopw 0x0(%rax,%rax,1)
   12f7a:	66 2e 0f 1f 84 00 00 00 00 00 	cs nopw 0x0(%rax,%rax,1)
   12f84:	66 2e 0f 1f 84 00 00 00 00 00 	cs nopw 0x0(%rax,%rax,1)
   12f8e:	66 2e 0f 1f 84 00 00 00 00 00 	cs nopw 0x0(%rax,%rax,1)
   12f98:	66 2e 0f 1f 84 00 00 00 00 00 	cs nopw 0x0(%rax,%rax,1)
   12fa2:	66 2e 0f 1f 84 00 00 00 00 00 	cs nopw 0x0(%rax,%rax,1)
   12fac:	66 2e 0f 1f 84 00 00 00 00 00 	cs nopw 0x0(%rax,%rax,1)
   12fb6:	66 2e 0f 1f 84 00 00 00 00 00 	cs nopw 0x0(%rax,%rax,1)
   12fc0:	66 2e 0f 1f 84 00 00 00 00 00 	cs nopw 0x0(%rax,%rax,1)
   12fca:	66 2e 0f 1f 84 00 00 00 00 00 	cs nopw 0x0(%rax,%rax,1)
   12fd4:	66 2e 0f 1f 84 00 00 00 00 00 	cs nopw 0x0(%rax,%rax,1)
   12fde:	66 2e 0f 1f 84 00 00 00 00 00 	cs nopw 0x0(%rax,%rax,1)
   12fe8:	66 2e 0f 1f 84 00 00 00 00 00 	cs nopw 0x0(%rax,%rax,1)
   12ff2:	66 2e 0f 1f 84 00 00 00 00 00 	cs nopw 0x0(%rax,%rax,1)
   12ffc:	66 2e 0f 1f 84 00 00 00 00 00 	cs nopw 0x0(%rax,%rax,1)
   13006:	66 2e 0f 1f 84 00 00 00 00 00 	cs nopw 0x0(%rax,%rax,1)
   13010:	66 2e 0f 1f 84 00 00 00 00 00 	cs nopw 0x0(%rax,%rax,1)
   1301a:	66 2e 0f 1f 84 00 00 00 00 00 	cs nopw 0x0(%rax,%rax,1)
   13024:	66 2e 0f 1f 84 00 00 00 00 00 	cs nopw 0x0(%rax,%rax,1)
   1302e:	66 2e 0f 1f 84 00 00 00 00 00 	cs nopw 0x0(%rax,%rax,1)
   13038:	66 2e 0f 1f 84 00 00 00 00 00 	cs nopw 0x0(%rax,%rax,1)
   13042:	66 2e 0f 1f 84 00 00 00 00 00 	cs nopw 0x0(%rax,%rax,1)
   1304c:	66 2e 0f 1f 84 00 00 00 00 00 	cs nopw 0x0(%rax,%rax,1)
   13056:	66 2e 0f 1f 84 00 00 00 00 00 	cs nopw 0x0(%rax,%rax,1)
   13060:	66 2e 0f 1f 84 00 00 00 00 00 	cs nopw 0x0(%rax,%rax,1)
   1306a:	66 2e 0f 1f 84 00 00 00 00 00 	cs nopw 0x0(%rax,%rax,1)
   13074:	66 2e 0f 1f 84 00 00 00 00 00 	cs nopw 0x0(%rax,%rax,1)
   1307e:	66 2e 0f 1f 84 00 00 00 00 00 	cs nopw 0x0(%rax,%rax,1)
   13088:	66 2e 0f 1f 84 00 00 00 00 00 	cs nopw 0x0(%rax,%rax,1)
   13092:	66 2e 0f 1f 84 00 00 00 00 00 	cs nopw 0x0(%rax,%rax,1)
   1309c:	66 2e 0f 1f 84 00 00 00 00 00 	cs nopw 0x0(%rax,%rax,1)
   130a6:	66 2e 0f 1f 84 00 00 00 00 00 	cs nopw 0x0(%rax,%rax,1)
   130b0:	66 2e 0f 1f 84 00 00 00 00 00 	cs nopw 0x0(%rax,%rax,1)
   130ba:	66 2e 0f 1f 84 00 00 00 00 00 	cs nopw 0x0(%rax,%rax,1)
   130c4:	66 2e 0f 1f 84 00 00 00 00 00 	cs nopw 0x0(%rax,%rax,1)
   130ce:	66 2e 0f 1f 84 00 00 00 00 00 	cs nopw 0x0(%rax,%rax,1)
   130d8:	66 2e 0f 1f 84 00 00 00 00 00 	cs nopw 0x0(%rax,%rax,1)
   130e2:	66 2e 0f 1f 84 00 00 00 00 00 	cs nopw 0x0(%rax,%rax,1)
   130ec:	66 2e 0f 1f 84 00 00 00 00 00 	cs nopw 0x0(%rax,%rax,1)
   130f6:	66 2e 0f 1f 84 00 00 00 00 00 	cs nopw 0x0(%rax,%rax,1)
   13100:	66 2e 0f 1f 84 00 00 00 00 00 	cs nopw 0x0(%rax,%rax,1)
   1310a:	66 2e 0f 1f 84 00 00 00 00 00 	cs nopw 0x0(%rax,%rax,1)
   13114:	66 2e 0f 1f 84 00 00 00 00 00 	cs nopw 0x0(%rax,%rax,1)
   1311e:	66 2e 0f 1f 84 00 00 00 00 00 	cs nopw 0x0(%rax,%rax,1)
   13128:	66 2e 0f 1f 84 00 00 00 00 00 	cs nopw 0x0(%rax,%rax,1)
   13132:	66 2e 0f 1f 84 00 00 00 00 00 	cs nopw 0x0(%rax,%rax,1)
   1313c:	66 2e 0f 1f 84 00 00 00 00 00 	cs nopw 0x0(%rax,%rax,1)
   13146:	66 2e 0f 1f 84 00 00 00 00 00 	cs nopw 0x0(%rax,%rax,1)
   13150:	66 2e 0f 1f 84 00 00 00 00 00 	cs nopw 0x0(%rax,%rax,1)
   1315a:	66 2e 0f 1f 84 00 00 00 00 00 	cs nopw 0x0(%rax,%rax,1)
   13164:	66 2e 0f 1f 84 00 00 00 00 00 	cs nopw 0x0(%rax,%rax,1)
   1316e:	66 2e 0f 1f 84 00 00 00 00 00 	cs nopw 0x0(%rax,%rax,1)
   13178:	66 2e 0f 1f 84 00 00 00 00 00 	cs nopw 0x0(%rax,%rax,1)
   13182:	66 2e 0f 1f 84 00 00 00 00 00 	cs nopw 0x0(%rax,%rax,1)
   1318c:	66 2e 0f 1f 84 00 00 00 00 00 	cs nopw 0x0(%rax,%rax,1)
   13196:	66 2e 0f 1f 84 00 00 00 00 00 	cs nopw 0x0(%rax,%rax,1)
   131a0:	66 2e 0f 1f 84 00 00 00 00 00 	cs nopw 0x0(%rax,%rax,1)
   131aa:	66 2e 0f 1f 84 00 00 00 00 00 	cs nopw 0x0(%rax,%rax,1)
   131b4:	66 2e 0f 1f 84 00 00 00 00 00 	cs nopw 0x0(%rax,%rax,1)
   131be:	66 2e 0f 1f 84 00 00 00 00 00 	cs nopw 0x0(%rax,%rax,1)
   131c8:	66 2e 0f 1f 84 00 00 00 00 00 	cs nopw 0x0(%rax,%rax,1)
   131d2:	66 2e 0f 1f 84 00 00 00 00 00 	cs nopw 0x0(%rax,%rax,1)
   131dc:	66 2e 0f 1f 84 00 00 00 00 00 	cs nopw 0x0(%rax,%rax,1)
   131e6:	66 2e 0f 1f 84 00 00 00 00 00 	cs nopw 0x0(%rax,%rax,1)
   131f0:	66 2e 0f 1f 84 00 00 00 00 00 	cs nopw 0x0(%rax,%rax,1)
   131fa:	66 2e 0f 1f 84 00 00 00 00 00 	cs nopw 0x0(%rax,%rax,1)
   13204:	66 2e 0f 1f 84 00 00 00 00 00 	cs nopw 0x0(%rax,%rax,1)
   1320e:	66 2e 0f 1f 84 00 00 00 00 00 	cs nopw 0x0(%rax,%rax,1)
   13218:	66 2e 0f 1f 84 00 00 00 00 00 	cs nopw 0x0(%rax,%rax,1)
   13222:	66 2e 0f 1f 84 00 00 00 00 00 	cs nopw 0x0(%rax,%rax,1)
   1322c:	66 2e 0f 1f 84 00 00 00 00 00 	cs nopw 0x0(%rax,%rax,1)
   13236:	66 2e 0f 1f 84 00 00 00 00 00 	cs nopw 0x0(%rax,%rax,1)
   13240:	66 2e 0f 1f 84 00 00 00 00 00 	cs nopw 0x0(%rax,%rax,1)
   1324a:	66 2e 0f 1f 84 00 00 00 00 00 	cs nopw 0x0(%rax,%rax,1)
   13254:	66 2e 0f 1f 84 00 00 00 00 00 	cs nopw 0x0(%rax,%rax,1)
   1325e:	66 2e 0f 1f 84 00 00 00 00 00 	cs nopw 0x0(%rax,%rax,1)
   13268:	66 2e 0f 1f 84 00 00 00 00 00 	cs nopw 0x0(%rax,%rax,1)
   13272:	66 2e 0f 1f 84 00 00 00 00 00 	cs nopw 0x0(%rax,%rax,1)
   1327c:	66 2e 0f 1f 84 00 00 00 00 00 	cs nopw 0x0(%rax,%rax,1)
   13286:	66 2e 0f 1f 84 00 00 00 00 00 	cs nopw 0x0(%rax,%rax,1)
   13290:	66 2e 0f 1f 84 00 00 00 00 00 	cs nopw 0x0(%rax,%rax,1)
   1329a:	66 2e 0f 1f 84 00 00 00 00 00 	cs nopw 0x0(%rax,%rax,1)
   132a4:	66 2e 0f 1f 84 00 00 00 00 00 	cs nopw 0x0(%rax,%rax,1)
   132ae:	66 2e 0f 1f 84 00 00 00 00 00 	cs nopw 0x0(%rax,%rax,1)
   132b8:	66 2e 0f 1f 84 00 00 00 00 00 	cs nopw 0x0(%rax,%rax,1)
   132c2:	66 2e 0f 1f 84 00 00 00 00 00 	cs nopw 0x0(%rax,%rax,1)
   132cc:	66 2e 0f 1f 84 00 00 00 00 00 	cs nopw 0x0(%rax,%rax,1)
   132d6:	66 2e 0f 1f 84 00 00 00 00 00 	cs nopw 0x0(%rax,%rax,1)
   132e0:	66 2e 0f 1f 84 00 00 00 00 00 	cs nopw 0x0(%rax,%rax,1)
   132ea:	66 2e 0f 1f 84 00 00 00 00 00 	cs nopw 0x0(%rax,%rax,1)
   132f4:	66 2e 0f 1f 84 00 00 00 00 00 	cs nopw 0x0(%rax,%rax,1)
   132fe:	66 2e 0f 1f 84 00 00 00 00 00 	cs nopw 0x0(%rax,%rax,1)
   13308:	66 2e 0f 1f 84 00 00 00 00 00 	cs nopw 0x0(%rax,%rax,1)
   13312:	66 2e 0f 1f 84 00 00 00 00 00 	cs nopw 0x0(%rax,%rax,1)
   1331c:	66 2e 0f 1f 84 00 00 00 00 00 	cs nopw 0x0(%rax,%rax,1)
   13326:	66 2e 0f 1f 84 00 00 00 00 00 	cs nopw 0x0(%rax,%rax,1)
   13330:	66 2e 0f 1f 84 00 00 00 00 00 	cs nopw 0x0(%rax,%rax,1)
   1333a:	66 2e 0f 1f 84 00 00 00 00 00 	cs nopw 0x0(%rax,%rax,1)
   13344:	66 2e 0f 1f 84 00 00 00 00 00 	cs nopw 0x0(%rax,%rax,1)
   1334e:	66 2e 0f 1f 84 00 00 00 00 00 	cs nopw 0x0(%rax,%rax,1)
   13358:	66 2e 0f 1f 84 00 00 00 00 00 	cs nopw 0x0(%rax,%rax,1)
   13362:	66 2e 0f 1f 84 00 00 00 00 00 	cs nopw 0x0(%rax,%rax,1)
   1336c:	66 2e 0f 1f 84 00 00 00 00 00 	cs nopw 0x0(%rax,%rax,1)
   13376:	66 2e 0f 1f 84 00 00 00 00 00 	cs nopw 0x0(%rax,%rax,1)
   13380:	66 2e 0f 1f 84 00 00 00 00 00 	cs nopw 0x0(%rax,%rax,1)
   1338a:	66 2e 0f 1f 84 00 00 00 00 00 	cs nopw 0x0(%rax,%rax,1)
   13394:	66 2e 0f 1f 84 00 00 00 00 00 	cs nopw 0x0(%rax,%rax,1)
   1339e:	66 2e 0f 1f 84 00 00 00 00 00 	cs nopw 0x0(%rax,%rax,1)
   133a8:	66 2e 0f 1f 84 00 00 00 00 00 	cs nopw 0x0(%rax,%rax,1)
   133b2:	66 2e 0f 1f 84 00 00 00 00 00 	cs nopw 0x0(%rax,%rax,1)
   133bc:	66 2e 0f 1f 84 00 00 00 00 00 	cs nopw 0x0(%rax,%rax,1)
   133c6:	66 2e 0f 1f 84 00 00 00 00 00 	cs nopw 0x0(%rax,%rax,1)
   133d0:	66 2e 0f 1f 84 00 00 00 00 00 	cs nopw 0x0(%rax,%rax,1)
   133da:	66 2e 0f 1f 84 00 00 00 00 00 	cs nopw 0x0(%rax,%rax,1)
   133e4:	66 2e 0f 1f 84 00 00 00 00 00 	cs nopw 0x0(%rax,%rax,1)
   133ee:	66 2e 0f 1f 84 00 00 00 00 00 	cs nopw 0x0(%rax,%rax,1)
   133f8:	66 2e 0f 1f 84 00 00 00 00 00 	cs nopw 0x0(%rax,%rax,1)
   13402:	66 2e 0f 1f 84 00 00 00 00 00 	cs nopw 0x0(%rax,%rax,1)
   1340c:	66 2e 0f 1f 84 00 00 00 00 00 	cs nopw 0x0(%rax,%rax,1)
   13416:	66 2e 0f 1f 84 00 00 00 00 00 	cs nopw 0x0(%rax,%rax,1)
   13420:	66 2e 0f 1f 84 00 00 00 00 00 	cs nopw 0x0(%rax,%rax,1)
   1342a:	66 2e 0f 1f 84 00 00 00 00 00 	cs nopw 0x0(%rax,%rax,1)
   13434:	66 2e 0f 1f 84 00 00 00 00 00 	cs nopw 0x0(%rax,%rax,1)
   1343e:	66 2e 0f 1f 84 00 00 00 00 00 	cs nopw 0x0(%rax,%rax,1)
   13448:	66 2e 0f 1f 84 00 00 00 00 00 	cs nopw 0x0(%rax,%rax,1)
   13452:	66 2e 0f 1f 84 00 00 00 00 00 	cs nopw 0x0(%rax,%rax,1)
   1345c:	66 2e 0f 1f 84 00 00 00 00 00 	cs nopw 0x0(%rax,%rax,1)
   13466:	66 2e 0f 1f 84 00 00 00 00 00 	cs nopw 0x0(%rax,%rax,1)
   13470:	66 2e 0f 1f 84 00 00 00 00 00 	cs nopw 0x0(%rax,%rax,1)
   1347a:	66 2e 0f 1f 84 00 00 00 00 00 	cs nopw 0x0(%rax,%rax,1)
   13484:	66 2e 0f 1f 84 00 00 00 00 00 	cs nopw 0x0(%rax,%rax,1)
   1348e:	66 2e 0f 1f 84 00 00 00 00 00 	cs nopw 0x0(%rax,%rax,1)
   13498:	66 2e 0f 1f 84 00 00 00 00 00 	cs nopw 0x0(%rax,%rax,1)
   134a2:	66 2e 0f 1f 84 00 00 00 00 00 	cs nopw 0x0(%rax,%rax,1)
   134ac:	66 2e 0f 1f 84 00 00 00 00 00 	cs nopw 0x0(%rax,%rax,1)
   134b6:	66 2e 0f 1f 84 00 00 00 00 00 	cs nopw 0x0(%rax,%rax,1)
   134c0:	66 2e 0f 1f 84 00 00 00 00 00 	cs nopw 0x0(%rax,%rax,1)
   134ca:	66 2e 0f 1f 84 00 00 00 00 00 	cs nopw 0x0(%rax,%rax,1)
   134d4:	66 2e 0f 1f 84 00 00 00 00 00 	cs nopw 0x0(%rax,%rax,1)
   134de:	66 2e 0f 1f 84 00 00 00 00 00 	cs nopw 0x0(%rax,%rax,1)
   134e8:	66 2e 0f 1f 84 00 00 00 00 00 	cs nopw 0x0(%rax,%rax,1)
   134f2:	66 2e 0f 1f 84 00 00 00 00 00 	cs nopw 0x0(%rax,%rax,1)
   134fc:	66 2e 0f 1f 84 00 00 00 00 00 	cs nopw 0x0(%rax,%rax,1)
   13506:	66 2e 0f 1f 84 00 00 00 00 00 	cs nopw 0x0(%rax,%rax,1)
   13510:	66 2e 0f 1f 84 00 00 00 00 00 	cs nopw 0x0(%rax,%rax,1)
   1351a:	66 2e 0f 1f 84 00 00 00 00 00 	cs nopw 0x0(%rax,%rax,1)
   13524:	66 2e 0f 1f 84 00 00 00 00 00 	cs nopw 0x0(%rax,%rax,1)
   1352e:	66 2e 0f 1f 84 00 00 00 00 00 	cs nopw 0x0(%rax,%rax,1)
   13538:	66 2e 0f 1f 84 00 00 00 00 00 	cs nopw 0x0(%rax,%rax,1)
   13542:	66 2e 0f 1f 84 00 00 00 00 00 	cs nopw 0x0(%rax,%rax,1)
   1354c:	66 2e 0f 1f 84 00 00 00 00 00 	cs nopw 0x0(%rax,%rax,1)
   13556:	66 2e 0f 1f 84 00 00 00 00 00 	cs nopw 0x0(%rax,%rax,1)
   13560:	66 2e 0f 1f 84 00 00 00 00 00 	cs nopw 0x0(%rax,%rax,1)
   1356a:	66 2e 0f 1f 84 00 00 00 00 00 	cs nopw 0x0(%rax,%rax,1)
   13574:	66 2e 0f 1f 84 00 00 00 00 00 	cs nopw 0x0(%rax,%rax,1)
   1357e:	66 2e 0f 1f 84 00 00 00 00 00 	cs nopw 0x0(%rax,%rax,1)
   13588:	66 2e 0f 1f 84 00 00 00 00 00 	cs nopw 0x0(%rax,%rax,1)
   13592:	66 2e 0f 1f 84 00 00 00 00 00 	cs nopw 0x0(%rax,%rax,1)
   1359c:	66 2e 0f 1f 84 00 00 00 00 00 	cs nopw 0x0(%rax,%rax,1)
   135a6:	66 2e 0f 1f 84 00 00 00 00 00 	cs nopw 0x0(%rax,%rax,1)
   135b0:	66 2e 0f 1f 84 00 00 00 00 00 	cs nopw 0x0(%rax,%rax,1)
   135ba:	66 2e 0f 1f 84 00 00 00 00 00 	cs nopw 0x0(%rax,%rax,1)
   135c4:	66 2e 0f 1f 84 00 00 00 00 00 	cs nopw 0x0(%rax,%rax,1)
   135ce:	66 2e 0f 1f 84 00 00 00 00 00 	cs nopw 0x0(%rax,%rax,1)
   135d8:	66 2e 0f 1f 84 00 00 00 00 00 	cs nopw 0x0(%rax,%rax,1)
   135e2:	66 2e 0f 1f 84 00 00 00 00 00 	cs nopw 0x0(%rax,%rax,1)
   135ec:	66 2e 0f 1f 84 00 00 00 00 00 	cs nopw 0x0(%rax,%rax,1)
   135f6:	66 2e 0f 1f 84 00 00 00 00 00 	cs nopw 0x0(%rax,%rax,1)
   13600:	66 2e 0f 1f 84 00 00 00 00 00 	cs nopw 0x0(%rax,%rax,1)
   1360a:	66 2e 0f 1f 84 00 00 00 00 00 	cs nopw 0x0(%rax,%rax,1)
   13614:	66 2e 0f 1f 84 00 00 00 00 00 	cs nopw 0x0(%rax,%rax,1)
   1361e:	66 2e 0f 1f 84 00 00 00 00 00 	cs nopw 0x0(%rax,%rax,1)
   13628:	66 2e 0f 1f 84 00 00 00 00 00 	cs nopw 0x0(%rax,%rax,1)
   13632:	66 2e 0f 1f 84 00 00 00 00 00 	cs nopw 0x0(%rax,%rax,1)
   1363c:	66 2e 0f 1f 84 00 00 00 00 00 	cs nopw 0x0(%rax,%rax,1)
   13646:	66 2e 0f 1f 84 00 00 00 00 00 	cs nopw 0x0(%rax,%rax,1)
   13650:	66 2e 0f 1f 84 00 00 00 00 00 	cs nopw 0x0(%rax,%rax,1)
   1365a:	66 2e 0f 1f 84 00 00 00 00 00 	cs nopw 0x0(%rax,%rax,1)
   13664:	66 2e 0f 1f 84 00 00 00 00 00 	cs nopw 0x0(%rax,%rax,1)
   1366e:	66 2e 0f 1f 84 00 00 00 00 00 	cs nopw 0x0(%rax,%rax,1)
   13678:	66 2e 0f 1f 84 00 00 00 00 00 	cs nopw 0x0(%rax,%rax,1)
   13682:	66 2e 0f 1f 84 00 00 00 00 00 	cs nopw 0x0(%rax,%rax,1)
   1368c:	66 2e 0f 1f 84 00 00 00 00 00 	cs nopw 0x0(%rax,%rax,1)
   13696:	66 2e 0f 1f 84 00 00 00 00 00 	cs nopw 0x0(%rax,%rax,1)
   136a0:	66 2e 0f 1f 84 00 00 00 00 00 	cs nopw 0x0(%rax,%rax,1)
   136aa:	66 2e 0f 1f 84 00 00 00 00 00 	cs nopw 0x0(%rax,%rax,1)
   136b4:	66 2e 0f 1f 84 00 00 00 00 00 	cs nopw 0x0(%rax,%rax,1)
   136be:	66 2e 0f 1f 84 00 00 00 00 00 	cs nopw 0x0(%rax,%rax,1)
   136c8:	66 2e 0f 1f 84 00 00 00 00 00 	cs nopw 0x0(%rax,%rax,1)
   136d2:	66 2e 0f 1f 84 00 00 00 00 00 	cs nopw 0x0(%rax,%rax,1)
   136dc:	66 2e 0f 1f 84 00 00 00 00 00 	cs nopw 0x0(%rax,%rax,1)
   136e6:	66 2e 0f 1f 84 00 00 00 00 00 	cs nopw 0x0(%rax,%rax,1)
   136f0:	66 2e 0f 1f 84 00 00 00 00 00 	cs nopw 0x0(%rax,%rax,1)
   136fa:	66 2e 0f 1f 84 00 00 00 00 00 	cs nopw 0x0(%rax,%rax,1)
   13704:	66 2e 0f 1f 84 00 00 00 00 00 	cs nopw 0x0(%rax,%rax,1)
   1370e:	66 2e 0f 1f 84 00 00 00 00 00 	cs nopw 0x0(%rax,%rax,1)
   13718:	66 2e 0f 1f 84 00 00 00 00 00 	cs nopw 0x0(%rax,%rax,1)
   13722:	66 2e 0f 1f 84 00 00 00 00 00 	cs nopw 0x0(%rax,%rax,1)
   1372c:	66 2e 0f 1f 84 00 00 00 00 00 	cs nopw 0x0(%rax,%rax,1)
   13736:	66 2e 0f 1f 84 00 00 00 00 00 	cs nopw 0x0(%rax,%rax,1)
   13740:	66 2e 0f 1f 84 00 00 00 00 00 	cs nopw 0x0(%rax,%rax,1)
   1374a:	66 2e 0f 1f 84 00 00 00 00 00 	cs nopw 0x0(%rax,%rax,1)
   13754:	66 2e 0f 1f 84 00 00 00 00 00 	cs nopw 0x0(%rax,%rax,1)
   1375e:	66 2e 0f 1f 84 00 00 00 00 00 	cs nopw 0x0(%rax,%rax,1)
   13768:	66 2e 0f 1f 84 00 00 00 00 00 	cs nopw 0x0(%rax,%rax,1)
   13772:	66 2e 0f 1f 84 00 00 00 00 00 	cs nopw 0x0(%rax,%rax,1)
   1377c:	66 2e 0f 1f 84 00 00 00 00 00 	cs nopw 0x0(%rax,%rax,1)
   13786:	66 2e 0f 1f 84 00 00 00 00 00 	cs nopw 0x0(%rax,%rax,1)
   13790:	66 2e 0f 1f 84 00 00 00 00 00 	cs nopw 0x0(%rax,%rax,1)
   1379a:	66 2e 0f 1f 84 00 00 00 00 00 	cs nopw 0x0(%rax,%rax,1)
   137a4:	66 2e 0f 1f 84 00 00 00 00 00 	cs nopw 0x0(%rax,%rax,1)
   137ae:	66 2e 0f 1f 84 00 00 00 00 00 	cs nopw 0x0(%rax,%rax,1)
   137b8:	66 2e 0f 1f 84 00 00 00 00 00 	cs nopw 0x0(%rax,%rax,1)
   137c2:	66 2e 0f 1f 84 00 00 00 00 00 	cs nopw 0x0(%rax,%rax,1)
   137cc:	66 2e 0f 1f 84 00 00 00 00 00 	cs nopw 0x0(%rax,%rax,1)
   137d6:	66 2e 0f 1f 84 00 00 00 00 00 	cs nopw 0x0(%rax,%rax,1)
   137e0:	66 2e 0f 1f 84 00 00 00 00 00 	cs nopw 0x0(%rax,%rax,1)
   137ea:	66 2e 0f 1f 84 00 00 00 00 00 	cs nopw 0x0(%rax,%rax,1)
   137f4:	66 2e 0f 1f 84 00 00 00 00 00 	cs nopw 0x0(%rax,%rax,1)
   137fe:	66 2e 0f 1f 84 00 00 00 00 00 	cs nopw 0x0(%rax,%rax,1)
   13808:	66 2e 0f 1f 84 00 00 00 00 00 	cs nopw 0x0(%rax,%rax,1)
   13812:	66 2e 0f 1f 84 00 00 00 00 00 	cs nopw 0x0(%rax,%rax,1)
   1381c:	66 2e 0f 1f 84 00 00 00 00 00 	cs nopw 0x0(%rax,%rax,1)
   13826:	66 2e 0f 1f 84 00 00 00 00 00 	cs nopw 0x0(%rax,%rax,1)
   13830:	66 2e 0f 1f 84 00 00 00 00 00 	cs nopw 0x0(%rax,%rax,1)
   1383a:	66 2e 0f 1f 84 00 00 00 00 00 	cs nopw 0x0(%rax,%rax,1)
   13844:	66 2e 0f 1f 84 00 00 00 00 00 	cs nopw 0x0(%rax,%rax,1)
   1384e:	66 2e 0f 1f 84 00 00 00 00 00 	cs nopw 0x0(%rax,%rax,1)
   13858:	66 2e 0f 1f 84 00 00 00 00 00 	cs nopw 0x0(%rax,%rax,1)
   13862:	66 2e 0f 1f 84 00 00 00 00 00 	cs nopw 0x0(%rax,%rax,1)
   1386c:	66 2e 0f 1f 84 00 00 00 00 00 	cs nopw 0x0(%rax,%rax,1)
   13876:	66 2e 0f 1f 84 00 00 00 00 00 	cs nopw 0x0(%rax,%rax,1)
   13880:	66 2e 0f 1f 84 00 00 00 00 00 	cs nopw 0x0(%rax,%rax,1)
   1388a:	66 2e 0f 1f 84 00 00 00 00 00 	cs nopw 0x0(%rax,%rax,1)
   13894:	66 2e 0f 1f 84 00 00 00 00 00 	cs nopw 0x0(%rax,%rax,1)
   1389e:	66 2e 0f 1f 84 00 00 00 00 00 	cs nopw 0x0(%rax,%rax,1)
   138a8:	66 2e 0f 1f 84 00 00 00 00 00 	cs nopw 0x0(%rax,%rax,1)
   138b2:	66 2e 0f 1f 84 00 00 00 00 00 	cs nopw 0x0(%rax,%rax,1)
   138bc:	66 2e 0f 1f 84 00 00 00 00 00 	cs nopw 0x0(%rax,%rax,1)
   138c6:	66 2e 0f 1f 84 00 00 00 00 00 	cs nopw 0x0(%rax,%rax,1)
   138d0:	66 2e 0f 1f 84 00 00 00 00 00 	cs nopw 0x0(%rax,%rax,1)
   138da:	66 2e 0f 1f 84 00 00 00 00 00 	cs nopw 0x0(%rax,%rax,1)
   138e4:	66 2e 0f 1f 84 00 00 00 00 00 	cs nopw 0x0(%rax,%rax,1)
   138ee:	66 2e 0f 1f 84 00 00 00 00 00 	cs nopw 0x0(%rax,%rax,1)
   138f8:	66 2e 0f 1f 84 00 00 00 00 00 	cs nopw 0x0(%rax,%rax,1)
   13902:	66 2e 0f 1f 84 00 00 00 00 00 	cs nopw 0x0(%rax,%rax,1)
   1390c:	66 2e 0f 1f 84 00 00 00 00 00 	cs nopw 0x0(%rax,%rax,1)
   13916:	66 2e 0f 1f 84 00 00 00 00 00 	cs nopw 0x0(%rax,%rax,1)
   13920:	66 2e 0f 1f 84 00 00 00 00 00 	cs nopw 0x0(%rax,%rax,1)
   1392a:	66 2e 0f 1f 84 00 00 00 00 00 	cs nopw 0x0(%rax,%rax,1)
   13934:	66 2e 0f 1f 84 00 00 00 00 00 	cs nopw 0x0(%rax,%rax,1)
   1393e:	66 2e 0f 1f 84 00 00 00 00 00 	cs nopw 0x0(%rax,%rax,1)
   13948:	66 2e 0f 1f 84 00 00 00 00 00 	cs nopw 0x0(%rax,%rax,1)
   13952:	66 2e 0f 1f 84 00 00 00 00 00 	cs nopw 0x0(%rax,%rax,1)
   1395c:	66 2e 0f 1f 84 00 00 00 00 00 	cs nopw 0x0(%rax,%rax,1)
   13966:	66 2e 0f 1f 84 00 00 00 00 00 	cs nopw 0x0(%rax,%rax,1)
   13970:	66 2e 0f 1f 84 00 00 00 00 00 	cs nopw 0x0(%rax,%rax,1)
   1397a:	66 2e 0f 1f 84 00 00 00 00 00 	cs nopw 0x0(%rax,%rax,1)
   13984:	66 2e 0f 1f 84 00 00 00 00 00 	cs nopw 0x0(%rax,%rax,1)
   1398e:	66 2e 0f 1f 84 00 00 00 00 00 	cs nopw 0x0(%rax,%rax,1)
   13998:	66 2e 0f 1f 84 00 00 00 00 00 	cs nopw 0x0(%rax,%rax,1)
   139a2:	66 2e 0f 1f 84 00 00 00 00 00 	cs nopw 0x0(%rax,%rax,1)
   139ac:	66 2e 0f 1f 84 00 00 00 00 00 	cs nopw 0x0(%rax,%rax,1)
   139b6:	66 2e 0f 1f 84 00 00 00 00 00 	cs nopw 0x0(%rax,%rax,1)
   139c0:	66 2e 0f 1f 84 00 00 00 00 00 	cs nopw 0x0(%rax,%rax,1)
   139ca:	66 2e 0f 1f 84 00 00 00 00 00 	cs nopw 0x0(%rax,%rax,1)
   139d4:	66 2e 0f 1f 84 00 00 00 00 00 	cs nopw 0x0(%rax,%rax,1)
   139de:	66 2e 0f 1f 84 00 00 00 00 00 	cs nopw 0x0(%rax,%rax,1)
   139e8:	66 2e 0f 1f 84 00 00 00 00 00 	cs nopw 0x0(%rax,%rax,1)
   139f2:	66 2e 0f 1f 84 00 00 00 00 00 	cs nopw 0x0(%rax,%rax,1)
   139fc:	66 2e 0f 1f 84 00 00 00 00 00 	cs nopw 0x0(%rax,%rax,1)
   13a06:	66 2e 0f 1f 84 00 00 00 00 00 	cs nopw 0x0(%rax,%rax,1)
   13a10:	66 2e 0f 1f 84 00 00 00 00 00 	cs nopw 0x0(%rax,%rax,1)
   13a1a:	66 2e 0f 1f 84 00 00 00 00 00 	cs nopw 0x0(%rax,%rax,1)
   13a24:	66 2e 0f 1f 84 00 00 00 00 00 	cs nopw 0x0(%rax,%rax,1)
   13a2e:	66 2e 0f 1f 84 00 00 00 00 00 	cs nopw 0x0(%rax,%rax,1)
   13a38:	66 2e 0f 1f 84 00 00 00 00 00 	cs nopw 0x0(%rax,%rax,1)
   13a42:	66 2e 0f 1f 84 00 00 00 00 00 	cs nopw 0x0(%rax,%rax,1)
   13a4c:	66 2e 0f 1f 84 00 00 00 00 00 	cs nopw 0x0(%rax,%rax,1)
   13a56:	66 2e 0f 1f 84 00 00 00 00 00 	cs nopw 0x0(%rax,%rax,1)
   13a60:	66 2e 0f 1f 84 00 00 00 00 00 	cs nopw 0x0(%rax,%rax,1)
   13a6a:	66 2e 0f 1f 84 00 00 00 00 00 	cs nopw 0x0(%rax,%rax,1)
   13a74:	66 2e 0f 1f 84 00 00 00 00 00 	cs nopw 0x0(%rax,%rax,1)
   13a7e:	66 2e 0f 1f 84 00 00 00 00 00 	cs nopw 0x0(%rax,%rax,1)
   13a88:	66 2e 0f 1f 84 00 00 00 00 00 	cs nopw 0x0(%rax,%rax,1)
   13a92:	66 2e 0f 1f 84 00 00 00 00 00 	cs nopw 0x0(%rax,%rax,1)
   13a9c:	66 2e 0f 1f 84 00 00 00 00 00 	cs nopw 0x0(%rax,%rax,1)
   13aa6:	66 2e 0f 1f 84 00 00 00 00 00 	cs nopw 0x0(%rax,%rax,1)
   13ab0:	66 2e 0f 1f 84 00 00 00 00 00 	cs nopw 0x0(%rax,%rax,1)
   13aba:	66 2e 0f 1f 84 00 00 00 00 00 	cs nopw 0x0(%rax,%rax,1)
   13ac4:	66 2e 0f 1f 84 00 00 00 00 00 	cs nopw 0x0(%rax,%rax,1)
   13ace:	66 2e 0f 1f 84 00 00 00 00 00 	cs nopw 0x0(%rax,%rax,1)
   13ad8:	66 2e 0f 1f 84 00 00 00 00 00 	cs nopw 0x0(%rax,%rax,1)
   13ae2:	66 2e 0f 1f 84 00 00 00 00 00 	cs nopw 0x0(%rax,%rax,1)
   13aec:	66 2e 0f 1f 84 00 00 00 00 00 	cs nopw 0x0(%rax,%rax,1)
   13af6:	66 2e 0f 1f 84 00 00 00 00 00 	cs nopw 0x0(%rax,%rax,1)
   13b00:	66 2e 0f 1f 84 00 00 00 00 00 	cs nopw 0x0(%rax,%rax,1)
   13b0a:	66 2e 0f 1f 84 00 00 00 00 00 	cs nopw 0x0(%rax,%rax,1)
   13b14:	66 2e 0f 1f 84 00 00 00 00 00 	cs nopw 0x0(%rax,%rax,1)
   13b1e:	66 2e 0f 1f 84 00 00 00 00 00 	cs nopw 0x0(%rax,%rax,1)
   13b28:	66 2e 0f 1f 84 00 00 00 00 00 	cs nopw 0x0(%rax,%rax,1)
   13b32:	66 2e 0f 1f 84 00 00 00 00 00 	cs nopw 0x0(%rax,%rax,1)
   13b3c:	66 2e 0f 1f 84 00 00 00 00 00 	cs nopw 0x0(%rax,%rax,1)
   13b46:	66 2e 0f 1f 84 00 00 00 00 00 	cs nopw 0x0(%rax,%rax,1)
   13b50:	66 2e 0f 1f 84 00 00 00 00 00 	cs nopw 0x0(%rax,%rax,1)
   13b5a:	66 2e 0f 1f 84 00 00 00 00 00 	cs nopw 0x0(%rax,%rax,1)
   13b64:	66 2e 0f 1f 84 00 00 00 00 00 	cs nopw 0x0(%rax,%rax,1)
   13b6e:	66 2e 0f 1f 84 00 00 00 00 00 	cs nopw 0x0(%rax,%rax,1)
   13b78:	66 2e 0f 1f 84 00 00 00 00 00 	cs nopw 0x0(%rax,%rax,1)
   13b82:	66 2e 0f 1f 84 00 00 00 00 00 	cs nopw 0x0(%rax,%rax,1)
   13b8c:	66 2e 0f 1f 84 00 00 00 00 00 	cs nopw 0x0(%rax,%rax,1)
   13b96:	66 2e 0f 1f 84 00 00 00 00 00 	cs nopw 0x0(%rax,%rax,1)
   13ba0:	66 2e 0f 1f 84 00 00 00 00 00 	cs nopw 0x0(%rax,%rax,1)
   13baa:	66 2e 0f 1f 84 00 00 00 00 00 	cs nopw 0x0(%rax,%rax,1)
   13bb4:	66 2e 0f 1f 84 00 00 00 00 00 	cs nopw 0x0(%rax,%rax,1)
   13bbe:	66 2e 0f 1f 84 00 00 00 00 00 	cs nopw 0x0(%rax,%rax,1)
   13bc8:	66 2e 0f 1f 84 00 00 00 00 00 	cs nopw 0x0(%rax,%rax,1)
   13bd2:	66 2e 0f 1f 84 00 00 00 00 00 	cs nopw 0x0(%rax,%rax,1)
   13bdc:	66 2e 0f 1f 84 00 00 00 00 00 	cs nopw 0x0(%rax,%rax,1)
   13be6:	66 2e 0f 1f 84 00 00 00 00 00 	cs nopw 0x0(%rax,%rax,1)
   13bf0:	66 2e 0f 1f 84 00 00 00 00 00 	cs nopw 0x0(%rax,%rax,1)
   13bfa:	66 2e 0f 1f 84 00 00 00 00 00 	cs nopw 0x0(%rax,%rax,1)
   13c04:	66 2e 0f 1f 84 00 00 00 00 00 	cs nopw 0x0(%rax,%rax,1)
   13c0e:	66 2e 0f 1f 84 00 00 00 00 00 	cs nopw 0x0(%rax,%rax,1)
   13c18:	66 2e 0f 1f 84 00 00 00 00 00 	cs nopw 0x0(%rax,%rax,1)
   13c22:	66 2e 0f 1f 84 00 00 00 00 00 	cs nopw 0x0(%rax,%rax,1)
   13c2c:	66 2e 0f 1f 84 00 00 00 00 00 	cs nopw 0x0(%rax,%rax,1)
   13c36:	66 2e 0f 1f 84 00 00 00 00 00 	cs nopw 0x0(%rax,%rax,1)
   13c40:	66 2e 0f 1f 84 00 00 00 00 00 	cs nopw 0x0(%rax,%rax,1)
   13c4a:	66 2e 0f 1f 84 00 00 00 00 00 	cs nopw 0x0(%rax,%rax,1)
   13c54:	66 2e 0f 1f 84 00 00 00 00 00 	cs nopw 0x0(%rax,%rax,1)
   13c5e:	66 2e 0f 1f 84 00 00 00 00 00 	cs nopw 0x0(%rax,%rax,1)
   13c68:	66 2e 0f 1f 84 00 00 00 00 00 	cs nopw 0x0(%rax,%rax,1)
   13c72:	66 2e 0f 1f 84 00 00 00 00 00 	cs nopw 0x0(%rax,%rax,1)
   13c7c:	66 2e 0f 1f 84 00 00 00 00 00 	cs nopw 0x0(%rax,%rax,1)
   13c86:	66 2e 0f 1f 84 00 00 00 00 00 	cs nopw 0x0(%rax,%rax,1)
   13c90:	66 2e 0f 1f 84 00 00 00 00 00 	cs nopw 0x0(%rax,%rax,1)
   13c9a:	66 2e 0f 1f 84 00 00 00 00 00 	cs nopw 0x0(%rax,%rax,1)
   13ca4:	66 2e 0f 1f 84 00 00 00 00 00 	cs nopw 0x0(%rax,%rax,1)
   13cae:	66 2e 0f 1f 84 00 00 00 00 00 	cs nopw 0x0(%rax,%rax,1)
   13cb8:	66 2e 0f 1f 84 00 00 00 00 00 	cs nopw 0x0(%rax,%rax,1)
   13cc2:	66 2e 0f 1f 84 00 00 00 00 00 	cs nopw 0x0(%rax,%rax,1)
   13ccc:	66 2e 0f 1f 84 00 00 00 00 00 	cs nopw 0x0(%rax,%rax,1)
   13cd6:	66 2e 0f 1f 84 00 00 00 00 00 	cs nopw 0x0(%rax,%rax,1)
   13ce0:	66 2e 0f 1f 84 00 00 00 00 00 	cs nopw 0x0(%rax,%rax,1)
   13cea:	66 2e 0f 1f 84 00 00 00 00 00 	cs nopw 0x0(%rax,%rax,1)
   13cf4:	66 2e 0f 1f 84 00 00 00 00 00 	cs nopw 0x0(%rax,%rax,1)
   13cfe:	66 2e 0f 1f 84 00 00 00 00 00 	cs nopw 0x0(%rax,%rax,1)
   13d08:	66 2e 0f 1f 84 00 00 00 00 00 	cs nopw 0x0(%rax,%rax,1)
   13d12:	66 2e 0f 1f 84 00 00 00 00 00 	cs nopw 0x0(%rax,%rax,1)
   13d1c:	66 2e 0f 1f 84 00 00 00 00 00 	cs nopw 0x0(%rax,%rax,1)
   13d26:	66 2e 0f 1f 84 00 00 00 00 00 	cs nopw 0x0(%rax,%rax,1)
   13d30:	66 2e 0f 1f 84 00 00 00 00 00 	cs nopw 0x0(%rax,%rax,1)
   13d3a:	66 2e 0f 1f 84 00 00 00 00 00 	cs nopw 0x0(%rax,%rax,1)
   13d44:	66 2e 0f 1f 84 00 00 00 00 00 	cs nopw 0x0(%rax,%rax,1)
   13d4e:	66 2e 0f 1f 84 00 00 00 00 00 	cs nopw 0x0(%rax,%rax,1)
   13d58:	66 2e 0f 1f 84 00 00 00 00 00 	cs nopw 0x0(%rax,%rax,1)
   13d62:	66 2e 0f 1f 84 00 00 00 00 00 	cs nopw 0x0(%rax,%rax,1)
   13d6c:	66 2e 0f 1f 84 00 00 00 00 00 	cs nopw 0x0(%rax,%rax,1)
   13d76:	66 2e 0f 1f 84 00 00 00 00 00 	cs nopw 0x0(%rax,%rax,1)
   13d80:	66 2e 0f 1f 84 00 00 00 00 00 	cs nopw 0x0(%rax,%rax,1)
   13d8a:	66 2e 0f 1f 84 00 00 00 00 00 	cs nopw 0x0(%rax,%rax,1)
   13d94:	66 2e 0f 1f 84 00 00 00 00 00 	cs nopw 0x0(%rax,%rax,1)
   13d9e:	66 2e 0f 1f 84 00 00 00 00 00 	cs nopw 0x0(%rax,%rax,1)
   13da8:	66 2e 0f 1f 84 00 00 00 00 00 	cs nopw 0x0(%rax,%rax,1)
   13db2:	66 2e 0f 1f 84 00 00 00 00 00 	cs nopw 0x0(%rax,%rax,1)
   13dbc:	66 2e 0f 1f 84 00 00 00 00 00 	cs nopw 0x0(%rax,%rax,1)
   13dc6:	66 2e 0f 1f 84 00 00 00 00 00 	cs nopw 0x0(%rax,%rax,1)
   13dd0:	66 2e 0f 1f 84 00 00 00 00 00 	cs nopw 0x0(%rax,%rax,1)
   13dda:	66 2e 0f 1f 84 00 00 00 00 00 	cs nopw 0x0(%rax,%rax,1)
   13de4:	66 2e 0f 1f 84 00 00 00 00 00 	cs nopw 0x0(%rax,%rax,1)
   13dee:	66 2e 0f 1f 84 00 00 00 00 00 	cs nopw 0x0(%rax,%rax,1)
   13df8:	66 2e 0f 1f 84 00 00 00 00 00 	cs nopw 0x0(%rax,%rax,1)
   13e02:	66 2e 0f 1f 84 00 00 00 00 00 	cs nopw 0x0(%rax,%rax,1)
   13e0c:	66 2e 0f 1f 84 00 00 00 00 00 	cs nopw 0x0(%rax,%rax,1)
   13e16:	66 2e 0f 1f 84 00 00 00 00 00 	cs nopw 0x0(%rax,%rax,1)
   13e20:	66 2e 0f 1f 84 00 00 00 00 00 	cs nopw 0x0(%rax,%rax,1)
   13e2a:	66 2e 0f 1f 84 00 00 00 00 00 	cs nopw 0x0(%rax,%rax,1)
   13e34:	66 2e 0f 1f 84 00 00 00 00 00 	cs nopw 0x0(%rax,%rax,1)
   13e3e:	66 2e 0f 1f 84 00 00 00 00 00 	cs nopw 0x0(%rax,%rax,1)
   13e48:	66 2e 0f 1f 84 00 00 00 00 00 	cs nopw 0x0(%rax,%rax,1)
   13e52:	66 2e 0f 1f 84 00 00 00 00 00 	cs nopw 0x0(%rax,%rax,1)
   13e5c:	66 2e 0f 1f 84 00 00 00 00 00 	cs nopw 0x0(%rax,%rax,1)
   13e66:	66 2e 0f 1f 84 00 00 00 00 00 	cs nopw 0x0(%rax,%rax,1)
   13e70:	66 2e 0f 1f 84 00 00 00 00 00 	cs nopw 0x0(%rax,%rax,1)
   13e7a:	66 2e 0f 1f 84 00 00 00 00 00 	cs nopw 0x0(%rax,%rax,1)
   13e84:	66 2e 0f 1f 84 00 00 00 00 00 	cs nopw 0x0(%rax,%rax,1)
   13e8e:	66 2e 0f 1f 84 00 00 00 00 00 	cs nopw 0x0(%rax,%rax,1)
   13e98:	66 2e 0f 1f 84 00 00 00 00 00 	cs nopw 0x0(%rax,%rax,1)
   13ea2:	66 2e 0f 1f 84 00 00 00 00 00 	cs nopw 0x0(%rax,%rax,1)
   13eac:	66 2e 0f 1f 84 00 00 00 00 00 	cs nopw 0x0(%rax,%rax,1)
   13eb6:	66 2e 0f 1f 84 00 00 00 00 00 	cs nopw 0x0(%rax,%rax,1)
   13ec0:	66 2e 0f 1f 84 00 00 00 00 00 	cs nopw 0x0(%rax,%rax,1)
   13eca:	66 2e 0f 1f 84 00 00 00 00 00 	cs nopw 0x0(%rax,%rax,1)
   13ed4:	66 2e 0f 1f 84 00 00 00 00 00 	cs nopw 0x0(%rax,%rax,1)
   13ede:	66 2e 0f 1f 84 00 00 00 00 00 	cs nopw 0x0(%rax,%rax,1)
   13ee8:	66 2e 0f 1f 84 00 00 00 00 00 	cs nopw 0x0(%rax,%rax,1)
   13ef2:	66 2e 0f 1f 84 00 00 00 00 00 	cs nopw 0x0(%rax,%rax,1)
   13efc:	66 2e 0f 1f 84 00 00 00 00 00 	cs nopw 0x0(%rax,%rax,1)
   13f06:	66 2e 0f 1f 84 00 00 00 00 00 	cs nopw 0x0(%rax,%rax,1)
   13f10:	66 2e 0f 1f 84 00 00 00 00 00 	cs nopw 0x0(%rax,%rax,1)
   13f1a:	66 2e 0f 1f 84 00 00 00 00 00 	cs nopw 0x0(%rax,%rax,1)
   13f24:	66 2e 0f 1f 84 00 00 00 00 00 	cs nopw 0x0(%rax,%rax,1)
   13f2e:	66 2e 0f 1f 84 00 00 00 00 00 	cs nopw 0x0(%rax,%rax,1)
   13f38:	66 2e 0f 1f 84 00 00 00 00 00 	cs nopw 0x0(%rax,%rax,1)
   13f42:	66 2e 0f 1f 84 00 00 00 00 00 	cs nopw 0x0(%rax,%rax,1)
   13f4c:	66 2e 0f 1f 84 00 00 00 00 00 	cs nopw 0x0(%rax,%rax,1)
   13f56:	66 2e 0f 1f 84 00 00 00 00 00 	cs nopw 0x0(%rax,%rax,1)
   13f60:	66 2e 0f 1f 84 00 00 00 00 00 	cs nopw 0x0(%rax,%rax,1)
   13f6a:	66 2e 0f 1f 84 00 00 00 00 00 	cs nopw 0x0(%rax,%rax,1)
   13f74:	66 2e 0f 1f 84 00 00 00 00 00 	cs nopw 0x0(%rax,%rax,1)
   13f7e:	66 2e 0f 1f 84 00 00 00 00 00 	cs nopw 0x0(%rax,%rax,1)
   13f88:	66 2e 0f 1f 84 00 00 00 00 00 	cs nopw 0x0(%rax,%rax,1)
   13f92:	66 2e 0f 1f 84 00 00 00 00 00 	cs nopw 0x0(%rax,%rax,1)
   13f9c:	66 2e 0f 1f 84 00 00 00 00 00 	cs nopw 0x0(%rax,%rax,1)
   13fa6:	66 2e 0f 1f 84 00 00 00 00 00 	cs nopw 0x0(%rax,%rax,1)
   13fb0:	66 2e 0f 1f 84 00 00 00 00 00 	cs nopw 0x0(%rax,%rax,1)
   13fba:	66 2e 0f 1f 84 00 00 00 00 00 	cs nopw 0x0(%rax,%rax,1)
   13fc4:	66 2e 0f 1f 84 00 00 00 00 00 	cs nopw 0x0(%rax,%rax,1)
   13fce:	66 2e 0f 1f 84 00 00 00 00 00 	cs nopw 0x0(%rax,%rax,1)
   13fd8:	66 2e 0f 1f 84 00 00 00 00 00 	cs nopw 0x0(%rax,%rax,1)
   13fe2:	66 2e 0f 1f 84 00 00 00 00 00 	cs nopw 0x0(%rax,%rax,1)
   13fec:	66 2e 0f 1f 84 00 00 00 00 00 	cs nopw 0x0(%rax,%rax,1)
   13ff6:	66 2e 0f 1f 84 00 00 00 00 00 	cs nopw 0x0(%rax,%rax,1)
   14000:	66 2e 0f 1f 84 00 00 00 00 00 	cs nopw 0x0(%rax,%rax,1)
   1400a:	66 2e 0f 1f 84 00 00 00 00 00 	cs nopw 0x0(%rax,%rax,1)
   14014:	66 2e 0f 1f 84 00 00 00 00 00 	cs nopw 0x0(%rax,%rax,1)
   1401e:	66 2e 0f 1f 84 00 00 00 00 00 	cs nopw 0x0(%rax,%rax,1)
   14028:	66 2e 0f 1f 84 00 00 00 00 00 	cs nopw 0x0(%rax,%rax,1)
   14032:	66 2e 0f 1f 84 00 00 00 00 00 	cs nopw 0x0(%rax,%rax,1)
   1403c:	66 2e 0f 1f 84 00 00 00 00 00 	cs nopw 0x0(%rax,%rax,1)
   14046:	66 2e 0f 1f 84 00 00 00 00 00 	cs nopw 0x0(%rax,%rax,1)
   14050:	66 2e 0f 1f 84 00 00 00 00 00 	cs nopw 0x0(%rax,%rax,1)
   1405a:	66 2e 0f 1f 84 00 00 00 00 00 	cs nopw 0x0(%rax,%rax,1)
   14064:	66 2e 0f 1f 84 00 00 00 00 00 	cs nopw 0x0(%rax,%rax,1)
   1406e:	66 2e 0f 1f 84 00 00 00 00 00 	cs nopw 0x0(%rax,%rax,1)
   14078:	66 2e 0f 1f 84 00 00 00 00 00 	cs nopw 0x0(%rax,%rax,1)
   14082:	66 2e 0f 1f 84 00 00 00 00 00 	cs nopw 0x0(%rax,%rax,1)
   1408c:	66 2e 0f 1f 84 00 00 00 00 00 	cs nopw 0x0(%rax,%rax,1)
   14096:	66 2e 0f 1f 84 00 00 00 00 00 	cs nopw 0x0(%rax,%rax,1)
   140a0:	66 2e 0f 1f 84 00 00 00 00 00 	cs nopw 0x0(%rax,%rax,1)
   140aa:	66 2e 0f 1f 84 00 00 00 00 00 	cs nopw 0x0(%rax,%rax,1)
   140b4:	66 2e 0f 1f 84 00 00 00 00 00 	cs nopw 0x0(%rax,%rax,1)
   140be:	66 2e 0f 1f 84 00 00 00 00 00 	cs nopw 0x0(%rax,%rax,1)
   140c8:	66 2e 0f 1f 84 00 00 00 00 00 	cs nopw 0x0(%rax,%rax,1)
   140d2:	66 2e 0f 1f 84 00 00 00 00 00 	cs nopw 0x0(%rax,%rax,1)
   140dc:	66 2e 0f 1f 84 00 00 00 00 00 	cs nopw 0x0(%rax,%rax,1)
   140e6:	66 2e 0f 1f 84 00 00 00 00 00 	cs nopw 0x0(%rax,%rax,1)
   140f0:	66 2e 0f 1f 84 00 00 00 00 00 	cs nopw 0x0(%rax,%rax,1)
   140fa:	66 2e 0f 1f 84 00 00 00 00 00 	cs nopw 0x0(%rax,%rax,1)
   14104:	66 2e 0f 1f 84 00 00 00 00 00 	cs nopw 0x0(%rax,%rax,1)
   1410e:	66 2e 0f 1f 84 00 00 00 00 00 	cs nopw 0x0(%rax,%rax,1)
   14118:	66 2e 0f 1f 84 00 00 00 00 00 	cs nopw 0x0(%rax,%rax,1)
   14122:	66 2e 0f 1f 84 00 00 00 00 00 	cs nopw 0x0(%rax,%rax,1)
   1412c:	66 2e 0f 1f 84 00 00 00 00 00 	cs nopw 0x0(%rax,%rax,1)
   14136:	66 2e 0f 1f 84 00 00 00 00 00 	cs nopw 0x0(%rax,%rax,1)
   14140:	66 2e 0f 1f 84 00 00 00 00 00 	cs nopw 0x0(%rax,%rax,1)
   1414a:	66 2e 0f 1f 84 00 00 00 00 00 	cs nopw 0x0(%rax,%rax,1)
   14154:	66 2e 0f 1f 84 00 00 00 00 00 	cs nopw 0x0(%rax,%rax,1)
   1415e:	66 2e 0f 1f 84 00 00 00 00 00 	cs nopw 0x0(%rax,%rax,1)
   14168:	66 2e 0f 1f 84 00 00 00 00 00 	cs nopw 0x0(%rax,%rax,1)
   14172:	66 2e 0f 1f 84 00 00 00 00 00 	cs nopw 0x0(%rax,%rax,1)
   1417c:	66 2e 0f 1f 84 00 00 00 00 00 	cs nopw 0x0(%rax,%rax,1)
   14186:	66 2e 0f 1f 84 00 00 00 00 00 	cs nopw 0x0(%rax,%rax,1)
   14190:	66 2e 0f 1f 84 00 00 00 00 00 	cs nopw 0x0(%rax,%rax,1)
   1419a:	66 2e 0f 1f 84 00 00 00 00 00 	cs nopw 0x0(%rax,%rax,1)
   141a4:	66 2e 0f 1f 84 00 00 00 00 00 	cs nopw 0x0(%rax,%rax,1)
   141ae:	66 2e 0f 1f 84 00 00 00 00 00 	cs nopw 0x0(%rax,%rax,1)
   141b8:	66 2e 0f 1f 84 00 00 00 00 00 	cs nopw 0x0(%rax,%rax,1)
   141c2:	66 2e 0f 1f 84 00 00 00 00 00 	cs nopw 0x0(%rax,%rax,1)
   141cc:	66 2e 0f 1f 84 00 00 00 00 00 	cs nopw 0x0(%rax,%rax,1)
   141d6:	66 2e 0f 1f 84 00 00 00 00 00 	cs nopw 0x0(%rax,%rax,1)
   141e0:	66 2e 0f 1f 84 00 00 00 00 00 	cs nopw 0x0(%rax,%rax,1)
   141ea:	66 2e 0f 1f 84 00 00 00 00 00 	cs nopw 0x0(%rax,%rax,1)
   141f4:	66 2e 0f 1f 84 00 00 00 00 00 	cs nopw 0x0(%rax,%rax,1)
   141fe:	66 2e 0f 1f 84 00 00 00 00 00 	cs nopw 0x0(%rax,%rax,1)
   14208:	66 2e 0f 1f 84 00 00 00 00 00 	cs nopw 0x0(%rax,%rax,1)
   14212:	66 2e 0f 1f 84 00 00 00 00 00 	cs nopw 0x0(%rax,%rax,1)
   1421c:	66 2e 0f 1f 84 00 00 00 00 00 	cs nopw 0x0(%rax,%rax,1)
   14226:	66 2e 0f 1f 84 00 00 00 00 00 	cs nopw 0x0(%rax,%rax,1)
   14230:	66 2e 0f 1f 84 00 00 00 00 00 	cs nopw 0x0(%rax,%rax,1)
   1423a:	66 2e 0f 1f 84 00 00 00 00 00 	cs nopw 0x0(%rax,%rax,1)
   14244:	66 2e 0f 1f 84 00 00 00 00 00 	cs nopw 0x0(%rax,%rax,1)
   1424e:	66 2e 0f 1f 84 00 00 00 00 00 	cs nopw 0x0(%rax,%rax,1)
   14258:	66 2e 0f 1f 84 00 00 00 00 00 	cs nopw 0x0(%rax,%rax,1)
   14262:	66 2e 0f 1f 84 00 00 00 00 00 	cs nopw 0x0(%rax,%rax,1)
   1426c:	66 2e 0f 1f 84 00 00 00 00 00 	cs nopw 0x0(%rax,%rax,1)
   14276:	66 2e 0f 1f 84 00 00 00 00 00 	cs nopw 0x0(%rax,%rax,1)
   14280:	66 2e 0f 1f 84 00 00 00 00 00 	cs nopw 0x0(%rax,%rax,1)
   1428a:	66 2e 0f 1f 84 00 00 00 00 00 	cs nopw 0x0(%rax,%rax,1)
   14294:	66 2e 0f 1f 84 00 00 00 00 00 	cs nopw 0x0(%rax,%rax,1)
   1429e:	66 2e 0f 1f 84 00 00 00 00 00 	cs nopw 0x0(%rax,%rax,1)
   142a8:	66 2e 0f 1f 84 00 00 00 00 00 	cs nopw 0x0(%rax,%rax,1)
   142b2:	66 2e 0f 1f 84 00 00 00 00 00 	cs nopw 0x0(%rax,%rax,1)
   142bc:	66 2e 0f 1f 84 00 00 00 00 00 	cs nopw 0x0(%rax,%rax,1)
   142c6:	66 2e 0f 1f 84 00 00 00 00 00 	cs nopw 0x0(%rax,%rax,1)
   142d0:	66 2e 0f 1f 84 00 00 00 00 00 	cs nopw 0x0(%rax,%rax,1)
   142da:	66 2e 0f 1f 84 00 00 00 00 00 	cs nopw 0x0(%rax,%rax,1)
   142e4:	66 2e 0f 1f 84 00 00 00 00 00 	cs nopw 0x0(%rax,%rax,1)
   142ee:	66 2e 0f 1f 84 00 00 00 00 00 	cs nopw 0x0(%rax,%rax,1)
   142f8:	66 2e 0f 1f 84 00 00 00 00 00 	cs nopw 0x0(%rax,%rax,1)
   14302:	66 2e 0f 1f 84 00 00 00 00 00 	cs nopw 0x0(%rax,%rax,1)
   1430c:	66 2e 0f 1f 84 00 00 00 00 00 	cs nopw 0x0(%rax,%rax,1)
   14316:	66 2e 0f 1f 84 00 00 00 00 00 	cs nopw 0x0(%rax,%rax,1)
   14320:	66 2e 0f 1f 84 00 00 00 00 00 	cs nopw 0x0(%rax,%rax,1)
   1432a:	66 2e 0f 1f 84 00 00 00 00 00 	cs nopw 0x0(%rax,%rax,1)
   14334:	66 2e 0f 1f 84 00 00 00 00 00 	cs nopw 0x0(%rax,%rax,1)
   1433e:	66 2e 0f 1f 84 00 00 00 00 00 	cs nopw 0x0(%rax,%rax,1)
   14348:	66 2e 0f 1f 84 00 00 00 00 00 	cs nopw 0x0(%rax,%rax,1)
   14352:	66 2e 0f 1f 84 00 00 00 00 00 	cs nopw 0x0(%rax,%rax,1)
   1435c:	66 2e 0f 1f 84 00 00 00 00 00 	cs nopw 0x0(%rax,%rax,1)
   14366:	66 2e 0f 1f 84 00 00 00 00 00 	cs nopw 0x0(%rax,%rax,1)
   14370:	66 2e 0f 1f 84 00 00 00 00 00 	cs nopw 0x0(%rax,%rax,1)
   1437a:	66 2e 0f 1f 84 00 00 00 00 00 	cs nopw 0x0(%rax,%rax,1)
   14384:	66 2e 0f 1f 84 00 00 00 00 00 	cs nopw 0x0(%rax,%rax,1)
   1438e:	66 2e 0f 1f 84 00 00 00 00 00 	cs nopw 0x0(%rax,%rax,1)
   14398:	66 2e 0f 1f 84 00 00 00 00 00 	cs nopw 0x0(%rax,%rax,1)
   143a2:	66 2e 0f 1f 84 00 00 00 00 00 	cs nopw 0x0(%rax,%rax,1)
   143ac:	66 2e 0f 1f 84 00 00 00 00 00 	cs nopw 0x0(%rax,%rax,1)
   143b6:	66 2e 0f 1f 84 00 00 00 00 00 	cs nopw 0x0(%rax,%rax,1)
   143c0:	66 2e 0f 1f 84 00 00 00 00 00 	cs nopw 0x0(%rax,%rax,1)
   143ca:	66 2e 0f 1f 84 00 00 00 00 00 	cs nopw 0x0(%rax,%rax,1)
   143d4:	66 2e 0f 1f 84 00 00 00 00 00 	cs nopw 0x0(%rax,%rax,1)
   143de:	66 2e 0f 1f 84 00 00 00 00 00 	cs nopw 0x0(%rax,%rax,1)
   143e8:	66 2e 0f 1f 84 00 00 00 00 00 	cs nopw 0x0(%rax,%rax,1)
   143f2:	66 2e 0f 1f 84 00 00 00 00 00 	cs nopw 0x0(%rax,%rax,1)
   143fc:	66 2e 0f 1f 84 00 00 00 00 00 	cs nopw 0x0(%rax,%rax,1)
   14406:	66 2e 0f 1f 84 00 00 00 00 00 	cs nopw 0x0(%rax,%rax,1)
   14410:	66 2e 0f 1f 84 00 00 00 00 00 	cs nopw 0x0(%rax,%rax,1)
   1441a:	66 2e 0f 1f 84 00 00 00 00 00 	cs nopw 0x0(%rax,%rax,1)
   14424:	66 2e 0f 1f 84 00 00 00 00 00 	cs nopw 0x0(%rax,%rax,1)
   1442e:	66 2e 0f 1f 84 00 00 00 00 00 	cs nopw 0x0(%rax,%rax,1)
   14438:	66 2e 0f 1f 84 00 00 00 00 00 	cs nopw 0x0(%rax,%rax,1)
   14442:	66 2e 0f 1f 84 00 00 00 00 00 	cs nopw 0x0(%rax,%rax,1)
   1444c:	66 2e 0f 1f 84 00 00 00 00 00 	cs nopw 0x0(%rax,%rax,1)
   14456:	66 2e 0f 1f 84 00 00 00 00 00 	cs nopw 0x0(%rax,%rax,1)
   14460:	66 2e 0f 1f 84 00 00 00 00 00 	cs nopw 0x0(%rax,%rax,1)
   1446a:	66 2e 0f 1f 84 00 00 00 00 00 	cs nopw 0x0(%rax,%rax,1)
   14474:	66 2e 0f 1f 84 00 00 00 00 00 	cs nopw 0x0(%rax,%rax,1)
   1447e:	66 2e 0f 1f 84 00 00 00 00 00 	cs nopw 0x0(%rax,%rax,1)
   14488:	66 2e 0f 1f 84 00 00 00 00 00 	cs nopw 0x0(%rax,%rax,1)
   14492:	66 2e 0f 1f 84 00 00 00 00 00 	cs nopw 0x0(%rax,%rax,1)
   1449c:	66 2e 0f 1f 84 00 00 00 00 00 	cs nopw 0x0(%rax,%rax,1)
   144a6:	66 2e 0f 1f 84 00 00 00 00 00 	cs nopw 0x0(%rax,%rax,1)
   144b0:	66 2e 0f 1f 84 00 00 00 00 00 	cs nopw 0x0(%rax,%rax,1)
   144ba:	66 2e 0f 1f 84 00 00 00 00 00 	cs nopw 0x0(%rax,%rax,1)
   144c4:	66 2e 0f 1f 84 00 00 00 00 00 	cs nopw 0x0(%rax,%rax,1)
   144ce:	66 2e 0f 1f 84 00 00 00 00 00 	cs nopw 0x0(%rax,%rax,1)
   144d8:	66 2e 0f 1f 84 00 00 00 00 00 	cs nopw 0x0(%rax,%rax,1)
   144e2:	66 2e 0f 1f 84 00 00 00 00 00 	cs nopw 0x0(%rax,%rax,1)
   144ec:	66 2e 0f 1f 84 00 00 00 00 00 	cs nopw 0x0(%rax,%rax,1)
   144f6:	66 2e 0f 1f 84 00 00 00 00 00 	cs nopw 0x0(%rax,%rax,1)
   14500:	66 2e 0f 1f 84 00 00 00 00 00 	cs nopw 0x0(%rax,%rax,1)
   1450a:	66 2e 0f 1f 84 00 00 00 00 00 	cs nopw 0x0(%rax,%rax,1)
   14514:	66 2e 0f 1f 84 00 00 00 00 00 	cs nopw 0x0(%rax,%rax,1)
   1451e:	66 2e 0f 1f 84 00 00 00 00 00 	cs nopw 0x0(%rax,%rax,1)
   14528:	66 2e 0f 1f 84 00 00 00 00 00 	cs nopw 0x0(%rax,%rax,1)
   14532:	66 2e 0f 1f 84 00 00 00 00 00 	cs nopw 0x0(%rax,%rax,1)
   1453c:	66 2e 0f 1f 84 00 00 00 00 00 	cs nopw 0x0(%rax,%rax,1)
   14546:	66 2e 0f 1f 84 00 00 00 00 00 	cs nopw 0x0(%rax,%rax,1)
   14550:	66 2e 0f 1f 84 00 00 00 00 00 	cs nopw 0x0(%rax,%rax,1)
   1455a:	66 2e 0f 1f 84 00 00 00 00 00 	cs nopw 0x0(%rax,%rax,1)
   14564:	66 2e 0f 1f 84 00 00 00 00 00 	cs nopw 0x0(%rax,%rax,1)
   1456e:	66 2e 0f 1f 84 00 00 00 00 00 	cs nopw 0x0(%rax,%rax,1)
   14578:	66 2e 0f 1f 84 00 00 00 00 00 	cs nopw 0x0(%rax,%rax,1)
   14582:	66 2e 0f 1f 84 00 00 00 00 00 	cs nopw 0x0(%rax,%rax,1)
   1458c:	66 2e 0f 1f 84 00 00 00 00 00 	cs nopw 0x0(%rax,%rax,1)
   14596:	66 2e 0f 1f 84 00 00 00 00 00 	cs nopw 0x0(%rax,%rax,1)
   145a0:	66 2e 0f 1f 84 00 00 00 00 00 	cs nopw 0x0(%rax,%rax,1)
   145aa:	66 2e 0f 1f 84 00 00 00 00 00 	cs nopw 0x0(%rax,%rax,1)
   145b4:	66 2e 0f 1f 84 00 00 00 00 00 	cs nopw 0x0(%rax,%rax,1)
   145be:	66 2e 0f 1f 84 00 00 00 00 00 	cs nopw 0x0(%rax,%rax,1)
   145c8:	66 2e 0f 1f 84 00 00 00 00 00 	cs nopw 0x0(%rax,%rax,1)
   145d2:	66 2e 0f 1f 84 00 00 00 00 00 	cs nopw 0x0(%rax,%rax,1)
   145dc:	66 2e 0f 1f 84 00 00 00 00 00 	cs nopw 0x0(%rax,%rax,1)
   145e6:	66 2e 0f 1f 84 00 00 00 00 00 	cs nopw 0x0(%rax,%rax,1)
   145f0:	66 2e 0f 1f 84 00 00 00 00 00 	cs nopw 0x0(%rax,%rax,1)
   145fa:	66 2e 0f 1f 84 00 00 00 00 00 	cs nopw 0x0(%rax,%rax,1)
   14604:	66 2e 0f 1f 84 00 00 00 00 00 	cs nopw 0x0(%rax,%rax,1)
   1460e:	66 2e 0f 1f 84 00 00 00 00 00 	cs nopw 0x0(%rax,%rax,1)
   14618:	66 2e 0f 1f 84 00 00 00 00 00 	cs nopw 0x0(%rax,%rax,1)
   14622:	66 2e 0f 1f 84 00 00 00 00 00 	cs nopw 0x0(%rax,%rax,1)
   1462c:	66 2e 0f 1f 84 00 00 00 00 00 	cs nopw 0x0(%rax,%rax,1)
   14636:	66 2e 0f 1f 84 00 00 00 00 00 	cs nopw 0x0(%rax,%rax,1)
   14640:	66 2e 0f 1f 84 00 00 00 00 00 	cs nopw 0x0(%rax,%rax,1)
   1464a:	66 2e 0f 1f 84 00 00 00 00 00 	cs nopw 0x0(%rax,%rax,1)
   14654:	66 2e 0f 1f 84 00 00 00 00 00 	cs nopw 0x0(%rax,%rax,1)
   1465e:	66 2e 0f 1f 84 00 00 00 00 00 	cs nopw 0x0(%rax,%rax,1)
   14668:	66 2e 0f 1f 84 00 00 00 00 00 	cs nopw 0x0(%rax,%rax,1)
   14672:	66 2e 0f 1f 84 00 00 00 00 00 	cs nopw 0x0(%rax,%rax,1)
   1467c:	66 2e 0f 1f 84 00 00 00 00 00 	cs nopw 0x0(%rax,%rax,1)
   14686:	66 2e 0f 1f 84 00 00 00 00 00 	cs nopw 0x0(%rax,%rax,1)
   14690:	66 2e 0f 1f 84 00 00 00 00 00 	cs nopw 0x0(%rax,%rax,1)
   1469a:	66 2e 0f 1f 84 00 00 00 00 00 	cs nopw 0x0(%rax,%rax,1)
   146a4:	66 2e 0f 1f 84 00 00 00 00 00 	cs nopw 0x0(%rax,%rax,1)
   146ae:	66 2e 0f 1f 84 00 00 00 00 00 	cs nopw 0x0(%rax,%rax,1)
   146b8:	66 2e 0f 1f 84 00 00 00 00 00 	cs nopw 0x0(%rax,%rax,1)
   146c2:	66 2e 0f 1f 84 00 00 00 00 00 	cs nopw 0x0(%rax,%rax,1)
   146cc:	66 2e 0f 1f 84 00 00 00 00 00 	cs nopw 0x0(%rax,%rax,1)
   146d6:	66 2e 0f 1f 84 00 00 00 00 00 	cs nopw 0x0(%rax,%rax,1)
   146e0:	66 2e 0f 1f 84 00 00 00 00 00 	cs nopw 0x0(%rax,%rax,1)
   146ea:	66 2e 0f 1f 84 00 00 00 00 00 	cs nopw 0x0(%rax,%rax,1)
   146f4:	66 2e 0f 1f 84 00 00 00 00 00 	cs nopw 0x0(%rax,%rax,1)
   146fe:	66 2e 0f 1f 84 00 00 00 00 00 	cs nopw 0x0(%rax,%rax,1)
   14708:	66 2e 0f 1f 84 00 00 00 00 00 	cs nopw 0x0(%rax,%rax,1)
   14712:	66 2e 0f 1f 84 00 00 00 00 00 	cs nopw 0x0(%rax,%rax,1)
   1471c:	66 2e 0f 1f 84 00 00 00 00 00 	cs nopw 0x0(%rax,%rax,1)
   14726:	66 2e 0f 1f 84 00 00 00 00 00 	cs nopw 0x0(%rax,%rax,1)
   14730:	66 2e 0f 1f 84 00 00 00 00 00 	cs nopw 0x0(%rax,%rax,1)
   1473a:	66 2e 0f 1f 84 00 00 00 00 00 	cs nopw 0x0(%rax,%rax,1)
   14744:	66 2e 0f 1f 84 00 00 00 00 00 	cs nopw 0x0(%rax,%rax,1)
   1474e:	66 2e 0f 1f 84 00 00 00 00 00 	cs nopw 0x0(%rax,%rax,1)
   14758:	66 2e 0f 1f 84 00 00 00 00 00 	cs nopw 0x0(%rax,%rax,1)
   14762:	66 2e 0f 1f 84 00 00 00 00 00 	cs nopw 0x0(%rax,%rax,1)
   1476c:	66 2e 0f 1f 84 00 00 00 00 00 	cs nopw 0x0(%rax,%rax,1)
   14776:	66 2e 0f 1f 84 00 00 00 00 00 	cs nopw 0x0(%rax,%rax,1)
   14780:	66 2e 0f 1f 84 00 00 00 00 00 	cs nopw 0x0(%rax,%rax,1)
   1478a:	66 2e 0f 1f 84 00 00 00 00 00 	cs nopw 0x0(%rax,%rax,1)
   14794:	66 2e 0f 1f 84 00 00 00 00 00 	cs nopw 0x0(%rax,%rax,1)
   1479e:	66 2e 0f 1f 84 00 00 00 00 00 	cs nopw 0x0(%rax,%rax,1)
   147a8:	66 2e 0f 1f 84 00 00 00 00 00 	cs nopw 0x0(%rax,%rax,1)
   147b2:	66 2e 0f 1f 84 00 00 00 00 00 	cs nopw 0x0(%rax,%rax,1)
   147bc:	66 2e 0f 1f 84 00 00 00 00 00 	cs nopw 0x0(%rax,%rax,1)
   147c6:	66 2e 0f 1f 84 00 00 00 00 00 	cs nopw 0x0(%rax,%rax,1)
   147d0:	66 2e 0f 1f 84 00 00 00 00 00 	cs nopw 0x0(%rax,%rax,1)
   147da:	66 2e 0f 1f 84 00 00 00 00 00 	cs nopw 0x0(%rax,%rax,1)
   147e4:	66 2e 0f 1f 84 00 00 00 00 00 	cs nopw 0x0(%rax,%rax,1)
   147ee:	66 2e 0f 1f 84 00 00 00 00 00 	cs nopw 0x0(%rax,%rax,1)
   147f8:	66 2e 0f 1f 84 00 00 00 00 00 	cs nopw 0x0(%rax,%rax,1)
   14802:	66 2e 0f 1f 84 00 00 00 00 00 	cs nopw 0x0(%rax,%rax,1)
   1480c:	66 2e 0f 1f 84 00 00 00 00 00 	cs nopw 0x0(%rax,%rax,1)
   14816:	66 2e 0f 1f 84 00 00 00 00 00 	cs nopw 0x0(%rax,%rax,1)
   14820:	66 2e 0f 1f 84 00 00 00 00 00 	cs nopw 0x0(%rax,%rax,1)
   1482a:	66 2e 0f 1f 84 00 00 00 00 00 	cs nopw 0x0(%rax,%rax,1)
   14834:	66 2e 0f 1f 84 00 00 00 00 00 	cs nopw 0x0(%rax,%rax,1)
   1483e:	66 2e 0f 1f 84 00 00 00 00 00 	cs nopw 0x0(%rax,%rax,1)
   14848:	66 2e 0f 1f 84 00 00 00 00 00 	cs nopw 0x0(%rax,%rax,1)
   14852:	66 2e 0f 1f 84 00 00 00 00 00 	cs nopw 0x0(%rax,%rax,1)
   1485c:	66 2e 0f 1f 84 00 00 00 00 00 	cs nopw 0x0(%rax,%rax,1)
   14866:	66 2e 0f 1f 84 00 00 00 00 00 	cs nopw 0x0(%rax,%rax,1)
   14870:	66 2e 0f 1f 84 00 00 00 00 00 	cs nopw 0x0(%rax,%rax,1)
   1487a:	66 2e 0f 1f 84 00 00 00 00 00 	cs nopw 0x0(%rax,%rax,1)
   14884:	66 2e 0f 1f 84 00 00 00 00 00 	cs nopw 0x0(%rax,%rax,1)
   1488e:	66 2e 0f 1f 84 00 00 00 00 00 	cs nopw 0x0(%rax,%rax,1)
   14898:	66 2e 0f 1f 84 00 00 00 00 00 	cs nopw 0x0(%rax,%rax,1)
   148a2:	66 2e 0f 1f 84 00 00 00 00 00 	cs nopw 0x0(%rax,%rax,1)
   148ac:	66 2e 0f 1f 84 00 00 00 00 00 	cs nopw 0x0(%rax,%rax,1)
   148b6:	66 2e 0f 1f 84 00 00 00 00 00 	cs nopw 0x0(%rax,%rax,1)
   148c0:	66 2e 0f 1f 84 00 00 00 00 00 	cs nopw 0x0(%rax,%rax,1)
   148ca:	66 2e 0f 1f 84 00 00 00 00 00 	cs nopw 0x0(%rax,%rax,1)
   148d4:	66 2e 0f 1f 84 00 00 00 00 00 	cs nopw 0x0(%rax,%rax,1)
   148de:	66 2e 0f 1f 84 00 00 00 00 00 	cs nopw 0x0(%rax,%rax,1)
   148e8:	66 2e 0f 1f 84 00 00 00 00 00 	cs nopw 0x0(%rax,%rax,1)
   148f2:	66 2e 0f 1f 84 00 00 00 00 00 	cs nopw 0x0(%rax,%rax,1)
   148fc:	66 2e 0f 1f 84 00 00 00 00 00 	cs nopw 0x0(%rax,%rax,1)
   14906:	66 2e 0f 1f 84 00 00 00 00 00 	cs nopw 0x0(%rax,%rax,1)
   14910:	66 2e 0f 1f 84 00 00 00 00 00 	cs nopw 0x0(%rax,%rax,1)
   1491a:	66 2e 0f 1f 84 00 00 00 00 00 	cs nopw 0x0(%rax,%rax,1)
   14924:	66 2e 0f 1f 84 00 00 00 00 00 	cs nopw 0x0(%rax,%rax,1)
   1492e:	66 2e 0f 1f 84 00 00 00 00 00 	cs nopw 0x0(%rax,%rax,1)
   14938:	66 2e 0f 1f 84 00 00 00 00 00 	cs nopw 0x0(%rax,%rax,1)
   14942:	66 2e 0f 1f 84 00 00 00 00 00 	cs nopw 0x0(%rax,%rax,1)
   1494c:	66 2e 0f 1f 84 00 00 00 00 00 	cs nopw 0x0(%rax,%rax,1)
   14956:	66 2e 0f 1f 84 00 00 00 00 00 	cs nopw 0x0(%rax,%rax,1)
   14960:	66 2e 0f 1f 84 00 00 00 00 00 	cs nopw 0x0(%rax,%rax,1)
   1496a:	66 2e 0f 1f 84 00 00 00 00 00 	cs nopw 0x0(%rax,%rax,1)
   14974:	66 2e 0f 1f 84 00 00 00 00 00 	cs nopw 0x0(%rax,%rax,1)
   1497e:	66 2e 0f 1f 84 00 00 00 00 00 	cs nopw 0x0(%rax,%rax,1)
   14988:	66 2e 0f 1f 84 00 00 00 00 00 	cs nopw 0x0(%rax,%rax,1)
   14992:	66 2e 0f 1f 84 00 00 00 00 00 	cs nopw 0x0(%rax,%rax,1)
   1499c:	66 2e 0f 1f 84 00 00 00 00 00 	cs nopw 0x0(%rax,%rax,1)
   149a6:	66 2e 0f 1f 84 00 00 00 00 00 	cs nopw 0x0(%rax,%rax,1)
   149b0:	66 2e 0f 1f 84 00 00 00 00 00 	cs nopw 0x0(%rax,%rax,1)
   149ba:	66 2e 0f 1f 84 00 00 00 00 00 	cs nopw 0x0(%rax,%rax,1)
   149c4:	66 2e 0f 1f 84 00 00 00 00 00 	cs nopw 0x0(%rax,%rax,1)
   149ce:	66 2e 0f 1f 84 00 00 00 00 00 	cs nopw 0x0(%rax,%rax,1)
   149d8:	66 2e 0f 1f 84 00 00 00 00 00 	cs nopw 0x0(%rax,%rax,1)
   149e2:	66 2e 0f 1f 84 00 00 00 00 00 	cs nopw 0x0(%rax,%rax,1)
   149ec:	66 2e 0f 1f 84 00 00 00 00 00 	cs nopw 0x0(%rax,%rax,1)
   149f6:	66 2e 0f 1f 84 00 00 00 00 00 	cs nopw 0x0(%rax,%rax,1)
   14a00:	66 2e 0f 1f 84 00 00 00 00 00 	cs nopw 0x0(%rax,%rax,1)
   14a0a:	66 2e 0f 1f 84 00 00 00 00 00 	cs nopw 0x0(%rax,%rax,1)
   14a14:	66 2e 0f 1f 84 00 00 00 00 00 	cs nopw 0x0(%rax,%rax,1)
   14a1e:	66 2e 0f 1f 84 00 00 00 00 00 	cs nopw 0x0(%rax,%rax,1)
   14a28:	66 2e 0f 1f 84 00 00 00 00 00 	cs nopw 0x0(%rax,%rax,1)
   14a32:	66 2e 0f 1f 84 00 00 00 00 00 	cs nopw 0x0(%rax,%rax,1)
   14a3c:	66 2e 0f 1f 84 00 00 00 00 00 	cs nopw 0x0(%rax,%rax,1)
   14a46:	66 2e 0f 1f 84 00 00 00 00 00 	cs nopw 0x0(%rax,%rax,1)
   14a50:	66 2e 0f 1f 84 00 00 00 00 00 	cs nopw 0x0(%rax,%rax,1)
   14a5a:	66 2e 0f 1f 84 00 00 00 00 00 	cs nopw 0x0(%rax,%rax,1)
   14a64:	66 2e 0f 1f 84 00 00 00 00 00 	cs nopw 0x0(%rax,%rax,1)
   14a6e:	66 2e 0f 1f 84 00 00 00 00 00 	cs nopw 0x0(%rax,%rax,1)
   14a78:	66 2e 0f 1f 84 00 00 00 00 00 	cs nopw 0x0(%rax,%rax,1)
   14a82:	66 2e 0f 1f 84 00 00 00 00 00 	cs nopw 0x0(%rax,%rax,1)
   14a8c:	66 2e 0f 1f 84 00 00 00 00 00 	cs nopw 0x0(%rax,%rax,1)
   14a96:	66 2e 0f 1f 84 00 00 00 00 00 	cs nopw 0x0(%rax,%rax,1)
   14aa0:	66 2e 0f 1f 84 00 00 00 00 00 	cs nopw 0x0(%rax,%rax,1)
   14aaa:	66 2e 0f 1f 84 00 00 00 00 00 	cs nopw 0x0(%rax,%rax,1)
   14ab4:	66 2e 0f 1f 84 00 00 00 00 00 	cs nopw 0x0(%rax,%rax,1)
   14abe:	66 2e 0f 1f 84 00 00 00 00 00 	cs nopw 0x0(%rax,%rax,1)
   14ac8:	66 2e 0f 1f 84 00 00 00 00 00 	cs nopw 0x0(%rax,%rax,1)
   14ad2:	66 2e 0f 1f 84 00 00 00 00 00 	cs nopw 0x0(%rax,%rax,1)
   14adc:	66 2e 0f 1f 84 00 00 00 00 00 	cs nopw 0x0(%rax,%rax,1)
   14ae6:	66 2e 0f 1f 84 00 00 00 00 00 	cs nopw 0x0(%rax,%rax,1)
   14af0:	66 2e 0f 1f 84 00 00 00 00 00 	cs nopw 0x0(%rax,%rax,1)
   14afa:	66 2e 0f 1f 84 00 00 00 00 00 	cs nopw 0x0(%rax,%rax,1)
   14b04:	66 2e 0f 1f 84 00 00 00 00 00 	cs nopw 0x0(%rax,%rax,1)
   14b0e:	66 2e 0f 1f 84 00 00 00 00 00 	cs nopw 0x0(%rax,%rax,1)
   14b18:	66 2e 0f 1f 84 00 00 00 00 00 	cs nopw 0x0(%rax,%rax,1)
   14b22:	66 2e 0f 1f 84 00 00 00 00 00 	cs nopw 0x0(%rax,%rax,1)
   14b2c:	66 2e 0f 1f 84 00 00 00 00 00 	cs nopw 0x0(%rax,%rax,1)
   14b36:	66 2e 0f 1f 84 00 00 00 00 00 	cs nopw 0x0(%rax,%rax,1)
   14b40:	66 2e 0f 1f 84 00 00 00 00 00 	cs nopw 0x0(%rax,%rax,1)
   14b4a:	66 2e 0f 1f 84 00 00 00 00 00 	cs nopw 0x0(%rax,%rax,1)
   14b54:	66 2e 0f 1f 84 00 00 00 00 00 	cs nopw 0x0(%rax,%rax,1)
   14b5e:	66 2e 0f 1f 84 00 00 00 00 00 	cs nopw 0x0(%rax,%rax,1)
   14b68:	66 2e 0f 1f 84 00 00 00 00 00 	cs nopw 0x0(%rax,%rax,1)
   14b72:	66 2e 0f 1f 84 00 00 00 00 00 	cs nopw 0x0(%rax,%rax,1)
   14b7c:	66 2e 0f 1f 84 00 00 00 00 00 	cs nopw 0x0(%rax,%rax,1)
   14b86:	66 2e 0f 1f 84 00 00 00 00 00 	cs nopw 0x0(%rax,%rax,1)
   14b90:	66 2e 0f 1f 84 00 00 00 00 00 	cs nopw 0x0(%rax,%rax,1)
   14b9a:	66 2e 0f 1f 84 00 00 00 00 00 	cs nopw 0x0(%rax,%rax,1)
   14ba4:	66 2e 0f 1f 84 00 00 00 00 00 	cs nopw 0x0(%rax,%rax,1)
   14bae:	66 2e 0f 1f 84 00 00 00 00 00 	cs nopw 0x0(%rax,%rax,1)
   14bb8:	66 2e 0f 1f 84 00 00 00 00 00 	cs nopw 0x0(%rax,%rax,1)
   14bc2:	66 2e 0f 1f 84 00 00 00 00 00 	cs nopw 0x0(%rax,%rax,1)
   14bcc:	66 2e 0f 1f 84 00 00 00 00 00 	cs nopw 0x0(%rax,%rax,1)
   14bd6:	66 2e 0f 1f 84 00 00 00 00 00 	cs nopw 0x0(%rax,%rax,1)
   14be0:	66 2e 0f 1f 84 00 00 00 00 00 	cs nopw 0x0(%rax,%rax,1)
   14bea:	66 2e 0f 1f 84 00 00 00 00 00 	cs nopw 0x0(%rax,%rax,1)
   14bf4:	66 2e 0f 1f 84 00 00 00 00 00 	cs nopw 0x0(%rax,%rax,1)
   14bfe:	66 2e 0f 1f 84 00 00 00 00 00 	cs nopw 0x0(%rax,%rax,1)
   14c08:	66 2e 0f 1f 84 00 00 00 00 00 	cs nopw 0x0(%rax,%rax,1)
   14c12:	66 2e 0f 1f 84 00 00 00 00 00 	cs nopw 0x0(%rax,%rax,1)
   14c1c:	66 2e 0f 1f 84 00 00 00 00 00 	cs nopw 0x0(%rax,%rax,1)
   14c26:	66 2e 0f 1f 84 00 00 00 00 00 	cs nopw 0x0(%rax,%rax,1)
   14c30:	66 2e 0f 1f 84 00 00 00 00 00 	cs nopw 0x0(%rax,%rax,1)
   14c3a:	66 2e 0f 1f 84 00 00 00 00 00 	cs nopw 0x0(%rax,%rax,1)
   14c44:	66 2e 0f 1f 84 00 00 00 00 00 	cs nopw 0x0(%rax,%rax,1)
   14c4e:	66 2e 0f 1f 84 00 00 00 00 00 	cs nopw 0x0(%rax,%rax,1)
   14c58:	66 2e 0f 1f 84 00 00 00 00 00 	cs nopw 0x0(%rax,%rax,1)
   14c62:	66 2e 0f 1f 84 00 00 00 00 00 	cs nopw 0x0(%rax,%rax,1)
   14c6c:	66 2e 0f 1f 84 00 00 00 00 00 	cs nopw 0x0(%rax,%rax,1)
   14c76:	66 2e 0f 1f 84 00 00 00 00 00 	cs nopw 0x0(%rax,%rax,1)
   14c80:	66 2e 0f 1f 84 00 00 00 00 00 	cs nopw 0x0(%rax,%rax,1)
   14c8a:	66 2e 0f 1f 84 00 00 00 00 00 	cs nopw 0x0(%rax,%rax,1)
   14c94:	66 2e 0f 1f 84 00 00 00 00 00 	cs nopw 0x0(%rax,%rax,1)
   14c9e:	66 2e 0f 1f 84 00 00 00 00 00 	cs nopw 0x0(%rax,%rax,1)
   14ca8:	66 2e 0f 1f 84 00 00 00 00 00 	cs nopw 0x0(%rax,%rax,1)
   14cb2:	66 2e 0f 1f 84 00 00 00 00 00 	cs nopw 0x0(%rax,%rax,1)
   14cbc:	66 2e 0f 1f 84 00 00 00 00 00 	cs nopw 0x0(%rax,%rax,1)
   14cc6:	66 2e 0f 1f 84 00 00 00 00 00 	cs nopw 0x0(%rax,%rax,1)
   14cd0:	66 2e 0f 1f 84 00 00 00 00 00 	cs nopw 0x0(%rax,%rax,1)
   14cda:	66 2e 0f 1f 84 00 00 00 00 00 	cs nopw 0x0(%rax,%rax,1)
   14ce4:	66 2e 0f 1f 84 00 00 00 00 00 	cs nopw 0x0(%rax,%rax,1)
   14cee:	66 2e 0f 1f 84 00 00 00 00 00 	cs nopw 0x0(%rax,%rax,1)
   14cf8:	66 2e 0f 1f 84 00 00 00 00 00 	cs nopw 0x0(%rax,%rax,1)
   14d02:	66 2e 0f 1f 84 00 00 00 00 00 	cs nopw 0x0(%rax,%rax,1)
   14d0c:	66 2e 0f 1f 84 00 00 00 00 00 	cs nopw 0x0(%rax,%rax,1)
   14d16:	66 2e 0f 1f 84 00 00 00 00 00 	cs nopw 0x0(%rax,%rax,1)
   14d20:	66 2e 0f 1f 84 00 00 00 00 00 	cs nopw 0x0(%rax,%rax,1)
   14d2a:	66 2e 0f 1f 84 00 00 00 00 00 	cs nopw 0x0(%rax,%rax,1)
   14d34:	66 2e 0f 1f 84 00 00 00 00 00 	cs nopw 0x0(%rax,%rax,1)
   14d3e:	66 2e 0f 1f 84 00 00 00 00 00 	cs nopw 0x0(%rax,%rax,1)
   14d48:	66 2e 0f 1f 84 00 00 00 00 00 	cs nopw 0x0(%rax,%rax,1)
   14d52:	66 2e 0f 1f 84 00 00 00 00 00 	cs nopw 0x0(%rax,%rax,1)
   14d5c:	66 2e 0f 1f 84 00 00 00 00 00 	cs nopw 0x0(%rax,%rax,1)
   14d66:	66 2e 0f 1f 84 00 00 00 00 00 	cs nopw 0x0(%rax,%rax,1)
   14d70:	66 2e 0f 1f 84 00 00 00 00 00 	cs nopw 0x0(%rax,%rax,1)
   14d7a:	66 2e 0f 1f 84 00 00 00 00 00 	cs nopw 0x0(%rax,%rax,1)
   14d84:	66 2e 0f 1f 84 00 00 00 00 00 	cs nopw 0x0(%rax,%rax,1)
   14d8e:	66 2e 0f 1f 84 00 00 00 00 00 	cs nopw 0x0(%rax,%rax,1)
   14d98:	66 2e 0f 1f 84 00 00 00 00 00 	cs nopw 0x0(%rax,%rax,1)
   14da2:	66 2e 0f 1f 84 00 00 00 00 00 	cs nopw 0x0(%rax,%rax,1)
   14dac:	66 2e 0f 1f 84 00 00 00 00 00 	cs nopw 0x0(%rax,%rax,1)
   14db6:	66 2e 0f 1f 84 00 00 00 00 00 	cs nopw 0x0(%rax,%rax,1)
   14dc0:	66 2e 0f 1f 84 00 00 00 00 00 	cs nopw 0x0(%rax,%rax,1)
   14dca:	66 2e 0f 1f 84 00 00 00 00 00 	cs nopw 0x0(%rax,%rax,1)
   14dd4:	66 2e 0f 1f 84 00 00 00 00 00 	cs nopw 0x0(%rax,%rax,1)
   14dde:	66 2e 0f 1f 84 00 00 00 00 00 	cs nopw 0x0(%rax,%rax,1)
   14de8:	66 2e 0f 1f 84 00 00 00 00 00 	cs nopw 0x0(%rax,%rax,1)
   14df2:	66 2e 0f 1f 84 00 00 00 00 00 	cs nopw 0x0(%rax,%rax,1)
   14dfc:	66 2e 0f 1f 84 00 00 00 00 00 	cs nopw 0x0(%rax,%rax,1)
   14e06:	66 2e 0f 1f 84 00 00 00 00 00 	cs nopw 0x0(%rax,%rax,1)
   14e10:	66 2e 0f 1f 84 00 00 00 00 00 	cs nopw 0x0(%rax,%rax,1)
   14e1a:	66 2e 0f 1f 84 00 00 00 00 00 	cs nopw 0x0(%rax,%rax,1)
   14e24:	66 2e 0f 1f 84 00 00 00 00 00 	cs nopw 0x0(%rax,%rax,1)
   14e2e:	66 2e 0f 1f 84 00 00 00 00 00 	cs nopw 0x0(%rax,%rax,1)
   14e38:	66 2e 0f 1f 84 00 00 00 00 00 	cs nopw 0x0(%rax,%rax,1)
   14e42:	66 2e 0f 1f 84 00 00 00 00 00 	cs nopw 0x0(%rax,%rax,1)
   14e4c:	66 2e 0f 1f 84 00 00 00 00 00 	cs nopw 0x0(%rax,%rax,1)
   14e56:	66 2e 0f 1f 84 00 00 00 00 00 	cs nopw 0x0(%rax,%rax,1)
   14e60:	66 2e 0f 1f 84 00 00 00 00 00 	cs nopw 0x0(%rax,%rax,1)
   14e6a:	66 2e 0f 1f 84 00 00 00 00 00 	cs nopw 0x0(%rax,%rax,1)
   14e74:	66 2e 0f 1f 84 00 00 00 00 00 	cs nopw 0x0(%rax,%rax,1)
   14e7e:	66 2e 0f 1f 84 00 00 00 00 00 	cs nopw 0x0(%rax,%rax,1)
   14e88:	66 2e 0f 1f 84 00 00 00 00 00 	cs nopw 0x0(%rax,%rax,1)
   14e92:	66 2e 0f 1f 84 00 00 00 00 00 	cs nopw 0x0(%rax,%rax,1)
   14e9c:	66 2e 0f 1f 84 00 00 00 00 00 	cs nopw 0x0(%rax,%rax,1)
   14ea6:	66 2e 0f 1f 84 00 00 00 00 00 	cs nopw 0x0(%rax,%rax,1)
   14eb0:	66 2e 0f 1f 84 00 00 00 00 00 	cs nopw 0x0(%rax,%rax,1)
   14eba:	66 2e 0f 1f 84 00 00 00 00 00 	cs nopw 0x0(%rax,%rax,1)
   14ec4:	66 2e 0f 1f 84 00 00 00 00 00 	cs nopw 0x0(%rax,%rax,1)
   14ece:	66 2e 0f 1f 84 00 00 00 00 00 	cs nopw 0x0(%rax,%rax,1)
   14ed8:	66 2e 0f 1f 84 00 00 00 00 00 	cs nopw 0x0(%rax,%rax,1)
   14ee2:	66 2e 0f 1f 84 00 00 00 00 00 	cs nopw 0x0(%rax,%rax,1)
   14eec:	66 2e 0f 1f 84 00 00 00 00 00 	cs nopw 0x0(%rax,%rax,1)
   14ef6:	66 2e 0f 1f 84 00 00 00 00 00 	cs nopw 0x0(%rax,%rax,1)
   14f00:	66 2e 0f 1f 84 00 00 00 00 00 	cs nopw 0x0(%rax,%rax,1)
   14f0a:	66 2e 0f 1f 84 00 00 00 00 00 	cs nopw 0x0(%rax,%rax,1)
   14f14:	66 2e 0f 1f 84 00 00 00 00 00 	cs nopw 0x0(%rax,%rax,1)
   14f1e:	66 2e 0f 1f 84 00 00 00 00 00 	cs nopw 0x0(%rax,%rax,1)
   14f28:	66 2e 0f 1f 84 00 00 00 00 00 	cs nopw 0x0(%rax,%rax,1)
   14f32:	66 2e 0f 1f 84 00 00 00 00 00 	cs nopw 0x0(%rax,%rax,1)
   14f3c:	66 2e 0f 1f 84 00 00 00 00 00 	cs nopw 0x0(%rax,%rax,1)
   14f46:	66 2e 0f 1f 84 00 00 00 00 00 	cs nopw 0x0(%rax,%rax,1)
   14f50:	66 2e 0f 1f 84 00 00 00 00 00 	cs nopw 0x0(%rax,%rax,1)
   14f5a:	66 2e 0f 1f 84 00 00 00 00 00 	cs nopw 0x0(%rax,%rax,1)
   14f64:	66 2e 0f 1f 84 00 00 00 00 00 	cs nopw 0x0(%rax,%rax,1)
   14f6e:	66 2e 0f 1f 84 00 00 00 00 00 	cs nopw 0x0(%rax,%rax,1)
   14f78:	66 2e 0f 1f 84 00 00 00 00 00 	cs nopw 0x0(%rax,%rax,1)
   14f82:	66 2e 0f 1f 84 00 00 00 00 00 	cs nopw 0x0(%rax,%rax,1)
   14f8c:	66 2e 0f 1f 84 00 00 00 00 00 	cs nopw 0x0(%rax,%rax,1)
   14f96:	66 2e 0f 1f 84 00 00 00 00 00 	cs nopw 0x0(%rax,%rax,1)
   14fa0:	66 2e 0f 1f 84 00 00 00 00 00 	cs nopw 0x0(%rax,%rax,1)
   14faa:	66 2e 0f 1f 84 00 00 00 00 00 	cs nopw 0x0(%rax,%rax,1)
   14fb4:	66 2e 0f 1f 84 00 00 00 00 00 	cs nopw 0x0(%rax,%rax,1)
   14fbe:	66 2e 0f 1f 84 00 00 00 00 00 	cs nopw 0x0(%rax,%rax,1)
   14fc8:	66 2e 0f 1f 84 00 00 00 00 00 	cs nopw 0x0(%rax,%rax,1)
   14fd2:	66 2e 0f 1f 84 00 00 00 00 00 	cs nopw 0x0(%rax,%rax,1)
   14fdc:	66 2e 0f 1f 84 00 00 00 00 00 	cs nopw 0x0(%rax,%rax,1)
   14fe6:	66 2e 0f 1f 84 00 00 00 00 00 	cs nopw 0x0(%rax,%rax,1)
   14ff0:	66 2e 0f 1f 84 00 00 00 00 00 	cs nopw 0x0(%rax,%rax,1)
   14ffa:	66 2e 0f 1f 84 00 00 00 00 00 	cs nopw 0x0(%rax,%rax,1)
   15004:	66 2e 0f 1f 84 00 00 00 00 00 	cs nopw 0x0(%rax,%rax,1)
   1500e:	66 2e 0f 1f 84 00 00 00 00 00 	cs nopw 0x0(%rax,%rax,1)
   15018:	66 2e 0f 1f 84 00 00 00 00 00 	cs nopw 0x0(%rax,%rax,1)
   15022:	66 2e 0f 1f 84 00 00 00 00 00 	cs nopw 0x0(%rax,%rax,1)
   1502c:	66 2e 0f 1f 84 00 00 00 00 00 	cs nopw 0x0(%rax,%rax,1)
   15036:	66 2e 0f 1f 84 00 00 00 00 00 	cs nopw 0x0(%rax,%rax,1)
   15040:	66 2e 0f 1f 84 00 00 00 00 00 	cs nopw 0x0(%rax,%rax,1)
   1504a:	66 2e 0f 1f 84 00 00 00 00 00 	cs nopw 0x0(%rax,%rax,1)
   15054:	66 2e 0f 1f 84 00 00 00 00 00 	cs nopw 0x0(%rax,%rax,1)
   1505e:	66 2e 0f 1f 84 00 00 00 00 00 	cs nopw 0x0(%rax,%rax,1)
   15068:	66 2e 0f 1f 84 00 00 00 00 00 	cs nopw 0x0(%rax,%rax,1)
   15072:	66 2e 0f 1f 84 00 00 00 00 00 	cs nopw 0x0(%rax,%rax,1)
   1507c:	66 2e 0f 1f 84 00 00 00 00 00 	cs nopw 0x0(%rax,%rax,1)
   15086:	66 2e 0f 1f 84 00 00 00 00 00 	cs nopw 0x0(%rax,%rax,1)
   15090:	66 2e 0f 1f 84 00 00 00 00 00 	cs nopw 0x0(%rax,%rax,1)
   1509a:	66 2e 0f 1f 84 00 00 00 00 00 	cs nopw 0x0(%rax,%rax,1)
   150a4:	66 2e 0f 1f 84 00 00 00 00 00 	cs nopw 0x0(%rax,%rax,1)
   150ae:	66 2e 0f 1f 84 00 00 00 00 00 	cs nopw 0x0(%rax,%rax,1)
   150b8:	66 2e 0f 1f 84 00 00 00 00 00 	cs nopw 0x0(%rax,%rax,1)
   150c2:	66 2e 0f 1f 84 00 00 00 00 00 	cs nopw 0x0(%rax,%rax,1)
   150cc:	66 2e 0f 1f 84 00 00 00 00 00 	cs nopw 0x0(%rax,%rax,1)
   150d6:	66 2e 0f 1f 84 00 00 00 00 00 	cs nopw 0x0(%rax,%rax,1)
   150e0:	66 2e 0f 1f 84 00 00 00 00 00 	cs nopw 0x0(%rax,%rax,1)
   150ea:	66 2e 0f 1f 84 00 00 00 00 00 	cs nopw 0x0(%rax,%rax,1)
   150f4:	66 2e 0f 1f 84 00 00 00 00 00 	cs nopw 0x0(%rax,%rax,1)
   150fe:	66 2e 0f 1f 84 00 00 00 00 00 	cs nopw 0x0(%rax,%rax,1)
   15108:	66 2e 0f 1f 84 00 00 00 00 00 	cs nopw 0x0(%rax,%rax,1)
   15112:	66 2e 0f 1f 84 00 00 00 00 00 	cs nopw 0x0(%rax,%rax,1)
   1511c:	66 2e 0f 1f 84 00 00 00 00 00 	cs nopw 0x0(%rax,%rax,1)
   15126:	66 2e 0f 1f 84 00 00 00 00 00 	cs nopw 0x0(%rax,%rax,1)
   15130:	66 2e 0f 1f 84 00 00 00 00 00 	cs nopw 0x0(%rax,%rax,1)
   1513a:	66 2e 0f 1f 84 00 00 00 00 00 	cs nopw 0x0(%rax,%rax,1)
   15144:	66 2e 0f 1f 84 00 00 00 00 00 	cs nopw 0x0(%rax,%rax,1)
   1514e:	66 2e 0f 1f 84 00 00 00 00 00 	cs nopw 0x0(%rax,%rax,1)
   15158:	66 2e 0f 1f 84 00 00 00 00 00 	cs nopw 0x0(%rax,%rax,1)
   15162:	66 2e 0f 1f 84 00 00 00 00 00 	cs nopw 0x0(%rax,%rax,1)
   1516c:	66 2e 0f 1f 84 00 00 00 00 00 	cs nopw 0x0(%rax,%rax,1)
   15176:	66 2e 0f 1f 84 00 00 00 00 00 	cs nopw 0x0(%rax,%rax,1)
   15180:	66 2e 0f 1f 84 00 00 00 00 00 	cs nopw 0x0(%rax,%rax,1)
   1518a:	66 2e 0f 1f 84 00 00 00 00 00 	cs nopw 0x0(%rax,%rax,1)
   15194:	66 2e 0f 1f 84 00 00 00 00 00 	cs nopw 0x0(%rax,%rax,1)
   1519e:	66 2e 0f 1f 84 00 00 00 00 00 	cs nopw 0x0(%rax,%rax,1)
   151a8:	66 2e 0f 1f 84 00 00 00 00 00 	cs nopw 0x0(%rax,%rax,1)
   151b2:	66 2e 0f 1f 84 00 00 00 00 00 	cs nopw 0x0(%rax,%rax,1)
   151bc:	66 2e 0f 1f 84 00 00 00 00 00 	cs nopw 0x0(%rax,%rax,1)
   151c6:	66 2e 0f 1f 84 00 00 00 00 00 	cs nopw 0x0(%rax,%rax,1)
   151d0:	66 2e 0f 1f 84 00 00 00 00 00 	cs nopw 0x0(%rax,%rax,1)
   151da:	66 2e 0f 1f 84 00 00 00 00 00 	cs nopw 0x0(%rax,%rax,1)
   151e4:	66 2e 0f 1f 84 00 00 00 00 00 	cs nopw 0x0(%rax,%rax,1)
   151ee:	66 2e 0f 1f 84 00 00 00 00 00 	cs nopw 0x0(%rax,%rax,1)
   151f8:	66 2e 0f 1f 84 00 00 00 00 00 	cs nopw 0x0(%rax,%rax,1)
   15202:	66 2e 0f 1f 84 00 00 00 00 00 	cs nopw 0x0(%rax,%rax,1)
   1520c:	66 2e 0f 1f 84 00 00 00 00 00 	cs nopw 0x0(%rax,%rax,1)
   15216:	66 2e 0f 1f 84 00 00 00 00 00 	cs nopw 0x0(%rax,%rax,1)
   15220:	66 2e 0f 1f 84 00 00 00 00 00 	cs nopw 0x0(%rax,%rax,1)
   1522a:	66 2e 0f 1f 84 00 00 00 00 00 	cs nopw 0x0(%rax,%rax,1)
   15234:	66 2e 0f 1f 84 00 00 00 00 00 	cs nopw 0x0(%rax,%rax,1)
   1523e:	66 2e 0f 1f 84 00 00 00 00 00 	cs nopw 0x0(%rax,%rax,1)
   15248:	66 2e 0f 1f 84 00 00 00 00 00 	cs nopw 0x0(%rax,%rax,1)
   15252:	66 2e 0f 1f 84 00 00 00 00 00 	cs nopw 0x0(%rax,%rax,1)
   1525c:	66 2e 0f 1f 84 00 00 00 00 00 	cs nopw 0x0(%rax,%rax,1)
   15266:	66 2e 0f 1f 84 00 00 00 00 00 	cs nopw 0x0(%rax,%rax,1)
   15270:	66 2e 0f 1f 84 00 00 00 00 00 	cs nopw 0x0(%rax,%rax,1)
   1527a:	66 2e 0f 1f 84 00 00 00 00 00 	cs nopw 0x0(%rax,%rax,1)
   15284:	66 2e 0f 1f 84 00 00 00 00 00 	cs nopw 0x0(%rax,%rax,1)
   1528e:	66 2e 0f 1f 84 00 00 00 00 00 	cs nopw 0x0(%rax,%rax,1)
   15298:	66 2e 0f 1f 84 00 00 00 00 00 	cs nopw 0x0(%rax,%rax,1)
   152a2:	66 2e 0f 1f 84 00 00 00 00 00 	cs nopw 0x0(%rax,%rax,1)
   152ac:	66 2e 0f 1f 84 00 00 00 00 00 	cs nopw 0x0(%rax,%rax,1)
   152b6:	66 2e 0f 1f 84 00 00 00 00 00 	cs nopw 0x0(%rax,%rax,1)
   152c0:	66 2e 0f 1f 84 00 00 00 00 00 	cs nopw 0x0(%rax,%rax,1)
   152ca:	66 2e 0f 1f 84 00 00 00 00 00 	cs nopw 0x0(%rax,%rax,1)
   152d4:	66 2e 0f 1f 84 00 00 00 00 00 	cs nopw 0x0(%rax,%rax,1)
   152de:	66 2e 0f 1f 84 00 00 00 00 00 	cs nopw 0x0(%rax,%rax,1)
   152e8:	66 2e 0f 1f 84 00 00 00 00 00 	cs nopw 0x0(%rax,%rax,1)
   152f2:	66 2e 0f 1f 84 00 00 00 00 00 	cs nopw 0x0(%rax,%rax,1)
   152fc:	66 2e 0f 1f 84 00 00 00 00 00 	cs nopw 0x0(%rax,%rax,1)
   15306:	66 2e 0f 1f 84 00 00 00 00 00 	cs nopw 0x0(%rax,%rax,1)
   15310:	66 2e 0f 1f 84 00 00 00 00 00 	cs nopw 0x0(%rax,%rax,1)
   1531a:	66 2e 0f 1f 84 00 00 00 00 00 	cs nopw 0x0(%rax,%rax,1)
   15324:	66 2e 0f 1f 84 00 00 00 00 00 	cs nopw 0x0(%rax,%rax,1)
   1532e:	66 2e 0f 1f 84 00 00 00 00 00 	cs nopw 0x0(%rax,%rax,1)
   15338:	66 2e 0f 1f 84 00 00 00 00 00 	cs nopw 0x0(%rax,%rax,1)
   15342:	66 2e 0f 1f 84 00 00 00 00 00 	cs nopw 0x0(%rax,%rax,1)
   1534c:	66 2e 0f 1f 84 00 00 00 00 00 	cs nopw 0x0(%rax,%rax,1)
   15356:	66 2e 0f 1f 84 00 00 00 00 00 	cs nopw 0x0(%rax,%rax,1)
   15360:	66 2e 0f 1f 84 00 00 00 00 00 	cs nopw 0x0(%rax,%rax,1)
   1536a:	66 2e 0f 1f 84 00 00 00 00 00 	cs nopw 0x0(%rax,%rax,1)
   15374:	66 2e 0f 1f 84 00 00 00 00 00 	cs nopw 0x0(%rax,%rax,1)
   1537e:	66 2e 0f 1f 84 00 00 00 00 00 	cs nopw 0x0(%rax,%rax,1)
   15388:	66 2e 0f 1f 84 00 00 00 00 00 	cs nopw 0x0(%rax,%rax,1)
   15392:	66 2e 0f 1f 84 00 00 00 00 00 	cs nopw 0x0(%rax,%rax,1)
   1539c:	66 2e 0f 1f 84 00 00 00 00 00 	cs nopw 0x0(%rax,%rax,1)
   153a6:	66 2e 0f 1f 84 00 00 00 00 00 	cs nopw 0x0(%rax,%rax,1)
   153b0:	66 2e 0f 1f 84 00 00 00 00 00 	cs nopw 0x0(%rax,%rax,1)
   153ba:	66 2e 0f 1f 84 00 00 00 00 00 	cs nopw 0x0(%rax,%rax,1)
   153c4:	66 2e 0f 1f 84 00 00 00 00 00 	cs nopw 0x0(%rax,%rax,1)
   153ce:	66 2e 0f 1f 84 00 00 00 00 00 	cs nopw 0x0(%rax,%rax,1)
   153d8:	66 2e 0f 1f 84 00 00 00 00 00 	cs nopw 0x0(%rax,%rax,1)
   153e2:	66 2e 0f 1f 84 00 00 00 00 00 	cs nopw 0x0(%rax,%rax,1)
   153ec:	66 2e 0f 1f 84 00 00 00 00 00 	cs nopw 0x0(%rax,%rax,1)
   153f6:	66 2e 0f 1f 84 00 00 00 00 00 	cs nopw 0x0(%rax,%rax,1)
   15400:	66 2e 0f 1f 84 00 00 00 00 00 	cs nopw 0x0(%rax,%rax,1)
   1540a:	66 2e 0f 1f 84 00 00 00 00 00 	cs nopw 0x0(%rax,%rax,1)
   15414:	66 2e 0f 1f 84 00 00 00 00 00 	cs nopw 0x0(%rax,%rax,1)
   1541e:	66 2e 0f 1f 84 00 00 00 00 00 	cs nopw 0x0(%rax,%rax,1)
   15428:	66 2e 0f 1f 84 00 00 00 00 00 	cs nopw 0x0(%rax,%rax,1)
   15432:	66 2e 0f 1f 84 00 00 00 00 00 	cs nopw 0x0(%rax,%rax,1)
   1543c:	66 2e 0f 1f 84 00 00 00 00 00 	cs nopw 0x0(%rax,%rax,1)
   15446:	66 2e 0f 1f 84 00 00 00 00 00 	cs nopw 0x0(%rax,%rax,1)
   15450:	66 2e 0f 1f 84 00 00 00 00 00 	cs nopw 0x0(%rax,%rax,1)
   1545a:	66 2e 0f 1f 84 00 00 00 00 00 	cs nopw 0x0(%rax,%rax,1)
   15464:	66 2e 0f 1f 84 00 00 00 00 00 	cs nopw 0x0(%rax,%rax,1)
   1546e:	66 2e 0f 1f 84 00 00 00 00 00 	cs nopw 0x0(%rax,%rax,1)
   15478:	66 2e 0f 1f 84 00 00 00 00 00 	cs nopw 0x0(%rax,%rax,1)
   15482:	66 2e 0f 1f 84 00 00 00 00 00 	cs nopw 0x0(%rax,%rax,1)
   1548c:	66 2e 0f 1f 84 00 00 00 00 00 	cs nopw 0x0(%rax,%rax,1)
   15496:	66 2e 0f 1f 84 00 00 00 00 00 	cs nopw 0x0(%rax,%rax,1)
   154a0:	66 2e 0f 1f 84 00 00 00 00 00 	cs nopw 0x0(%rax,%rax,1)
   154aa:	66 2e 0f 1f 84 00 00 00 00 00 	cs nopw 0x0(%rax,%rax,1)
   154b4:	66 2e 0f 1f 84 00 00 00 00 00 	cs nopw 0x0(%rax,%rax,1)
   154be:	66 2e 0f 1f 84 00 00 00 00 00 	cs nopw 0x0(%rax,%rax,1)
   154c8:	66 2e 0f 1f 84 00 00 00 00 00 	cs nopw 0x0(%rax,%rax,1)
   154d2:	66 2e 0f 1f 84 00 00 00 00 00 	cs nopw 0x0(%rax,%rax,1)
   154dc:	66 2e 0f 1f 84 00 00 00 00 00 	cs nopw 0x0(%rax,%rax,1)
   154e6:	66 2e 0f 1f 84 00 00 00 00 00 	cs nopw 0x0(%rax,%rax,1)
   154f0:	66 2e 0f 1f 84 00 00 00 00 00 	cs nopw 0x0(%rax,%rax,1)
   154fa:	66 2e 0f 1f 84 00 00 00 00 00 	cs nopw 0x0(%rax,%rax,1)
   15504:	66 2e 0f 1f 84 00 00 00 00 00 	cs nopw 0x0(%rax,%rax,1)
   1550e:	66 2e 0f 1f 84 00 00 00 00 00 	cs nopw 0x0(%rax,%rax,1)
   15518:	66 2e 0f 1f 84 00 00 00 00 00 	cs nopw 0x0(%rax,%rax,1)
   15522:	66 2e 0f 1f 84 00 00 00 00 00 	cs nopw 0x0(%rax,%rax,1)
   1552c:	66 2e 0f 1f 84 00 00 00 00 00 	cs nopw 0x0(%rax,%rax,1)
   15536:	66 2e 0f 1f 84 00 00 00 00 00 	cs nopw 0x0(%rax,%rax,1)
   15540:	66 2e 0f 1f 84 00 00 00 00 00 	cs nopw 0x0(%rax,%rax,1)
   1554a:	66 2e 0f 1f 84 00 00 00 00 00 	cs nopw 0x0(%rax,%rax,1)
   15554:	66 2e 0f 1f 84 00 00 00 00 00 	cs nopw 0x0(%rax,%rax,1)
   1555e:	66 2e 0f 1f 84 00 00 00 00 00 	cs nopw 0x0(%rax,%rax,1)
   15568:	66 2e 0f 1f 84 00 00 00 00 00 	cs nopw 0x0(%rax,%rax,1)
   15572:	66 2e 0f 1f 84 00 00 00 00 00 	cs nopw 0x0(%rax,%rax,1)
   1557c:	66 2e 0f 1f 84 00 00 00 00 00 	cs nopw 0x0(%rax,%rax,1)
   15586:	66 2e 0f 1f 84 00 00 00 00 00 	cs nopw 0x0(%rax,%rax,1)
   15590:	66 2e 0f 1f 84 00 00 00 00 00 	cs nopw 0x0(%rax,%rax,1)
   1559a:	66 2e 0f 1f 84 00 00 00 00 00 	cs nopw 0x0(%rax,%rax,1)
   155a4:	66 2e 0f 1f 84 00 00 00 00 00 	cs nopw 0x0(%rax,%rax,1)
   155ae:	66 2e 0f 1f 84 00 00 00 00 00 	cs nopw 0x0(%rax,%rax,1)
   155b8:	66 2e 0f 1f 84 00 00 00 00 00 	cs nopw 0x0(%rax,%rax,1)
   155c2:	66 2e 0f 1f 84 00 00 00 00 00 	cs nopw 0x0(%rax,%rax,1)
   155cc:	66 2e 0f 1f 84 00 00 00 00 00 	cs nopw 0x0(%rax,%rax,1)
   155d6:	66 2e 0f 1f 84 00 00 00 00 00 	cs nopw 0x0(%rax,%rax,1)
   155e0:	66 2e 0f 1f 84 00 00 00 00 00 	cs nopw 0x0(%rax,%rax,1)
   155ea:	66 2e 0f 1f 84 00 00 00 00 00 	cs nopw 0x0(%rax,%rax,1)
   155f4:	66 2e 0f 1f 84 00 00 00 00 00 	cs nopw 0x0(%rax,%rax,1)
   155fe:	66 2e 0f 1f 84 00 00 00 00 00 	cs nopw 0x0(%rax,%rax,1)
   15608:	66 2e 0f 1f 84 00 00 00 00 00 	cs nopw 0x0(%rax,%rax,1)
   15612:	66 2e 0f 1f 84 00 00 00 00 00 	cs nopw 0x0(%rax,%rax,1)
   1561c:	66 2e 0f 1f 84 00 00 00 00 00 	cs nopw 0x0(%rax,%rax,1)
   15626:	66 2e 0f 1f 84 00 00 00 00 00 	cs nopw 0x0(%rax,%rax,1)
   15630:	66 2e 0f 1f 84 00 00 00 00 00 	cs nopw 0x0(%rax,%rax,1)
   1563a:	66 2e 0f 1f 84 00 00 00 00 00 	cs nopw 0x0(%rax,%rax,1)
   15644:	66 2e 0f 1f 84 00 00 00 00 00 	cs nopw 0x0(%rax,%rax,1)
   1564e:	66 2e 0f 1f 84 00 00 00 00 00 	cs nopw 0x0(%rax,%rax,1)
   15658:	66 2e 0f 1f 84 00 00 00 00 00 	cs nopw 0x0(%rax,%rax,1)
   15662:	66 2e 0f 1f 84 00 00 00 00 00 	cs nopw 0x0(%rax,%rax,1)
   1566c:	66 2e 0f 1f 84 00 00 00 00 00 	cs nopw 0x0(%rax,%rax,1)
   15676:	66 2e 0f 1f 84 00 00 00 00 00 	cs nopw 0x0(%rax,%rax,1)
   15680:	66 2e 0f 1f 84 00 00 00 00 00 	cs nopw 0x0(%rax,%rax,1)
   1568a:	66 2e 0f 1f 84 00 00 00 00 00 	cs nopw 0x0(%rax,%rax,1)
   15694:	66 2e 0f 1f 84 00 00 00 00 00 	cs nopw 0x0(%rax,%rax,1)
   1569e:	66 2e 0f 1f 84 00 00 00 00 00 	cs nopw 0x0(%rax,%rax,1)
   156a8:	66 2e 0f 1f 84 00 00 00 00 00 	cs nopw 0x0(%rax,%rax,1)
   156b2:	66 2e 0f 1f 84 00 00 00 00 00 	cs nopw 0x0(%rax,%rax,1)
   156bc:	66 2e 0f 1f 84 00 00 00 00 00 	cs nopw 0x0(%rax,%rax,1)
   156c6:	66 2e 0f 1f 84 00 00 00 00 00 	cs nopw 0x0(%rax,%rax,1)
   156d0:	66 2e 0f 1f 84 00 00 00 00 00 	cs nopw 0x0(%rax,%rax,1)
   156da:	66 2e 0f 1f 84 00 00 00 00 00 	cs nopw 0x0(%rax,%rax,1)
   156e4:	66 2e 0f 1f 84 00 00 00 00 00 	cs nopw 0x0(%rax,%rax,1)
   156ee:	66 2e 0f 1f 84 00 00 00 00 00 	cs nopw 0x0(%rax,%rax,1)
   156f8:	66 2e 0f 1f 84 00 00 00 00 00 	cs nopw 0x0(%rax,%rax,1)
   15702:	66 2e 0f 1f 84 00 00 00 00 00 	cs nopw 0x0(%rax,%rax,1)
   1570c:	66 2e 0f 1f 84 00 00 00 00 00 	cs nopw 0x0(%rax,%rax,1)
   15716:	66 2e 0f 1f 84 00 00 00 00 00 	cs nopw 0x0(%rax,%rax,1)
   15720:	66 2e 0f 1f 84 00 00 00 00 00 	cs nopw 0x0(%rax,%rax,1)
   1572a:	66 2e 0f 1f 84 00 00 00 00 00 	cs nopw 0x0(%rax,%rax,1)
   15734:	66 2e 0f 1f 84 00 00 00 00 00 	cs nopw 0x0(%rax,%rax,1)
   1573e:	66 2e 0f 1f 84 00 00 00 00 00 	cs nopw 0x0(%rax,%rax,1)
   15748:	66 2e 0f 1f 84 00 00 00 00 00 	cs nopw 0x0(%rax,%rax,1)
   15752:	66 2e 0f 1f 84 00 00 00 00 00 	cs nopw 0x0(%rax,%rax,1)
   1575c:	66 2e 0f 1f 84 00 00 00 00 00 	cs nopw 0x0(%rax,%rax,1)
   15766:	66 2e 0f 1f 84 00 00 00 00 00 	cs nopw 0x0(%rax,%rax,1)
   15770:	66 2e 0f 1f 84 00 00 00 00 00 	cs nopw 0x0(%rax,%rax,1)
   1577a:	66 2e 0f 1f 84 00 00 00 00 00 	cs nopw 0x0(%rax,%rax,1)
   15784:	66 2e 0f 1f 84 00 00 00 00 00 	cs nopw 0x0(%rax,%rax,1)
   1578e:	66 2e 0f 1f 84 00 00 00 00 00 	cs nopw 0x0(%rax,%rax,1)
   15798:	66 2e 0f 1f 84 00 00 00 00 00 	cs nopw 0x0(%rax,%rax,1)
   157a2:	66 2e 0f 1f 84 00 00 00 00 00 	cs nopw 0x0(%rax,%rax,1)
   157ac:	66 2e 0f 1f 84 00 00 00 00 00 	cs nopw 0x0(%rax,%rax,1)
   157b6:	66 2e 0f 1f 84 00 00 00 00 00 	cs nopw 0x0(%rax,%rax,1)
   157c0:	66 2e 0f 1f 84 00 00 00 00 00 	cs nopw 0x0(%rax,%rax,1)
   157ca:	66 2e 0f 1f 84 00 00 00 00 00 	cs nopw 0x0(%rax,%rax,1)
   157d4:	66 2e 0f 1f 84 00 00 00 00 00 	cs nopw 0x0(%rax,%rax,1)
   157de:	66 2e 0f 1f 84 00 00 00 00 00 	cs nopw 0x0(%rax,%rax,1)
   157e8:	66 2e 0f 1f 84 00 00 00 00 00 	cs nopw 0x0(%rax,%rax,1)
   157f2:	66 2e 0f 1f 84 00 00 00 00 00 	cs nopw 0x0(%rax,%rax,1)
   157fc:	66 2e 0f 1f 84 00 00 00 00 00 	cs nopw 0x0(%rax,%rax,1)
   15806:	66 2e 0f 1f 84 00 00 00 00 00 	cs nopw 0x0(%rax,%rax,1)
   15810:	66 2e 0f 1f 84 00 00 00 00 00 	cs nopw 0x0(%rax,%rax,1)
   1581a:	66 2e 0f 1f 84 00 00 00 00 00 	cs nopw 0x0(%rax,%rax,1)
   15824:	66 2e 0f 1f 84 00 00 00 00 00 	cs nopw 0x0(%rax,%rax,1)
   1582e:	66 2e 0f 1f 84 00 00 00 00 00 	cs nopw 0x0(%rax,%rax,1)
   15838:	66 2e 0f 1f 84 00 00 00 00 00 	cs nopw 0x0(%rax,%rax,1)
   15842:	66 2e 0f 1f 84 00 00 00 00 00 	cs nopw 0x0(%rax,%rax,1)
   1584c:	66 2e 0f 1f 84 00 00 00 00 00 	cs nopw 0x0(%rax,%rax,1)
   15856:	66 2e 0f 1f 84 00 00 00 00 00 	cs nopw 0x0(%rax,%rax,1)
   15860:	66 2e 0f 1f 84 00 00 00 00 00 	cs nopw 0x0(%rax,%rax,1)
   1586a:	66 2e 0f 1f 84 00 00 00 00 00 	cs nopw 0x0(%rax,%rax,1)
   15874:	66 2e 0f 1f 84 00 00 00 00 00 	cs nopw 0x0(%rax,%rax,1)
   1587e:	66 2e 0f 1f 84 00 00 00 00 00 	cs nopw 0x0(%rax,%rax,1)
   15888:	66 2e 0f 1f 84 00 00 00 00 00 	cs nopw 0x0(%rax,%rax,1)
   15892:	66 2e 0f 1f 84 00 00 00 00 00 	cs nopw 0x0(%rax,%rax,1)
   1589c:	66 2e 0f 1f 84 00 00 00 00 00 	cs nopw 0x0(%rax,%rax,1)
   158a6:	66 2e 0f 1f 84 00 00 00 00 00 	cs nopw 0x0(%rax,%rax,1)
   158b0:	66 2e 0f 1f 84 00 00 00 00 00 	cs nopw 0x0(%rax,%rax,1)
   158ba:	66 2e 0f 1f 84 00 00 00 00 00 	cs nopw 0x0(%rax,%rax,1)
   158c4:	66 2e 0f 1f 84 00 00 00 00 00 	cs nopw 0x0(%rax,%rax,1)
   158ce:	66 2e 0f 1f 84 00 00 00 00 00 	cs nopw 0x0(%rax,%rax,1)
   158d8:	66 2e 0f 1f 84 00 00 00 00 00 	cs nopw 0x0(%rax,%rax,1)
   158e2:	66 2e 0f 1f 84 00 00 00 00 00 	cs nopw 0x0(%rax,%rax,1)
   158ec:	66 2e 0f 1f 84 00 00 00 00 00 	cs nopw 0x0(%rax,%rax,1)
   158f6:	66 2e 0f 1f 84 00 00 00 00 00 	cs nopw 0x0(%rax,%rax,1)
   15900:	66 2e 0f 1f 84 00 00 00 00 00 	cs nopw 0x0(%rax,%rax,1)
   1590a:	66 2e 0f 1f 84 00 00 00 00 00 	cs nopw 0x0(%rax,%rax,1)
   15914:	66 2e 0f 1f 84 00 00 00 00 00 	cs nopw 0x0(%rax,%rax,1)
   1591e:	66 2e 0f 1f 84 00 00 00 00 00 	cs nopw 0x0(%rax,%rax,1)
   15928:	66 2e 0f 1f 84 00 00 00 00 00 	cs nopw 0x0(%rax,%rax,1)
   15932:	66 2e 0f 1f 84 00 00 00 00 00 	cs nopw 0x0(%rax,%rax,1)
   1593c:	66 2e 0f 1f 84 00 00 00 00 00 	cs nopw 0x0(%rax,%rax,1)
   15946:	66 2e 0f 1f 84 00 00 00 00 00 	cs nopw 0x0(%rax,%rax,1)
   15950:	66 2e 0f 1f 84 00 00 00 00 00 	cs nopw 0x0(%rax,%rax,1)
   1595a:	66 2e 0f 1f 84 00 00 00 00 00 	cs nopw 0x0(%rax,%rax,1)
   15964:	66 2e 0f 1f 84 00 00 00 00 00 	cs nopw 0x0(%rax,%rax,1)
   1596e:	66 2e 0f 1f 84 00 00 00 00 00 	cs nopw 0x0(%rax,%rax,1)
   15978:	66 2e 0f 1f 84 00 00 00 00 00 	cs nopw 0x0(%rax,%rax,1)
   15982:	66 2e 0f 1f 84 00 00 00 00 00 	cs nopw 0x0(%rax,%rax,1)
   1598c:	66 2e 0f 1f 84 00 00 00 00 00 	cs nopw 0x0(%rax,%rax,1)
   15996:	66 2e 0f 1f 84 00 00 00 00 00 	cs nopw 0x0(%rax,%rax,1)
   159a0:	66 2e 0f 1f 84 00 00 00 00 00 	cs nopw 0x0(%rax,%rax,1)
   159aa:	66 2e 0f 1f 84 00 00 00 00 00 	cs nopw 0x0(%rax,%rax,1)
   159b4:	66 2e 0f 1f 84 00 00 00 00 00 	cs nopw 0x0(%rax,%rax,1)
   159be:	66 2e 0f 1f 84 00 00 00 00 00 	cs nopw 0x0(%rax,%rax,1)
   159c8:	66 2e 0f 1f 84 00 00 00 00 00 	cs nopw 0x0(%rax,%rax,1)
   159d2:	66 2e 0f 1f 84 00 00 00 00 00 	cs nopw 0x0(%rax,%rax,1)
   159dc:	66 2e 0f 1f 84 00 00 00 00 00 	cs nopw 0x0(%rax,%rax,1)
   159e6:	66 2e 0f 1f 84 00 00 00 00 00 	cs nopw 0x0(%rax,%rax,1)
   159f0:	66 2e 0f 1f 84 00 00 00 00 00 	cs nopw 0x0(%rax,%rax,1)
   159fa:	66 2e 0f 1f 84 00 00 00 00 00 	cs nopw 0x0(%rax,%rax,1)
   15a04:	66 2e 0f 1f 84 00 00 00 00 00 	cs nopw 0x0(%rax,%rax,1)
   15a0e:	66 2e 0f 1f 84 00 00 00 00 00 	cs nopw 0x0(%rax,%rax,1)
   15a18:	66 2e 0f 1f 84 00 00 00 00 00 	cs nopw 0x0(%rax,%rax,1)
   15a22:	66 2e 0f 1f 84 00 00 00 00 00 	cs nopw 0x0(%rax,%rax,1)
   15a2c:	66 2e 0f 1f 84 00 00 00 00 00 	cs nopw 0x0(%rax,%rax,1)
   15a36:	66 2e 0f 1f 84 00 00 00 00 00 	cs nopw 0x0(%rax,%rax,1)
   15a40:	66 2e 0f 1f 84 00 00 00 00 00 	cs nopw 0x0(%rax,%rax,1)
   15a4a:	66 2e 0f 1f 84 00 00 00 00 00 	cs nopw 0x0(%rax,%rax,1)
   15a54:	66 2e 0f 1f 84 00 00 00 00 00 	cs nopw 0x0(%rax,%rax,1)
   15a5e:	66 2e 0f 1f 84 00 00 00 00 00 	cs nopw 0x0(%rax,%rax,1)
   15a68:	66 2e 0f 1f 84 00 00 00 00 00 	cs nopw 0x0(%rax,%rax,1)
   15a72:	66 2e 0f 1f 84 00 00 00 00 00 	cs nopw 0x0(%rax,%rax,1)
   15a7c:	66 2e 0f 1f 84 00 00 00 00 00 	cs nopw 0x0(%rax,%rax,1)
   15a86:	66 2e 0f 1f 84 00 00 00 00 00 	cs nopw 0x0(%rax,%rax,1)
   15a90:	66 2e 0f 1f 84 00 00 00 00 00 	cs nopw 0x0(%rax,%rax,1)
   15a9a:	66 2e 0f 1f 84 00 00 00 00 00 	cs nopw 0x0(%rax,%rax,1)
   15aa4:	66 2e 0f 1f 84 00 00 00 00 00 	cs nopw 0x0(%rax,%rax,1)
   15aae:	66 2e 0f 1f 84 00 00 00 00 00 	cs nopw 0x0(%rax,%rax,1)
   15ab8:	66 2e 0f 1f 84 00 00 00 00 00 	cs nopw 0x0(%rax,%rax,1)
   15ac2:	66 2e 0f 1f 84 00 00 00 00 00 	cs nopw 0x0(%rax,%rax,1)
   15acc:	66 2e 0f 1f 84 00 00 00 00 00 	cs nopw 0x0(%rax,%rax,1)
   15ad6:	66 2e 0f 1f 84 00 00 00 00 00 	cs nopw 0x0(%rax,%rax,1)
   15ae0:	66 2e 0f 1f 84 00 00 00 00 00 	cs nopw 0x0(%rax,%rax,1)
   15aea:	66 2e 0f 1f 84 00 00 00 00 00 	cs nopw 0x0(%rax,%rax,1)
   15af4:	66 2e 0f 1f 84 00 00 00 00 00 	cs nopw 0x0(%rax,%rax,1)
   15afe:	66 2e 0f 1f 84 00 00 00 00 00 	cs nopw 0x0(%rax,%rax,1)
   15b08:	66 2e 0f 1f 84 00 00 00 00 00 	cs nopw 0x0(%rax,%rax,1)
   15b12:	66 2e 0f 1f 84 00 00 00 00 00 	cs nopw 0x0(%rax,%rax,1)
   15b1c:	66 2e 0f 1f 84 00 00 00 00 00 	cs nopw 0x0(%rax,%rax,1)
   15b26:	66 2e 0f 1f 84 00 00 00 00 00 	cs nopw 0x0(%rax,%rax,1)
   15b30:	66 2e 0f 1f 84 00 00 00 00 00 	cs nopw 0x0(%rax,%rax,1)
   15b3a:	66 2e 0f 1f 84 00 00 00 00 00 	cs nopw 0x0(%rax,%rax,1)
   15b44:	66 2e 0f 1f 84 00 00 00 00 00 	cs nopw 0x0(%rax,%rax,1)
   15b4e:	66 2e 0f 1f 84 00 00 00 00 00 	cs nopw 0x0(%rax,%rax,1)
   15b58:	66 2e 0f 1f 84 00 00 00 00 00 	cs nopw 0x0(%rax,%rax,1)
   15b62:	66 2e 0f 1f 84 00 00 00 00 00 	cs nopw 0x0(%rax,%rax,1)
   15b6c:	66 2e 0f 1f 84 00 00 00 00 00 	cs nopw 0x0(%rax,%rax,1)
   15b76:	66 2e 0f 1f 84 00 00 00 00 00 	cs nopw 0x0(%rax,%rax,1)
   15b80:	66 2e 0f 1f 84 00 00 00 00 00 	cs nopw 0x0(%rax,%rax,1)
   15b8a:	66 2e 0f 1f 84 00 00 00 00 00 	cs nopw 0x0(%rax,%rax,1)
   15b94:	66 2e 0f 1f 84 00 00 00 00 00 	cs nopw 0x0(%rax,%rax,1)
   15b9e:	66 2e 0f 1f 84 00 00 00 00 00 	cs nopw 0x0(%rax,%rax,1)
   15ba8:	66 2e 0f 1f 84 00 00 00 00 00 	cs nopw 0x0(%rax,%rax,1)
   15bb2:	66 2e 0f 1f 84 00 00 00 00 00 	cs nopw 0x0(%rax,%rax,1)
   15bbc:	66 2e 0f 1f 84 00 00 00 00 00 	cs nopw 0x0(%rax,%rax,1)
   15bc6:	66 2e 0f 1f 84 00 00 00 00 00 	cs nopw 0x0(%rax,%rax,1)
   15bd0:	66 2e 0f 1f 84 00 00 00 00 00 	cs nopw 0x0(%rax,%rax,1)
   15bda:	66 2e 0f 1f 84 00 00 00 00 00 	cs nopw 0x0(%rax,%rax,1)
   15be4:	66 2e 0f 1f 84 00 00 00 00 00 	cs nopw 0x0(%rax,%rax,1)
   15bee:	66 2e 0f 1f 84 00 00 00 00 00 	cs nopw 0x0(%rax,%rax,1)
   15bf8:	66 2e 0f 1f 84 00 00 00 00 00 	cs nopw 0x0(%rax,%rax,1)
   15c02:	66 2e 0f 1f 84 00 00 00 00 00 	cs nopw 0x0(%rax,%rax,1)
   15c0c:	66 2e 0f 1f 84 00 00 00 00 00 	cs nopw 0x0(%rax,%rax,1)
   15c16:	66 2e 0f 1f 84 00 00 00 00 00 	cs nopw 0x0(%rax,%rax,1)
   15c20:	66 2e 0f 1f 84 00 00 00 00 00 	cs nopw 0x0(%rax,%rax,1)
   15c2a:	66 2e 0f 1f 84 00 00 00 00 00 	cs nopw 0x0(%rax,%rax,1)
   15c34:	66 2e 0f 1f 84 00 00 00 00 00 	cs nopw 0x0(%rax,%rax,1)
   15c3e:	66 2e 0f 1f 84 00 00 00 00 00 	cs nopw 0x0(%rax,%rax,1)
   15c48:	66 2e 0f 1f 84 00 00 00 00 00 	cs nopw 0x0(%rax,%rax,1)
   15c52:	66 2e 0f 1f 84 00 00 00 00 00 	cs nopw 0x0(%rax,%rax,1)
   15c5c:	66 2e 0f 1f 84 00 00 00 00 00 	cs nopw 0x0(%rax,%rax,1)
   15c66:	66 2e 0f 1f 84 00 00 00 00 00 	cs nopw 0x0(%rax,%rax,1)
   15c70:	66 2e 0f 1f 84 00 00 00 00 00 	cs nopw 0x0(%rax,%rax,1)
   15c7a:	66 2e 0f 1f 84 00 00 00 00 00 	cs nopw 0x0(%rax,%rax,1)
   15c84:	66 2e 0f 1f 84 00 00 00 00 00 	cs nopw 0x0(%rax,%rax,1)
   15c8e:	66 2e 0f 1f 84 00 00 00 00 00 	cs nopw 0x0(%rax,%rax,1)
   15c98:	66 2e 0f 1f 84 00 00 00 00 00 	cs nopw 0x0(%rax,%rax,1)
   15ca2:	66 2e 0f 1f 84 00 00 00 00 00 	cs nopw 0x0(%rax,%rax,1)
   15cac:	66 2e 0f 1f 84 00 00 00 00 00 	cs nopw 0x0(%rax,%rax,1)
   15cb6:	66 2e 0f 1f 84 00 00 00 00 00 	cs nopw 0x0(%rax,%rax,1)
   15cc0:	66 2e 0f 1f 84 00 00 00 00 00 	cs nopw 0x0(%rax,%rax,1)
   15cca:	66 2e 0f 1f 84 00 00 00 00 00 	cs nopw 0x0(%rax,%rax,1)
   15cd4:	66 2e 0f 1f 84 00 00 00 00 00 	cs nopw 0x0(%rax,%rax,1)
   15cde:	66 2e 0f 1f 84 00 00 00 00 00 	cs nopw 0x0(%rax,%rax,1)
   15ce8:	66 2e 0f 1f 84 00 00 00 00 00 	cs nopw 0x0(%rax,%rax,1)
   15cf2:	66 2e 0f 1f 84 00 00 00 00 00 	cs nopw 0x0(%rax,%rax,1)
   15cfc:	66 2e 0f 1f 84 00 00 00 00 00 	cs nopw 0x0(%rax,%rax,1)
   15d06:	66 2e 0f 1f 84 00 00 00 00 00 	cs nopw 0x0(%rax,%rax,1)
   15d10:	66 2e 0f 1f 84 00 00 00 00 00 	cs nopw 0x0(%rax,%rax,1)
   15d1a:	66 2e 0f 1f 84 00 00 00 00 00 	cs nopw 0x0(%rax,%rax,1)
   15d24:	66 2e 0f 1f 84 00 00 00 00 00 	cs nopw 0x0(%rax,%rax,1)
   15d2e:	66 2e 0f 1f 84 00 00 00 00 00 	cs nopw 0x0(%rax,%rax,1)
   15d38:	66 2e 0f 1f 84 00 00 00 00 00 	cs nopw 0x0(%rax,%rax,1)
   15d42:	66 2e 0f 1f 84 00 00 00 00 00 	cs nopw 0x0(%rax,%rax,1)
   15d4c:	66 2e 0f 1f 84 00 00 00 00 00 	cs nopw 0x0(%rax,%rax,1)
   15d56:	66 2e 0f 1f 84 00 00 00 00 00 	cs nopw 0x0(%rax,%rax,1)
   15d60:	66 2e 0f 1f 84 00 00 00 00 00 	cs nopw 0x0(%rax,%rax,1)
   15d6a:	66 2e 0f 1f 84 00 00 00 00 00 	cs nopw 0x0(%rax,%rax,1)
   15d74:	66 2e 0f 1f 84 00 00 00 00 00 	cs nopw 0x0(%rax,%rax,1)
   15d7e:	66 2e 0f 1f 84 00 00 00 00 00 	cs nopw 0x0(%rax,%rax,1)
   15d88:	66 2e 0f 1f 84 00 00 00 00 00 	cs nopw 0x0(%rax,%rax,1)
   15d92:	66 2e 0f 1f 84 00 00 00 00 00 	cs nopw 0x0(%rax,%rax,1)
   15d9c:	66 2e 0f 1f 84 00 00 00 00 00 	cs nopw 0x0(%rax,%rax,1)
   15da6:	66 2e 0f 1f 84 00 00 00 00 00 	cs nopw 0x0(%rax,%rax,1)
   15db0:	66 2e 0f 1f 84 00 00 00 00 00 	cs nopw 0x0(%rax,%rax,1)
   15dba:	66 2e 0f 1f 84 00 00 00 00 00 	cs nopw 0x0(%rax,%rax,1)
   15dc4:	66 2e 0f 1f 84 00 00 00 00 00 	cs nopw 0x0(%rax,%rax,1)
   15dce:	66 2e 0f 1f 84 00 00 00 00 00 	cs nopw 0x0(%rax,%rax,1)
   15dd8:	66 2e 0f 1f 84 00 00 00 00 00 	cs nopw 0x0(%rax,%rax,1)
   15de2:	66 2e 0f 1f 84 00 00 00 00 00 	cs nopw 0x0(%rax,%rax,1)
   15dec:	66 2e 0f 1f 84 00 00 00 00 00 	cs nopw 0x0(%rax,%rax,1)
   15df6:	66 2e 0f 1f 84 00 00 00 00 00 	cs nopw 0x0(%rax,%rax,1)
   15e00:	66 2e 0f 1f 84 00 00 00 00 00 	cs nopw 0x0(%rax,%rax,1)
   15e0a:	66 2e 0f 1f 84 00 00 00 00 00 	cs nopw 0x0(%rax,%rax,1)
   15e14:	66 2e 0f 1f 84 00 00 00 00 00 	cs nopw 0x0(%rax,%rax,1)
   15e1e:	66 2e 0f 1f 84 00 00 00 00 00 	cs nopw 0x0(%rax,%rax,1)
   15e28:	66 2e 0f 1f 84 00 00 00 00 00 	cs nopw 0x0(%rax,%rax,1)
   15e32:	66 2e 0f 1f 84 00 00 00 00 00 	cs nopw 0x0(%rax,%rax,1)
   15e3c:	66 2e 0f 1f 84 00 00 00 00 00 	cs nopw 0x0(%rax,%rax,1)
   15e46:	66 2e 0f 1f 84 00 00 00 00 00 	cs nopw 0x0(%rax,%rax,1)
   15e50:	66 2e 0f 1f 84 00 00 00 00 00 	cs nopw 0x0(%rax,%rax,1)
   15e5a:	66 2e 0f 1f 84 00 00 00 00 00 	cs nopw 0x0(%rax,%rax,1)
   15e64:	66 2e 0f 1f 84 00 00 00 00 00 	cs nopw 0x0(%rax,%rax,1)
   15e6e:	66 2e 0f 1f 84 00 00 00 00 00 	cs nopw 0x0(%rax,%rax,1)
   15e78:	66 2e 0f 1f 84 00 00 00 00 00 	cs nopw 0x0(%rax,%rax,1)
   15e82:	66 2e 0f 1f 84 00 00 00 00 00 	cs nopw 0x0(%rax,%rax,1)
   15e8c:	66 2e 0f 1f 84 00 00 00 00 00 	cs nopw 0x0(%rax,%rax,1)
   15e96:	66 2e 0f 1f 84 00 00 00 00 00 	cs nopw 0x0(%rax,%rax,1)
   15ea0:	66 2e 0f 1f 84 00 00 00 00 00 	cs nopw 0x0(%rax,%rax,1)
   15eaa:	66 2e 0f 1f 84 00 00 00 00 00 	cs nopw 0x0(%rax,%rax,1)
   15eb4:	66 2e 0f 1f 84 00 00 00 00 00 	cs nopw 0x0(%rax,%rax,1)
   15ebe:	66 2e 0f 1f 84 00 00 00 00 00 	cs nopw 0x0(%rax,%rax,1)
   15ec8:	66 2e 0f 1f 84 00 00 00 00 00 	cs nopw 0x0(%rax,%rax,1)
   15ed2:	66 2e 0f 1f 84 00 00 00 00 00 	cs nopw 0x0(%rax,%rax,1)
   15edc:	66 2e 0f 1f 84 00 00 00 00 00 	cs nopw 0x0(%rax,%rax,1)
   15ee6:	66 2e 0f 1f 84 00 00 00 00 00 	cs nopw 0x0(%rax,%rax,1)
   15ef0:	66 2e 0f 1f 84 00 00 00 00 00 	cs nopw 0x0(%rax,%rax,1)
   15efa:	66 2e 0f 1f 84 00 00 00 00 00 	cs nopw 0x0(%rax,%rax,1)
   15f04:	66 2e 0f 1f 84 00 00 00 00 00 	cs nopw 0x0(%rax,%rax,1)
   15f0e:	66 2e 0f 1f 84 00 00 00 00 00 	cs nopw 0x0(%rax,%rax,1)
   15f18:	66 2e 0f 1f 84 00 00 00 00 00 	cs nopw 0x0(%rax,%rax,1)
   15f22:	66 2e 0f 1f 84 00 00 00 00 00 	cs nopw 0x0(%rax,%rax,1)
   15f2c:	66 2e 0f 1f 84 00 00 00 00 00 	cs nopw 0x0(%rax,%rax,1)
   15f36:	66 2e 0f 1f 84 00 00 00 00 00 	cs nopw 0x0(%rax,%rax,1)
   15f40:	66 2e 0f 1f 84 00 00 00 00 00 	cs nopw 0x0(%rax,%rax,1)
   15f4a:	66 2e 0f 1f 84 00 00 00 00 00 	cs nopw 0x0(%rax,%rax,1)
   15f54:	66 2e 0f 1f 84 00 00 00 00 00 	cs nopw 0x0(%rax,%rax,1)
   15f5e:	66 2e 0f 1f 84 00 00 00 00 00 	cs nopw 0x0(%rax,%rax,1)
   15f68:	66 2e 0f 1f 84 00 00 00 00 00 	cs nopw 0x0(%rax,%rax,1)
   15f72:	66 2e 0f 1f 84 00 00 00 00 00 	cs nopw 0x0(%rax,%rax,1)
   15f7c:	66 2e 0f 1f 84 00 00 00 00 00 	cs nopw 0x0(%rax,%rax,1)
   15f86:	66 2e 0f 1f 84 00 00 00 00 00 	cs nopw 0x0(%rax,%rax,1)
   15f90:	66 2e 0f 1f 84 00 00 00 00 00 	cs nopw 0x0(%rax,%rax,1)
   15f9a:	66 2e 0f 1f 84 00 00 00 00 00 	cs nopw 0x0(%rax,%rax,1)
   15fa4:	66 2e 0f 1f 84 00 00 00 00 00 	cs nopw 0x0(%rax,%rax,1)
   15fae:	66 2e 0f 1f 84 00 00 00 00 00 	cs nopw 0x0(%rax,%rax,1)
   15fb8:	66 2e 0f 1f 84 00 00 00 00 00 	cs nopw 0x0(%rax,%rax,1)
   15fc2:	66 2e 0f 1f 84 00 00 00 00 00 	cs nopw 0x0(%rax,%rax,1)
   15fcc:	66 2e 0f 1f 84 00 00 00 00 00 	cs nopw 0x0(%rax,%rax,1)
   15fd6:	66 2e 0f 1f 84 00 00 00 00 00 	cs nopw 0x0(%rax,%rax,1)
   15fe0:	66 2e 0f 1f 84 00 00 00 00 00 	cs nopw 0x0(%rax,%rax,1)
   15fea:	66 2e 0f 1f 84 00 00 00 00 00 	cs nopw 0x0(%rax,%rax,1)
   15ff4:	66 2e 0f 1f 84 00 00 00 00 00 	cs nopw 0x0(%rax,%rax,1)
   15ffe:	66 2e 0f 1f 84 00 00 00 00 00 	cs nopw 0x0(%rax,%rax,1)
   16008:	66 2e 0f 1f 84 00 00 00 00 00 	cs nopw 0x0(%rax,%rax,1)
   16012:	66 2e 0f 1f 84 00 00 00 00 00 	cs nopw 0x0(%rax,%rax,1)
   1601c:	66 2e 0f 1f 84 00 00 00 00 00 	cs nopw 0x0(%rax,%rax,1)
   16026:	66 2e 0f 1f 84 00 00 00 00 00 	cs nopw 0x0(%rax,%rax,1)
   16030:	66 2e 0f 1f 84 00 00 00 00 00 	cs nopw 0x0(%rax,%rax,1)
   1603a:	66 2e 0f 1f 84 00 00 00 00 00 	cs nopw 0x0(%rax,%rax,1)
   16044:	66 2e 0f 1f 84 00 00 00 00 00 	cs nopw 0x0(%rax,%rax,1)
   1604e:	66 2e 0f 1f 84 00 00 00 00 00 	cs nopw 0x0(%rax,%rax,1)
   16058:	66 2e 0f 1f 84 00 00 00 00 00 	cs nopw 0x0(%rax,%rax,1)
   16062:	66 2e 0f 1f 84 00 00 00 00 00 	cs nopw 0x0(%rax,%rax,1)
   1606c:	66 2e 0f 1f 84 00 00 00 00 00 	cs nopw 0x0(%rax,%rax,1)
   16076:	66 2e 0f 1f 84 00 00 00 00 00 	cs nopw 0x0(%rax,%rax,1)
   16080:	66 2e 0f 1f 84 00 00 00 00 00 	cs nopw 0x0(%rax,%rax,1)
   1608a:	66 2e 0f 1f 84 00 00 00 00 00 	cs nopw 0x0(%rax,%rax,1)
   16094:	66 2e 0f 1f 84 00 00 00 00 00 	cs nopw 0x0(%rax,%rax,1)
   1609e:	66 2e 0f 1f 84 00 00 00 00 00 	cs nopw 0x0(%rax,%rax,1)
   160a8:	66 2e 0f 1f 84 00 00 00 00 00 	cs nopw 0x0(%rax,%rax,1)
   160b2:	66 2e 0f 1f 84 00 00 00 00 00 	cs nopw 0x0(%rax,%rax,1)
   160bc:	66 2e 0f 1f 84 00 00 00 00 00 	cs nopw 0x0(%rax,%rax,1)
   160c6:	66 2e 0f 1f 84 00 00 00 00 00 	cs nopw 0x0(%rax,%rax,1)
   160d0:	66 2e 0f 1f 84 00 00 00 00 00 	cs nopw 0x0(%rax,%rax,1)
   160da:	66 2e 0f 1f 84 00 00 00 00 00 	cs nopw 0x0(%rax,%rax,1)
   160e4:	66 2e 0f 1f 84 00 00 00 00 00 	cs nopw 0x0(%rax,%rax,1)
   160ee:	66 2e 0f 1f 84 00 00 00 00 00 	cs nopw 0x0(%rax,%rax,1)
   160f8:	66 2e 0f 1f 84 00 00 00 00 00 	cs nopw 0x0(%rax,%rax,1)
   16102:	66 2e 0f 1f 84 00 00 00 00 00 	cs nopw 0x0(%rax,%rax,1)
   1610c:	66 2e 0f 1f 84 00 00 00 00 00 	cs nopw 0x0(%rax,%rax,1)
   16116:	66 2e 0f 1f 84 00 00 00 00 00 	cs nopw 0x0(%rax,%rax,1)
   16120:	66 2e 0f 1f 84 00 00 00 00 00 	cs nopw 0x0(%rax,%rax,1)
   1612a:	66 2e 0f 1f 84 00 00 00 00 00 	cs nopw 0x0(%rax,%rax,1)
   16134:	66 2e 0f 1f 84 00 00 00 00 00 	cs nopw 0x0(%rax,%rax,1)
   1613e:	66 2e 0f 1f 84 00 00 00 00 00 	cs nopw 0x0(%rax,%rax,1)
   16148:	66 2e 0f 1f 84 00 00 00 00 00 	cs nopw 0x0(%rax,%rax,1)
   16152:	66 2e 0f 1f 84 00 00 00 00 00 	cs nopw 0x0(%rax,%rax,1)
   1615c:	66 2e 0f 1f 84 00 00 00 00 00 	cs nopw 0x0(%rax,%rax,1)
   16166:	66 2e 0f 1f 84 00 00 00 00 00 	cs nopw 0x0(%rax,%rax,1)
   16170:	66 2e 0f 1f 84 00 00 00 00 00 	cs nopw 0x0(%rax,%rax,1)
   1617a:	66 2e 0f 1f 84 00 00 00 00 00 	cs nopw 0x0(%rax,%rax,1)
   16184:	66 2e 0f 1f 84 00 00 00 00 00 	cs nopw 0x0(%rax,%rax,1)
   1618e:	66 2e 0f 1f 84 00 00 00 00 00 	cs nopw 0x0(%rax,%rax,1)
   16198:	66 2e 0f 1f 84 00 00 00 00 00 	cs nopw 0x0(%rax,%rax,1)
   161a2:	66 2e 0f 1f 84 00 00 00 00 00 	cs nopw 0x0(%rax,%rax,1)
   161ac:	66 2e 0f 1f 84 00 00 00 00 00 	cs nopw 0x0(%rax,%rax,1)
   161b6:	66 2e 0f 1f 84 00 00 00 00 00 	cs nopw 0x0(%rax,%rax,1)
   161c0:	66 2e 0f 1f 84 00 00 00 00 00 	cs nopw 0x0(%rax,%rax,1)
   161ca:	66 2e 0f 1f 84 00 00 00 00 00 	cs nopw 0x0(%rax,%rax,1)
   161d4:	66 2e 0f 1f 84 00 00 00 00 00 	cs nopw 0x0(%rax,%rax,1)
   161de:	66 2e 0f 1f 84 00 00 00 00 00 	cs nopw 0x0(%rax,%rax,1)
   161e8:	66 2e 0f 1f 84 00 00 00 00 00 	cs nopw 0x0(%rax,%rax,1)
   161f2:	66 2e 0f 1f 84 00 00 00 00 00 	cs nopw 0x0(%rax,%rax,1)
   161fc:	66 2e 0f 1f 84 00 00 00 00 00 	cs nopw 0x0(%rax,%rax,1)
   16206:	66 2e 0f 1f 84 00 00 00 00 00 	cs nopw 0x0(%rax,%rax,1)
   16210:	66 2e 0f 1f 84 00 00 00 00 00 	cs nopw 0x0(%rax,%rax,1)
   1621a:	66 2e 0f 1f 84 00 00 00 00 00 	cs nopw 0x0(%rax,%rax,1)
   16224:	66 2e 0f 1f 84 00 00 00 00 00 	cs nopw 0x0(%rax,%rax,1)
   1622e:	66 2e 0f 1f 84 00 00 00 00 00 	cs nopw 0x0(%rax,%rax,1)
   16238:	66 2e 0f 1f 84 00 00 00 00 00 	cs nopw 0x0(%rax,%rax,1)
   16242:	66 2e 0f 1f 84 00 00 00 00 00 	cs nopw 0x0(%rax,%rax,1)
   1624c:	66 2e 0f 1f 84 00 00 00 00 00 	cs nopw 0x0(%rax,%rax,1)
   16256:	66 2e 0f 1f 84 00 00 00 00 00 	cs nopw 0x0(%rax,%rax,1)
   16260:	66 2e 0f 1f 84 00 00 00 00 00 	cs nopw 0x0(%rax,%rax,1)
   1626a:	66 2e 0f 1f 84 00 00 00 00 00 	cs nopw 0x0(%rax,%rax,1)
   16274:	66 2e 0f 1f 84 00 00 00 00 00 	cs nopw 0x0(%rax,%rax,1)
   1627e:	66 2e 0f 1f 84 00 00 00 00 00 	cs nopw 0x0(%rax,%rax,1)
   16288:	66 2e 0f 1f 84 00 00 00 00 00 	cs nopw 0x0(%rax,%rax,1)
   16292:	66 2e 0f 1f 84 00 00 00 00 00 	cs nopw 0x0(%rax,%rax,1)
   1629c:	66 2e 0f 1f 84 00 00 00 00 00 	cs nopw 0x0(%rax,%rax,1)
   162a6:	66 2e 0f 1f 84 00 00 00 00 00 	cs nopw 0x0(%rax,%rax,1)
   162b0:	66 2e 0f 1f 84 00 00 00 00 00 	cs nopw 0x0(%rax,%rax,1)
   162ba:	66 2e 0f 1f 84 00 00 00 00 00 	cs nopw 0x0(%rax,%rax,1)
   162c4:	66 2e 0f 1f 84 00 00 00 00 00 	cs nopw 0x0(%rax,%rax,1)
   162ce:	66 2e 0f 1f 84 00 00 00 00 00 	cs nopw 0x0(%rax,%rax,1)
   162d8:	66 2e 0f 1f 84 00 00 00 00 00 	cs nopw 0x0(%rax,%rax,1)
   162e2:	66 2e 0f 1f 84 00 00 00 00 00 	cs nopw 0x0(%rax,%rax,1)
   162ec:	66 2e 0f 1f 84 00 00 00 00 00 	cs nopw 0x0(%rax,%rax,1)
   162f6:	66 2e 0f 1f 84 00 00 00 00 00 	cs nopw 0x0(%rax,%rax,1)
   16300:	66 2e 0f 1f 84 00 00 00 00 00 	cs nopw 0x0(%rax,%rax,1)
   1630a:	66 2e 0f 1f 84 00 00 00 00 00 	cs nopw 0x0(%rax,%rax,1)
   16314:	66 2e 0f 1f 84 00 00 00 00 00 	cs nopw 0x0(%rax,%rax,1)
   1631e:	66 2e 0f 1f 84 00 00 00 00 00 	cs nopw 0x0(%rax,%rax,1)
   16328:	66 2e 0f 1f 84 00 00 00 00 00 	cs nopw 0x0(%rax,%rax,1)
   16332:	66 2e 0f 1f 84 00 00 00 00 00 	cs nopw 0x0(%rax,%rax,1)
   1633c:	66 2e 0f 1f 84 00 00 00 00 00 	cs nopw 0x0(%rax,%rax,1)
   16346:	66 2e 0f 1f 84 00 00 00 00 00 	cs nopw 0x0(%rax,%rax,1)
   16350:	66 2e 0f 1f 84 00 00 00 00 00 	cs nopw 0x0(%rax,%rax,1)
   1635a:	66 2e 0f 1f 84 00 00 00 00 00 	cs nopw 0x0(%rax,%rax,1)
   16364:	66 2e 0f 1f 84 00 00 00 00 00 	cs nopw 0x0(%rax,%rax,1)
   1636e:	66 2e 0f 1f 84 00 00 00 00 00 	cs nopw 0x0(%rax,%rax,1)
   16378:	66 2e 0f 1f 84 00 00 00 00 00 	cs nopw 0x0(%rax,%rax,1)
   16382:	66 2e 0f 1f 84 00 00 00 00 00 	cs nopw 0x0(%rax,%rax,1)
   1638c:	66 2e 0f 1f 84 00 00 00 00 00 	cs nopw 0x0(%rax,%rax,1)
   16396:	66 2e 0f 1f 84 00 00 00 00 00 	cs nopw 0x0(%rax,%rax,1)
   163a0:	66 2e 0f 1f 84 00 00 00 00 00 	cs nopw 0x0(%rax,%rax,1)
   163aa:	66 2e 0f 1f 84 00 00 00 00 00 	cs nopw 0x0(%rax,%rax,1)
   163b4:	66 2e 0f 1f 84 00 00 00 00 00 	cs nopw 0x0(%rax,%rax,1)
   163be:	66 2e 0f 1f 84 00 00 00 00 00 	cs nopw 0x0(%rax,%rax,1)
   163c8:	66 2e 0f 1f 84 00 00 00 00 00 	cs nopw 0x0(%rax,%rax,1)
   163d2:	66 2e 0f 1f 84 00 00 00 00 00 	cs nopw 0x0(%rax,%rax,1)
   163dc:	66 2e 0f 1f 84 00 00 00 00 00 	cs nopw 0x0(%rax,%rax,1)
   163e6:	66 2e 0f 1f 84 00 00 00 00 00 	cs nopw 0x0(%rax,%rax,1)
   163f0:	66 2e 0f 1f 84 00 00 00 00 00 	cs nopw 0x0(%rax,%rax,1)
   163fa:	66 2e 0f 1f 84 00 00 00 00 00 	cs nopw 0x0(%rax,%rax,1)
   16404:	66 2e 0f 1f 84 00 00 00 00 00 	cs nopw 0x0(%rax,%rax,1)
   1640e:	66 2e 0f 1f 84 00 00 00 00 00 	cs nopw 0x0(%rax,%rax,1)
   16418:	66 2e 0f 1f 84 00 00 00 00 00 	cs nopw 0x0(%rax,%rax,1)
   16422:	66 2e 0f 1f 84 00 00 00 00 00 	cs nopw 0x0(%rax,%rax,1)
   1642c:	66 2e 0f 1f 84 00 00 00 00 00 	cs nopw 0x0(%rax,%rax,1)
   16436:	66 2e 0f 1f 84 00 00 00 00 00 	cs nopw 0x0(%rax,%rax,1)
   16440:	66 2e 0f 1f 84 00 00 00 00 00 	cs nopw 0x0(%rax,%rax,1)
   1644a:	66 2e 0f 1f 84 00 00 00 00 00 	cs nopw 0x0(%rax,%rax,1)
   16454:	66 2e 0f 1f 84 00 00 00 00 00 	cs nopw 0x0(%rax,%rax,1)
   1645e:	66 2e 0f 1f 84 00 00 00 00 00 	cs nopw 0x0(%rax,%rax,1)
   16468:	66 2e 0f 1f 84 00 00 00 00 00 	cs nopw 0x0(%rax,%rax,1)
   16472:	66 2e 0f 1f 84 00 00 00 00 00 	cs nopw 0x0(%rax,%rax,1)
   1647c:	66 2e 0f 1f 84 00 00 00 00 00 	cs nopw 0x0(%rax,%rax,1)
   16486:	66 2e 0f 1f 84 00 00 00 00 00 	cs nopw 0x0(%rax,%rax,1)
   16490:	66 2e 0f 1f 84 00 00 00 00 00 	cs nopw 0x0(%rax,%rax,1)
   1649a:	66 2e 0f 1f 84 00 00 00 00 00 	cs nopw 0x0(%rax,%rax,1)
   164a4:	66 2e 0f 1f 84 00 00 00 00 00 	cs nopw 0x0(%rax,%rax,1)
   164ae:	66 2e 0f 1f 84 00 00 00 00 00 	cs nopw 0x0(%rax,%rax,1)
   164b8:	66 2e 0f 1f 84 00 00 00 00 00 	cs nopw 0x0(%rax,%rax,1)
   164c2:	66 2e 0f 1f 84 00 00 00 00 00 	cs nopw 0x0(%rax,%rax,1)
   164cc:	66 2e 0f 1f 84 00 00 00 00 00 	cs nopw 0x0(%rax,%rax,1)
   164d6:	66 2e 0f 1f 84 00 00 00 00 00 	cs nopw 0x0(%rax,%rax,1)
   164e0:	66 2e 0f 1f 84 00 00 00 00 00 	cs nopw 0x0(%rax,%rax,1)
   164ea:	66 2e 0f 1f 84 00 00 00 00 00 	cs nopw 0x0(%rax,%rax,1)
   164f4:	66 2e 0f 1f 84 00 00 00 00 00 	cs nopw 0x0(%rax,%rax,1)
   164fe:	66 2e 0f 1f 84 00 00 00 00 00 	cs nopw 0x0(%rax,%rax,1)
   16508:	66 2e 0f 1f 84 00 00 00 00 00 	cs nopw 0x0(%rax,%rax,1)
   16512:	66 2e 0f 1f 84 00 00 00 00 00 	cs nopw 0x0(%rax,%rax,1)
   1651c:	66 2e 0f 1f 84 00 00 00 00 00 	cs nopw 0x0(%rax,%rax,1)
   16526:	66 2e 0f 1f 84 00 00 00 00 00 	cs nopw 0x0(%rax,%rax,1)
   16530:	66 2e 0f 1f 84 00 00 00 00 00 	cs nopw 0x0(%rax,%rax,1)
   1653a:	66 2e 0f 1f 84 00 00 00 00 00 	cs nopw 0x0(%rax,%rax,1)
   16544:	66 2e 0f 1f 84 00 00 00 00 00 	cs nopw 0x0(%rax,%rax,1)
   1654e:	66 2e 0f 1f 84 00 00 00 00 00 	cs nopw 0x0(%rax,%rax,1)
   16558:	66 2e 0f 1f 84 00 00 00 00 00 	cs nopw 0x0(%rax,%rax,1)
   16562:	66 2e 0f 1f 84 00 00 00 00 00 	cs nopw 0x0(%rax,%rax,1)
   1656c:	66 2e 0f 1f 84 00 00 00 00 00 	cs nopw 0x0(%rax,%rax,1)
   16576:	66 2e 0f 1f 84 00 00 00 00 00 	cs nopw 0x0(%rax,%rax,1)
   16580:	66 2e 0f 1f 84 00 00 00 00 00 	cs nopw 0x0(%rax,%rax,1)
   1658a:	66 2e 0f 1f 84 00 00 00 00 00 	cs nopw 0x0(%rax,%rax,1)
   16594:	66 2e 0f 1f 84 00 00 00 00 00 	cs nopw 0x0(%rax,%rax,1)
   1659e:	66 2e 0f 1f 84 00 00 00 00 00 	cs nopw 0x0(%rax,%rax,1)
   165a8:	66 2e 0f 1f 84 00 00 00 00 00 	cs nopw 0x0(%rax,%rax,1)
   165b2:	66 2e 0f 1f 84 00 00 00 00 00 	cs nopw 0x0(%rax,%rax,1)
   165bc:	66 2e 0f 1f 84 00 00 00 00 00 	cs nopw 0x0(%rax,%rax,1)
   165c6:	66 2e 0f 1f 84 00 00 00 00 00 	cs nopw 0x0(%rax,%rax,1)
   165d0:	66 2e 0f 1f 84 00 00 00 00 00 	cs nopw 0x0(%rax,%rax,1)
   165da:	66 2e 0f 1f 84 00 00 00 00 00 	cs nopw 0x0(%rax,%rax,1)
   165e4:	66 2e 0f 1f 84 00 00 00 00 00 	cs nopw 0x0(%rax,%rax,1)
   165ee:	66 2e 0f 1f 84 00 00 00 00 00 	cs nopw 0x0(%rax,%rax,1)
   165f8:	66 2e 0f 1f 84 00 00 00 00 00 	cs nopw 0x0(%rax,%rax,1)
   16602:	66 2e 0f 1f 84 00 00 00 00 00 	cs nopw 0x0(%rax,%rax,1)
   1660c:	66 2e 0f 1f 84 00 00 00 00 00 	cs nopw 0x0(%rax,%rax,1)
   16616:	66 2e 0f 1f 84 00 00 00 00 00 	cs nopw 0x0(%rax,%rax,1)
   16620:	66 2e 0f 1f 84 00 00 00 00 00 	cs nopw 0x0(%rax,%rax,1)
   1662a:	66 2e 0f 1f 84 00 00 00 00 00 	cs nopw 0x0(%rax,%rax,1)
   16634:	66 2e 0f 1f 84 00 00 00 00 00 	cs nopw 0x0(%rax,%rax,1)
   1663e:	66 2e 0f 1f 84 00 00 00 00 00 	cs nopw 0x0(%rax,%rax,1)
   16648:	66 2e 0f 1f 84 00 00 00 00 00 	cs nopw 0x0(%rax,%rax,1)
   16652:	66 2e 0f 1f 84 00 00 00 00 00 	cs nopw 0x0(%rax,%rax,1)
   1665c:	66 2e 0f 1f 84 00 00 00 00 00 	cs nopw 0x0(%rax,%rax,1)
   16666:	66 2e 0f 1f 84 00 00 00 00 00 	cs nopw 0x0(%rax,%rax,1)
   16670:	66 2e 0f 1f 84 00 00 00 00 00 	cs nopw 0x0(%rax,%rax,1)
   1667a:	66 2e 0f 1f 84 00 00 00 00 00 	cs nopw 0x0(%rax,%rax,1)
   16684:	66 2e 0f 1f 84 00 00 00 00 00 	cs nopw 0x0(%rax,%rax,1)
   1668e:	66 2e 0f 1f 84 00 00 00 00 00 	cs nopw 0x0(%rax,%rax,1)
   16698:	66 2e 0f 1f 84 00 00 00 00 00 	cs nopw 0x0(%rax,%rax,1)
   166a2:	66 2e 0f 1f 84 00 00 00 00 00 	cs nopw 0x0(%rax,%rax,1)
   166ac:	66 2e 0f 1f 84 00 00 00 00 00 	cs nopw 0x0(%rax,%rax,1)
   166b6:	66 2e 0f 1f 84 00 00 00 00 00 	cs nopw 0x0(%rax,%rax,1)
   166c0:	66 2e 0f 1f 84 00 00 00 00 00 	cs nopw 0x0(%rax,%rax,1)
   166ca:	66 2e 0f 1f 84 00 00 00 00 00 	cs nopw 0x0(%rax,%rax,1)
   166d4:	66 2e 0f 1f 84 00 00 00 00 00 	cs nopw 0x0(%rax,%rax,1)
   166de:	66 2e 0f 1f 84 00 00 00 00 00 	cs nopw 0x0(%rax,%rax,1)
   166e8:	66 2e 0f 1f 84 00 00 00 00 00 	cs nopw 0x0(%rax,%rax,1)
   166f2:	66 2e 0f 1f 84 00 00 00 00 00 	cs nopw 0x0(%rax,%rax,1)
   166fc:	66 2e 0f 1f 84 00 00 00 00 00 	cs nopw 0x0(%rax,%rax,1)
   16706:	66 2e 0f 1f 84 00 00 00 00 00 	cs nopw 0x0(%rax,%rax,1)
   16710:	66 2e 0f 1f 84 00 00 00 00 00 	cs nopw 0x0(%rax,%rax,1)
   1671a:	66 2e 0f 1f 84 00 00 00 00 00 	cs nopw 0x0(%rax,%rax,1)
   16724:	66 2e 0f 1f 84 00 00 00 00 00 	cs nopw 0x0(%rax,%rax,1)
   1672e:	66 2e 0f 1f 84 00 00 00 00 00 	cs nopw 0x0(%rax,%rax,1)
   16738:	66 2e 0f 1f 84 00 00 00 00 00 	cs nopw 0x0(%rax,%rax,1)
   16742:	66 2e 0f 1f 84 00 00 00 00 00 	cs nopw 0x0(%rax,%rax,1)
   1674c:	66 2e 0f 1f 84 00 00 00 00 00 	cs nopw 0x0(%rax,%rax,1)
   16756:	66 2e 0f 1f 84 00 00 00 00 00 	cs nopw 0x0(%rax,%rax,1)
   16760:	66 2e 0f 1f 84 00 00 00 00 00 	cs nopw 0x0(%rax,%rax,1)
   1676a:	66 2e 0f 1f 84 00 00 00 00 00 	cs nopw 0x0(%rax,%rax,1)
   16774:	66 2e 0f 1f 84 00 00 00 00 00 	cs nopw 0x0(%rax,%rax,1)
   1677e:	66 2e 0f 1f 84 00 00 00 00 00 	cs nopw 0x0(%rax,%rax,1)
   16788:	66 2e 0f 1f 84 00 00 00 00 00 	cs nopw 0x0(%rax,%rax,1)
   16792:	66 2e 0f 1f 84 00 00 00 00 00 	cs nopw 0x0(%rax,%rax,1)
   1679c:	66 2e 0f 1f 84 00 00 00 00 00 	cs nopw 0x0(%rax,%rax,1)
   167a6:	66 2e 0f 1f 84 00 00 00 00 00 	cs nopw 0x0(%rax,%rax,1)
   167b0:	66 2e 0f 1f 84 00 00 00 00 00 	cs nopw 0x0(%rax,%rax,1)
   167ba:	66 2e 0f 1f 84 00 00 00 00 00 	cs nopw 0x0(%rax,%rax,1)
   167c4:	66 2e 0f 1f 84 00 00 00 00 00 	cs nopw 0x0(%rax,%rax,1)
   167ce:	66 2e 0f 1f 84 00 00 00 00 00 	cs nopw 0x0(%rax,%rax,1)
   167d8:	66 2e 0f 1f 84 00 00 00 00 00 	cs nopw 0x0(%rax,%rax,1)
   167e2:	66 2e 0f 1f 84 00 00 00 00 00 	cs nopw 0x0(%rax,%rax,1)
   167ec:	66 2e 0f 1f 84 00 00 00 00 00 	cs nopw 0x0(%rax,%rax,1)
   167f6:	66 2e 0f 1f 84 00 00 00 00 00 	cs nopw 0x0(%rax,%rax,1)
   16800:	66 2e 0f 1f 84 00 00 00 00 00 	cs nopw 0x0(%rax,%rax,1)
   1680a:	66 2e 0f 1f 84 00 00 00 00 00 	cs nopw 0x0(%rax,%rax,1)
   16814:	66 2e 0f 1f 84 00 00 00 00 00 	cs nopw 0x0(%rax,%rax,1)
   1681e:	66 2e 0f 1f 84 00 00 00 00 00 	cs nopw 0x0(%rax,%rax,1)
   16828:	66 2e 0f 1f 84 00 00 00 00 00 	cs nopw 0x0(%rax,%rax,1)
   16832:	66 2e 0f 1f 84 00 00 00 00 00 	cs nopw 0x0(%rax,%rax,1)
   1683c:	66 2e 0f 1f 84 00 00 00 00 00 	cs nopw 0x0(%rax,%rax,1)
   16846:	66 2e 0f 1f 84 00 00 00 00 00 	cs nopw 0x0(%rax,%rax,1)
   16850:	66 2e 0f 1f 84 00 00 00 00 00 	cs nopw 0x0(%rax,%rax,1)
   1685a:	66 2e 0f 1f 84 00 00 00 00 00 	cs nopw 0x0(%rax,%rax,1)
   16864:	66 2e 0f 1f 84 00 00 00 00 00 	cs nopw 0x0(%rax,%rax,1)
   1686e:	66 2e 0f 1f 84 00 00 00 00 00 	cs nopw 0x0(%rax,%rax,1)
   16878:	66 2e 0f 1f 84 00 00 00 00 00 	cs nopw 0x0(%rax,%rax,1)
   16882:	66 2e 0f 1f 84 00 00 00 00 00 	cs nopw 0x0(%rax,%rax,1)
   1688c:	66 2e 0f 1f 84 00 00 00 00 00 	cs nopw 0x0(%rax,%rax,1)
   16896:	66 2e 0f 1f 84 00 00 00 00 00 	cs nopw 0x0(%rax,%rax,1)
   168a0:	66 2e 0f 1f 84 00 00 00 00 00 	cs nopw 0x0(%rax,%rax,1)
   168aa:	66 2e 0f 1f 84 00 00 00 00 00 	cs nopw 0x0(%rax,%rax,1)
   168b4:	66 2e 0f 1f 84 00 00 00 00 00 	cs nopw 0x0(%rax,%rax,1)
   168be:	66 2e 0f 1f 84 00 00 00 00 00 	cs nopw 0x0(%rax,%rax,1)
   168c8:	66 2e 0f 1f 84 00 00 00 00 00 	cs nopw 0x0(%rax,%rax,1)
   168d2:	66 2e 0f 1f 84 00 00 00 00 00 	cs nopw 0x0(%rax,%rax,1)
   168dc:	66 2e 0f 1f 84 00 00 00 00 00 	cs nopw 0x0(%rax,%rax,1)
   168e6:	66 2e 0f 1f 84 00 00 00 00 00 	cs nopw 0x0(%rax,%rax,1)
   168f0:	66 2e 0f 1f 84 00 00 00 00 00 	cs nopw 0x0(%rax,%rax,1)
   168fa:	66 2e 0f 1f 84 00 00 00 00 00 	cs nopw 0x0(%rax,%rax,1)
   16904:	66 2e 0f 1f 84 00 00 00 00 00 	cs nopw 0x0(%rax,%rax,1)
   1690e:	66 2e 0f 1f 84 00 00 00 00 00 	cs nopw 0x0(%rax,%rax,1)
   16918:	66 2e 0f 1f 84 00 00 00 00 00 	cs nopw 0x0(%rax,%rax,1)
   16922:	66 2e 0f 1f 84 00 00 00 00 00 	cs nopw 0x0(%rax,%rax,1)
   1692c:	66 2e 0f 1f 84 00 00 00 00 00 	cs nopw 0x0(%rax,%rax,1)
   16936:	66 2e 0f 1f 84 00 00 00 00 00 	cs nopw 0x0(%rax,%rax,1)
   16940:	66 2e 0f 1f 84 00 00 00 00 00 	cs nopw 0x0(%rax,%rax,1)
   1694a:	66 2e 0f 1f 84 00 00 00 00 00 	cs nopw 0x0(%rax,%rax,1)
   16954:	66 2e 0f 1f 84 00 00 00 00 00 	cs nopw 0x0(%rax,%rax,1)
   1695e:	66 2e 0f 1f 84 00 00 00 00 00 	cs nopw 0x0(%rax,%rax,1)
   16968:	66 2e 0f 1f 84 00 00 00 00 00 	cs nopw 0x0(%rax,%rax,1)
   16972:	66 2e 0f 1f 84 00 00 00 00 00 	cs nopw 0x0(%rax,%rax,1)
   1697c:	66 2e 0f 1f 84 00 00 00 00 00 	cs nopw 0x0(%rax,%rax,1)
   16986:	66 2e 0f 1f 84 00 00 00 00 00 	cs nopw 0x0(%rax,%rax,1)
   16990:	66 2e 0f 1f 84 00 00 00 00 00 	cs nopw 0x0(%rax,%rax,1)
   1699a:	66 2e 0f 1f 84 00 00 00 00 00 	cs nopw 0x0(%rax,%rax,1)
   169a4:	66 2e 0f 1f 84 00 00 00 00 00 	cs nopw 0x0(%rax,%rax,1)
   169ae:	66 2e 0f 1f 84 00 00 00 00 00 	cs nopw 0x0(%rax,%rax,1)
   169b8:	66 2e 0f 1f 84 00 00 00 00 00 	cs nopw 0x0(%rax,%rax,1)
   169c2:	66 2e 0f 1f 84 00 00 00 00 00 	cs nopw 0x0(%rax,%rax,1)
   169cc:	66 2e 0f 1f 84 00 00 00 00 00 	cs nopw 0x0(%rax,%rax,1)
   169d6:	66 2e 0f 1f 84 00 00 00 00 00 	cs nopw 0x0(%rax,%rax,1)
   169e0:	66 2e 0f 1f 84 00 00 00 00 00 	cs nopw 0x0(%rax,%rax,1)
   169ea:	66 2e 0f 1f 84 00 00 00 00 00 	cs nopw 0x0(%rax,%rax,1)
   169f4:	66 2e 0f 1f 84 00 00 00 00 00 	cs nopw 0x0(%rax,%rax,1)
   169fe:	66 2e 0f 1f 84 00 00 00 00 00 	cs nopw 0x0(%rax,%rax,1)
   16a08:	66 2e 0f 1f 84 00 00 00 00 00 	cs nopw 0x0(%rax,%rax,1)
   16a12:	66 2e 0f 1f 84 00 00 00 00 00 	cs nopw 0x0(%rax,%rax,1)
   16a1c:	66 2e 0f 1f 84 00 00 00 00 00 	cs nopw 0x0(%rax,%rax,1)
   16a26:	66 2e 0f 1f 84 00 00 00 00 00 	cs nopw 0x0(%rax,%rax,1)
   16a30:	66 2e 0f 1f 84 00 00 00 00 00 	cs nopw 0x0(%rax,%rax,1)
   16a3a:	66 2e 0f 1f 84 00 00 00 00 00 	cs nopw 0x0(%rax,%rax,1)
   16a44:	66 2e 0f 1f 84 00 00 00 00 00 	cs nopw 0x0(%rax,%rax,1)
   16a4e:	66 2e 0f 1f 84 00 00 00 00 00 	cs nopw 0x0(%rax,%rax,1)
   16a58:	66 2e 0f 1f 84 00 00 00 00 00 	cs nopw 0x0(%rax,%rax,1)
   16a62:	66 2e 0f 1f 84 00 00 00 00 00 	cs nopw 0x0(%rax,%rax,1)
   16a6c:	66 2e 0f 1f 84 00 00 00 00 00 	cs nopw 0x0(%rax,%rax,1)
   16a76:	66 2e 0f 1f 84 00 00 00 00 00 	cs nopw 0x0(%rax,%rax,1)
   16a80:	66 2e 0f 1f 84 00 00 00 00 00 	cs nopw 0x0(%rax,%rax,1)
   16a8a:	66 2e 0f 1f 84 00 00 00 00 00 	cs nopw 0x0(%rax,%rax,1)
   16a94:	66 2e 0f 1f 84 00 00 00 00 00 	cs nopw 0x0(%rax,%rax,1)
   16a9e:	66 2e 0f 1f 84 00 00 00 00 00 	cs nopw 0x0(%rax,%rax,1)
   16aa8:	66 2e 0f 1f 84 00 00 00 00 00 	cs nopw 0x0(%rax,%rax,1)
   16ab2:	66 2e 0f 1f 84 00 00 00 00 00 	cs nopw 0x0(%rax,%rax,1)
   16abc:	66 2e 0f 1f 84 00 00 00 00 00 	cs nopw 0x0(%rax,%rax,1)
   16ac6:	66 2e 0f 1f 84 00 00 00 00 00 	cs nopw 0x0(%rax,%rax,1)
   16ad0:	66 2e 0f 1f 84 00 00 00 00 00 	cs nopw 0x0(%rax,%rax,1)
   16ada:	66 2e 0f 1f 84 00 00 00 00 00 	cs nopw 0x0(%rax,%rax,1)
   16ae4:	66 2e 0f 1f 84 00 00 00 00 00 	cs nopw 0x0(%rax,%rax,1)
   16aee:	66 2e 0f 1f 84 00 00 00 00 00 	cs nopw 0x0(%rax,%rax,1)
   16af8:	66 2e 0f 1f 84 00 00 00 00 00 	cs nopw 0x0(%rax,%rax,1)
   16b02:	66 2e 0f 1f 84 00 00 00 00 00 	cs nopw 0x0(%rax,%rax,1)
   16b0c:	66 2e 0f 1f 84 00 00 00 00 00 	cs nopw 0x0(%rax,%rax,1)
   16b16:	66 2e 0f 1f 84 00 00 00 00 00 	cs nopw 0x0(%rax,%rax,1)
   16b20:	66 2e 0f 1f 84 00 00 00 00 00 	cs nopw 0x0(%rax,%rax,1)
   16b2a:	66 2e 0f 1f 84 00 00 00 00 00 	cs nopw 0x0(%rax,%rax,1)
   16b34:	66 2e 0f 1f 84 00 00 00 00 00 	cs nopw 0x0(%rax,%rax,1)
   16b3e:	66 2e 0f 1f 84 00 00 00 00 00 	cs nopw 0x0(%rax,%rax,1)
   16b48:	66 2e 0f 1f 84 00 00 00 00 00 	cs nopw 0x0(%rax,%rax,1)
   16b52:	66 2e 0f 1f 84 00 00 00 00 00 	cs nopw 0x0(%rax,%rax,1)
   16b5c:	66 2e 0f 1f 84 00 00 00 00 00 	cs nopw 0x0(%rax,%rax,1)
   16b66:	66 2e 0f 1f 84 00 00 00 00 00 	cs nopw 0x0(%rax,%rax,1)
   16b70:	66 2e 0f 1f 84 00 00 00 00 00 	cs nopw 0x0(%rax,%rax,1)
   16b7a:	66 2e 0f 1f 84 00 00 00 00 00 	cs nopw 0x0(%rax,%rax,1)
   16b84:	66 2e 0f 1f 84 00 00 00 00 00 	cs nopw 0x0(%rax,%rax,1)
   16b8e:	66 2e 0f 1f 84 00 00 00 00 00 	cs nopw 0x0(%rax,%rax,1)
   16b98:	66 2e 0f 1f 84 00 00 00 00 00 	cs nopw 0x0(%rax,%rax,1)
   16ba2:	66 2e 0f 1f 84 00 00 00 00 00 	cs nopw 0x0(%rax,%rax,1)
   16bac:	66 2e 0f 1f 84 00 00 00 00 00 	cs nopw 0x0(%rax,%rax,1)
   16bb6:	66 2e 0f 1f 84 00 00 00 00 00 	cs nopw 0x0(%rax,%rax,1)
   16bc0:	66 2e 0f 1f 84 00 00 00 00 00 	cs nopw 0x0(%rax,%rax,1)
   16bca:	66 2e 0f 1f 84 00 00 00 00 00 	cs nopw 0x0(%rax,%rax,1)
